
Nucleo_Oven.elf:     file format elf32-littlearm

Sections:
Idx Name          Size      VMA       LMA       File off  Algn
  0 .isr_vector   00000198  08000000  08000000  00010000  2**0
                  CONTENTS, ALLOC, LOAD, READONLY, DATA
  1 .text         00009e40  080001a0  080001a0  000101a0  2**4
                  CONTENTS, ALLOC, LOAD, READONLY, CODE
  2 .rodata       0000062c  08009fe0  08009fe0  00019fe0  2**3
                  CONTENTS, ALLOC, LOAD, READONLY, DATA
  3 .ARM.extab    00000000  0800a60c  0800a60c  00020498  2**0
                  CONTENTS
  4 .ARM          00000008  0800a60c  0800a60c  0001a60c  2**2
                  CONTENTS, ALLOC, LOAD, READONLY, DATA
  5 .preinit_array 00000000  0800a614  0800a614  00020498  2**0
                  CONTENTS, ALLOC, LOAD, DATA
  6 .init_array   00000004  0800a614  0800a614  0001a614  2**2
                  CONTENTS, ALLOC, LOAD, DATA
  7 .fini_array   00000004  0800a618  0800a618  0001a618  2**2
                  CONTENTS, ALLOC, LOAD, DATA
  8 .data         00000498  20000000  0800a61c  00020000  2**2
                  CONTENTS, ALLOC, LOAD, DATA
  9 .bss          00000274  20000498  0800aab4  00020498  2**2
                  ALLOC
 10 ._user_heap_stack 00000604  2000070c  0800aab4  0002070c  2**0
                  ALLOC
 11 .ARM.attributes 00000030  00000000  00000000  00020498  2**0
                  CONTENTS, READONLY
 12 .debug_info   00013ad8  00000000  00000000  000204c8  2**0
                  CONTENTS, READONLY, DEBUGGING, OCTETS
 13 .debug_abbrev 00002bc2  00000000  00000000  00033fa0  2**0
                  CONTENTS, READONLY, DEBUGGING, OCTETS
 14 .debug_aranges 00001028  00000000  00000000  00036b68  2**3
                  CONTENTS, READONLY, DEBUGGING, OCTETS
 15 .debug_ranges 00000f58  00000000  00000000  00037b90  2**3
                  CONTENTS, READONLY, DEBUGGING, OCTETS
 16 .debug_macro  00018e37  00000000  00000000  00038ae8  2**0
                  CONTENTS, READONLY, DEBUGGING, OCTETS
 17 .debug_line   00013c65  00000000  00000000  0005191f  2**0
                  CONTENTS, READONLY, DEBUGGING, OCTETS
 18 .debug_str    000926c6  00000000  00000000  00065584  2**0
                  CONTENTS, READONLY, DEBUGGING, OCTETS
 19 .comment      00000050  00000000  00000000  000f7c4a  2**0
                  CONTENTS, READONLY
 20 .debug_frame  000055d0  00000000  00000000  000f7c9c  2**2
                  CONTENTS, READONLY, DEBUGGING, OCTETS

Disassembly of section .text:

080001a0 <__do_global_dtors_aux>:
 80001a0:	b510      	push	{r4, lr}
 80001a2:	4c05      	ldr	r4, [pc, #20]	; (80001b8 <__do_global_dtors_aux+0x18>)
 80001a4:	7823      	ldrb	r3, [r4, #0]
 80001a6:	b933      	cbnz	r3, 80001b6 <__do_global_dtors_aux+0x16>
 80001a8:	4b04      	ldr	r3, [pc, #16]	; (80001bc <__do_global_dtors_aux+0x1c>)
 80001aa:	b113      	cbz	r3, 80001b2 <__do_global_dtors_aux+0x12>
 80001ac:	4804      	ldr	r0, [pc, #16]	; (80001c0 <__do_global_dtors_aux+0x20>)
 80001ae:	f3af 8000 	nop.w
 80001b2:	2301      	movs	r3, #1
 80001b4:	7023      	strb	r3, [r4, #0]
 80001b6:	bd10      	pop	{r4, pc}
 80001b8:	20000498 	.word	0x20000498
 80001bc:	00000000 	.word	0x00000000
 80001c0:	08009fc8 	.word	0x08009fc8

080001c4 <frame_dummy>:
 80001c4:	b508      	push	{r3, lr}
 80001c6:	4b03      	ldr	r3, [pc, #12]	; (80001d4 <frame_dummy+0x10>)
 80001c8:	b11b      	cbz	r3, 80001d2 <frame_dummy+0xe>
 80001ca:	4903      	ldr	r1, [pc, #12]	; (80001d8 <frame_dummy+0x14>)
 80001cc:	4803      	ldr	r0, [pc, #12]	; (80001dc <frame_dummy+0x18>)
 80001ce:	f3af 8000 	nop.w
 80001d2:	bd08      	pop	{r3, pc}
 80001d4:	00000000 	.word	0x00000000
 80001d8:	2000049c 	.word	0x2000049c
 80001dc:	08009fc8 	.word	0x08009fc8

080001e0 <strlen>:
 80001e0:	4603      	mov	r3, r0
 80001e2:	f813 2b01 	ldrb.w	r2, [r3], #1
 80001e6:	2a00      	cmp	r2, #0
 80001e8:	d1fb      	bne.n	80001e2 <strlen+0x2>
 80001ea:	1a18      	subs	r0, r3, r0
 80001ec:	3801      	subs	r0, #1
 80001ee:	4770      	bx	lr

080001f0 <memchr>:
 80001f0:	f001 01ff 	and.w	r1, r1, #255	; 0xff
 80001f4:	2a10      	cmp	r2, #16
 80001f6:	db2b      	blt.n	8000250 <memchr+0x60>
 80001f8:	f010 0f07 	tst.w	r0, #7
 80001fc:	d008      	beq.n	8000210 <memchr+0x20>
 80001fe:	f810 3b01 	ldrb.w	r3, [r0], #1
 8000202:	3a01      	subs	r2, #1
 8000204:	428b      	cmp	r3, r1
 8000206:	d02d      	beq.n	8000264 <memchr+0x74>
 8000208:	f010 0f07 	tst.w	r0, #7
 800020c:	b342      	cbz	r2, 8000260 <memchr+0x70>
 800020e:	d1f6      	bne.n	80001fe <memchr+0xe>
 8000210:	b4f0      	push	{r4, r5, r6, r7}
 8000212:	ea41 2101 	orr.w	r1, r1, r1, lsl #8
 8000216:	ea41 4101 	orr.w	r1, r1, r1, lsl #16
 800021a:	f022 0407 	bic.w	r4, r2, #7
 800021e:	f07f 0700 	mvns.w	r7, #0
 8000222:	2300      	movs	r3, #0
 8000224:	e8f0 5602 	ldrd	r5, r6, [r0], #8
 8000228:	3c08      	subs	r4, #8
 800022a:	ea85 0501 	eor.w	r5, r5, r1
 800022e:	ea86 0601 	eor.w	r6, r6, r1
 8000232:	fa85 f547 	uadd8	r5, r5, r7
 8000236:	faa3 f587 	sel	r5, r3, r7
 800023a:	fa86 f647 	uadd8	r6, r6, r7
 800023e:	faa5 f687 	sel	r6, r5, r7
 8000242:	b98e      	cbnz	r6, 8000268 <memchr+0x78>
 8000244:	d1ee      	bne.n	8000224 <memchr+0x34>
 8000246:	bcf0      	pop	{r4, r5, r6, r7}
 8000248:	f001 01ff 	and.w	r1, r1, #255	; 0xff
 800024c:	f002 0207 	and.w	r2, r2, #7
 8000250:	b132      	cbz	r2, 8000260 <memchr+0x70>
 8000252:	f810 3b01 	ldrb.w	r3, [r0], #1
 8000256:	3a01      	subs	r2, #1
 8000258:	ea83 0301 	eor.w	r3, r3, r1
 800025c:	b113      	cbz	r3, 8000264 <memchr+0x74>
 800025e:	d1f8      	bne.n	8000252 <memchr+0x62>
 8000260:	2000      	movs	r0, #0
 8000262:	4770      	bx	lr
 8000264:	3801      	subs	r0, #1
 8000266:	4770      	bx	lr
 8000268:	2d00      	cmp	r5, #0
 800026a:	bf06      	itte	eq
 800026c:	4635      	moveq	r5, r6
 800026e:	3803      	subeq	r0, #3
 8000270:	3807      	subne	r0, #7
 8000272:	f015 0f01 	tst.w	r5, #1
 8000276:	d107      	bne.n	8000288 <memchr+0x98>
 8000278:	3001      	adds	r0, #1
 800027a:	f415 7f80 	tst.w	r5, #256	; 0x100
 800027e:	bf02      	ittt	eq
 8000280:	3001      	addeq	r0, #1
 8000282:	f415 3fc0 	tsteq.w	r5, #98304	; 0x18000
 8000286:	3001      	addeq	r0, #1
 8000288:	bcf0      	pop	{r4, r5, r6, r7}
 800028a:	3801      	subs	r0, #1
 800028c:	4770      	bx	lr
 800028e:	bf00      	nop

08000290 <__aeabi_drsub>:
 8000290:	f081 4100 	eor.w	r1, r1, #2147483648	; 0x80000000
 8000294:	e002      	b.n	800029c <__adddf3>
 8000296:	bf00      	nop

08000298 <__aeabi_dsub>:
 8000298:	f083 4300 	eor.w	r3, r3, #2147483648	; 0x80000000

0800029c <__adddf3>:
 800029c:	b530      	push	{r4, r5, lr}
 800029e:	ea4f 0441 	mov.w	r4, r1, lsl #1
 80002a2:	ea4f 0543 	mov.w	r5, r3, lsl #1
 80002a6:	ea94 0f05 	teq	r4, r5
 80002aa:	bf08      	it	eq
 80002ac:	ea90 0f02 	teqeq	r0, r2
 80002b0:	bf1f      	itttt	ne
 80002b2:	ea54 0c00 	orrsne.w	ip, r4, r0
 80002b6:	ea55 0c02 	orrsne.w	ip, r5, r2
 80002ba:	ea7f 5c64 	mvnsne.w	ip, r4, asr #21
 80002be:	ea7f 5c65 	mvnsne.w	ip, r5, asr #21
 80002c2:	f000 80e2 	beq.w	800048a <__adddf3+0x1ee>
 80002c6:	ea4f 5454 	mov.w	r4, r4, lsr #21
 80002ca:	ebd4 5555 	rsbs	r5, r4, r5, lsr #21
 80002ce:	bfb8      	it	lt
 80002d0:	426d      	neglt	r5, r5
 80002d2:	dd0c      	ble.n	80002ee <__adddf3+0x52>
 80002d4:	442c      	add	r4, r5
 80002d6:	ea80 0202 	eor.w	r2, r0, r2
 80002da:	ea81 0303 	eor.w	r3, r1, r3
 80002de:	ea82 0000 	eor.w	r0, r2, r0
 80002e2:	ea83 0101 	eor.w	r1, r3, r1
 80002e6:	ea80 0202 	eor.w	r2, r0, r2
 80002ea:	ea81 0303 	eor.w	r3, r1, r3
 80002ee:	2d36      	cmp	r5, #54	; 0x36
 80002f0:	bf88      	it	hi
 80002f2:	bd30      	pophi	{r4, r5, pc}
 80002f4:	f011 4f00 	tst.w	r1, #2147483648	; 0x80000000
 80002f8:	ea4f 3101 	mov.w	r1, r1, lsl #12
 80002fc:	f44f 1c80 	mov.w	ip, #1048576	; 0x100000
 8000300:	ea4c 3111 	orr.w	r1, ip, r1, lsr #12
 8000304:	d002      	beq.n	800030c <__adddf3+0x70>
 8000306:	4240      	negs	r0, r0
 8000308:	eb61 0141 	sbc.w	r1, r1, r1, lsl #1
 800030c:	f013 4f00 	tst.w	r3, #2147483648	; 0x80000000
 8000310:	ea4f 3303 	mov.w	r3, r3, lsl #12
 8000314:	ea4c 3313 	orr.w	r3, ip, r3, lsr #12
 8000318:	d002      	beq.n	8000320 <__adddf3+0x84>
 800031a:	4252      	negs	r2, r2
 800031c:	eb63 0343 	sbc.w	r3, r3, r3, lsl #1
 8000320:	ea94 0f05 	teq	r4, r5
 8000324:	f000 80a7 	beq.w	8000476 <__adddf3+0x1da>
 8000328:	f1a4 0401 	sub.w	r4, r4, #1
 800032c:	f1d5 0e20 	rsbs	lr, r5, #32
 8000330:	db0d      	blt.n	800034e <__adddf3+0xb2>
 8000332:	fa02 fc0e 	lsl.w	ip, r2, lr
 8000336:	fa22 f205 	lsr.w	r2, r2, r5
 800033a:	1880      	adds	r0, r0, r2
 800033c:	f141 0100 	adc.w	r1, r1, #0
 8000340:	fa03 f20e 	lsl.w	r2, r3, lr
 8000344:	1880      	adds	r0, r0, r2
 8000346:	fa43 f305 	asr.w	r3, r3, r5
 800034a:	4159      	adcs	r1, r3
 800034c:	e00e      	b.n	800036c <__adddf3+0xd0>
 800034e:	f1a5 0520 	sub.w	r5, r5, #32
 8000352:	f10e 0e20 	add.w	lr, lr, #32
 8000356:	2a01      	cmp	r2, #1
 8000358:	fa03 fc0e 	lsl.w	ip, r3, lr
 800035c:	bf28      	it	cs
 800035e:	f04c 0c02 	orrcs.w	ip, ip, #2
 8000362:	fa43 f305 	asr.w	r3, r3, r5
 8000366:	18c0      	adds	r0, r0, r3
 8000368:	eb51 71e3 	adcs.w	r1, r1, r3, asr #31
 800036c:	f001 4500 	and.w	r5, r1, #2147483648	; 0x80000000
 8000370:	d507      	bpl.n	8000382 <__adddf3+0xe6>
 8000372:	f04f 0e00 	mov.w	lr, #0
 8000376:	f1dc 0c00 	rsbs	ip, ip, #0
 800037a:	eb7e 0000 	sbcs.w	r0, lr, r0
 800037e:	eb6e 0101 	sbc.w	r1, lr, r1
 8000382:	f5b1 1f80 	cmp.w	r1, #1048576	; 0x100000
 8000386:	d31b      	bcc.n	80003c0 <__adddf3+0x124>
 8000388:	f5b1 1f00 	cmp.w	r1, #2097152	; 0x200000
 800038c:	d30c      	bcc.n	80003a8 <__adddf3+0x10c>
 800038e:	0849      	lsrs	r1, r1, #1
 8000390:	ea5f 0030 	movs.w	r0, r0, rrx
 8000394:	ea4f 0c3c 	mov.w	ip, ip, rrx
 8000398:	f104 0401 	add.w	r4, r4, #1
 800039c:	ea4f 5244 	mov.w	r2, r4, lsl #21
 80003a0:	f512 0f80 	cmn.w	r2, #4194304	; 0x400000
 80003a4:	f080 809a 	bcs.w	80004dc <__adddf3+0x240>
 80003a8:	f1bc 4f00 	cmp.w	ip, #2147483648	; 0x80000000
 80003ac:	bf08      	it	eq
 80003ae:	ea5f 0c50 	movseq.w	ip, r0, lsr #1
 80003b2:	f150 0000 	adcs.w	r0, r0, #0
 80003b6:	eb41 5104 	adc.w	r1, r1, r4, lsl #20
 80003ba:	ea41 0105 	orr.w	r1, r1, r5
 80003be:	bd30      	pop	{r4, r5, pc}
 80003c0:	ea5f 0c4c 	movs.w	ip, ip, lsl #1
 80003c4:	4140      	adcs	r0, r0
 80003c6:	eb41 0101 	adc.w	r1, r1, r1
 80003ca:	3c01      	subs	r4, #1
 80003cc:	bf28      	it	cs
 80003ce:	f5b1 1f80 	cmpcs.w	r1, #1048576	; 0x100000
 80003d2:	d2e9      	bcs.n	80003a8 <__adddf3+0x10c>
 80003d4:	f091 0f00 	teq	r1, #0
 80003d8:	bf04      	itt	eq
 80003da:	4601      	moveq	r1, r0
 80003dc:	2000      	moveq	r0, #0
 80003de:	fab1 f381 	clz	r3, r1
 80003e2:	bf08      	it	eq
 80003e4:	3320      	addeq	r3, #32
 80003e6:	f1a3 030b 	sub.w	r3, r3, #11
 80003ea:	f1b3 0220 	subs.w	r2, r3, #32
 80003ee:	da0c      	bge.n	800040a <__adddf3+0x16e>
 80003f0:	320c      	adds	r2, #12
 80003f2:	dd08      	ble.n	8000406 <__adddf3+0x16a>
 80003f4:	f102 0c14 	add.w	ip, r2, #20
 80003f8:	f1c2 020c 	rsb	r2, r2, #12
 80003fc:	fa01 f00c 	lsl.w	r0, r1, ip
 8000400:	fa21 f102 	lsr.w	r1, r1, r2
 8000404:	e00c      	b.n	8000420 <__adddf3+0x184>
 8000406:	f102 0214 	add.w	r2, r2, #20
 800040a:	bfd8      	it	le
 800040c:	f1c2 0c20 	rsble	ip, r2, #32
 8000410:	fa01 f102 	lsl.w	r1, r1, r2
 8000414:	fa20 fc0c 	lsr.w	ip, r0, ip
 8000418:	bfdc      	itt	le
 800041a:	ea41 010c 	orrle.w	r1, r1, ip
 800041e:	4090      	lslle	r0, r2
 8000420:	1ae4      	subs	r4, r4, r3
 8000422:	bfa2      	ittt	ge
 8000424:	eb01 5104 	addge.w	r1, r1, r4, lsl #20
 8000428:	4329      	orrge	r1, r5
 800042a:	bd30      	popge	{r4, r5, pc}
 800042c:	ea6f 0404 	mvn.w	r4, r4
 8000430:	3c1f      	subs	r4, #31
 8000432:	da1c      	bge.n	800046e <__adddf3+0x1d2>
 8000434:	340c      	adds	r4, #12
 8000436:	dc0e      	bgt.n	8000456 <__adddf3+0x1ba>
 8000438:	f104 0414 	add.w	r4, r4, #20
 800043c:	f1c4 0220 	rsb	r2, r4, #32
 8000440:	fa20 f004 	lsr.w	r0, r0, r4
 8000444:	fa01 f302 	lsl.w	r3, r1, r2
 8000448:	ea40 0003 	orr.w	r0, r0, r3
 800044c:	fa21 f304 	lsr.w	r3, r1, r4
 8000450:	ea45 0103 	orr.w	r1, r5, r3
 8000454:	bd30      	pop	{r4, r5, pc}
 8000456:	f1c4 040c 	rsb	r4, r4, #12
 800045a:	f1c4 0220 	rsb	r2, r4, #32
 800045e:	fa20 f002 	lsr.w	r0, r0, r2
 8000462:	fa01 f304 	lsl.w	r3, r1, r4
 8000466:	ea40 0003 	orr.w	r0, r0, r3
 800046a:	4629      	mov	r1, r5
 800046c:	bd30      	pop	{r4, r5, pc}
 800046e:	fa21 f004 	lsr.w	r0, r1, r4
 8000472:	4629      	mov	r1, r5
 8000474:	bd30      	pop	{r4, r5, pc}
 8000476:	f094 0f00 	teq	r4, #0
 800047a:	f483 1380 	eor.w	r3, r3, #1048576	; 0x100000
 800047e:	bf06      	itte	eq
 8000480:	f481 1180 	eoreq.w	r1, r1, #1048576	; 0x100000
 8000484:	3401      	addeq	r4, #1
 8000486:	3d01      	subne	r5, #1
 8000488:	e74e      	b.n	8000328 <__adddf3+0x8c>
 800048a:	ea7f 5c64 	mvns.w	ip, r4, asr #21
 800048e:	bf18      	it	ne
 8000490:	ea7f 5c65 	mvnsne.w	ip, r5, asr #21
 8000494:	d029      	beq.n	80004ea <__adddf3+0x24e>
 8000496:	ea94 0f05 	teq	r4, r5
 800049a:	bf08      	it	eq
 800049c:	ea90 0f02 	teqeq	r0, r2
 80004a0:	d005      	beq.n	80004ae <__adddf3+0x212>
 80004a2:	ea54 0c00 	orrs.w	ip, r4, r0
 80004a6:	bf04      	itt	eq
 80004a8:	4619      	moveq	r1, r3
 80004aa:	4610      	moveq	r0, r2
 80004ac:	bd30      	pop	{r4, r5, pc}
 80004ae:	ea91 0f03 	teq	r1, r3
 80004b2:	bf1e      	ittt	ne
 80004b4:	2100      	movne	r1, #0
 80004b6:	2000      	movne	r0, #0
 80004b8:	bd30      	popne	{r4, r5, pc}
 80004ba:	ea5f 5c54 	movs.w	ip, r4, lsr #21
 80004be:	d105      	bne.n	80004cc <__adddf3+0x230>
 80004c0:	0040      	lsls	r0, r0, #1
 80004c2:	4149      	adcs	r1, r1
 80004c4:	bf28      	it	cs
 80004c6:	f041 4100 	orrcs.w	r1, r1, #2147483648	; 0x80000000
 80004ca:	bd30      	pop	{r4, r5, pc}
 80004cc:	f514 0480 	adds.w	r4, r4, #4194304	; 0x400000
 80004d0:	bf3c      	itt	cc
 80004d2:	f501 1180 	addcc.w	r1, r1, #1048576	; 0x100000
 80004d6:	bd30      	popcc	{r4, r5, pc}
 80004d8:	f001 4500 	and.w	r5, r1, #2147483648	; 0x80000000
 80004dc:	f045 41fe 	orr.w	r1, r5, #2130706432	; 0x7f000000
 80004e0:	f441 0170 	orr.w	r1, r1, #15728640	; 0xf00000
 80004e4:	f04f 0000 	mov.w	r0, #0
 80004e8:	bd30      	pop	{r4, r5, pc}
 80004ea:	ea7f 5c64 	mvns.w	ip, r4, asr #21
 80004ee:	bf1a      	itte	ne
 80004f0:	4619      	movne	r1, r3
 80004f2:	4610      	movne	r0, r2
 80004f4:	ea7f 5c65 	mvnseq.w	ip, r5, asr #21
 80004f8:	bf1c      	itt	ne
 80004fa:	460b      	movne	r3, r1
 80004fc:	4602      	movne	r2, r0
 80004fe:	ea50 3401 	orrs.w	r4, r0, r1, lsl #12
 8000502:	bf06      	itte	eq
 8000504:	ea52 3503 	orrseq.w	r5, r2, r3, lsl #12
 8000508:	ea91 0f03 	teqeq	r1, r3
 800050c:	f441 2100 	orrne.w	r1, r1, #524288	; 0x80000
 8000510:	bd30      	pop	{r4, r5, pc}
 8000512:	bf00      	nop

08000514 <__aeabi_ui2d>:
 8000514:	f090 0f00 	teq	r0, #0
 8000518:	bf04      	itt	eq
 800051a:	2100      	moveq	r1, #0
 800051c:	4770      	bxeq	lr
 800051e:	b530      	push	{r4, r5, lr}
 8000520:	f44f 6480 	mov.w	r4, #1024	; 0x400
 8000524:	f104 0432 	add.w	r4, r4, #50	; 0x32
 8000528:	f04f 0500 	mov.w	r5, #0
 800052c:	f04f 0100 	mov.w	r1, #0
 8000530:	e750      	b.n	80003d4 <__adddf3+0x138>
 8000532:	bf00      	nop

08000534 <__aeabi_i2d>:
 8000534:	f090 0f00 	teq	r0, #0
 8000538:	bf04      	itt	eq
 800053a:	2100      	moveq	r1, #0
 800053c:	4770      	bxeq	lr
 800053e:	b530      	push	{r4, r5, lr}
 8000540:	f44f 6480 	mov.w	r4, #1024	; 0x400
 8000544:	f104 0432 	add.w	r4, r4, #50	; 0x32
 8000548:	f010 4500 	ands.w	r5, r0, #2147483648	; 0x80000000
 800054c:	bf48      	it	mi
 800054e:	4240      	negmi	r0, r0
 8000550:	f04f 0100 	mov.w	r1, #0
 8000554:	e73e      	b.n	80003d4 <__adddf3+0x138>
 8000556:	bf00      	nop

08000558 <__aeabi_f2d>:
 8000558:	0042      	lsls	r2, r0, #1
 800055a:	ea4f 01e2 	mov.w	r1, r2, asr #3
 800055e:	ea4f 0131 	mov.w	r1, r1, rrx
 8000562:	ea4f 7002 	mov.w	r0, r2, lsl #28
 8000566:	bf1f      	itttt	ne
 8000568:	f012 437f 	andsne.w	r3, r2, #4278190080	; 0xff000000
 800056c:	f093 4f7f 	teqne	r3, #4278190080	; 0xff000000
 8000570:	f081 5160 	eorne.w	r1, r1, #939524096	; 0x38000000
 8000574:	4770      	bxne	lr
 8000576:	f032 427f 	bics.w	r2, r2, #4278190080	; 0xff000000
 800057a:	bf08      	it	eq
 800057c:	4770      	bxeq	lr
 800057e:	f093 4f7f 	teq	r3, #4278190080	; 0xff000000
 8000582:	bf04      	itt	eq
 8000584:	f441 2100 	orreq.w	r1, r1, #524288	; 0x80000
 8000588:	4770      	bxeq	lr
 800058a:	b530      	push	{r4, r5, lr}
 800058c:	f44f 7460 	mov.w	r4, #896	; 0x380
 8000590:	f001 4500 	and.w	r5, r1, #2147483648	; 0x80000000
 8000594:	f021 4100 	bic.w	r1, r1, #2147483648	; 0x80000000
 8000598:	e71c      	b.n	80003d4 <__adddf3+0x138>
 800059a:	bf00      	nop

0800059c <__aeabi_ul2d>:
 800059c:	ea50 0201 	orrs.w	r2, r0, r1
 80005a0:	bf08      	it	eq
 80005a2:	4770      	bxeq	lr
 80005a4:	b530      	push	{r4, r5, lr}
 80005a6:	f04f 0500 	mov.w	r5, #0
 80005aa:	e00a      	b.n	80005c2 <__aeabi_l2d+0x16>

080005ac <__aeabi_l2d>:
 80005ac:	ea50 0201 	orrs.w	r2, r0, r1
 80005b0:	bf08      	it	eq
 80005b2:	4770      	bxeq	lr
 80005b4:	b530      	push	{r4, r5, lr}
 80005b6:	f011 4500 	ands.w	r5, r1, #2147483648	; 0x80000000
 80005ba:	d502      	bpl.n	80005c2 <__aeabi_l2d+0x16>
 80005bc:	4240      	negs	r0, r0
 80005be:	eb61 0141 	sbc.w	r1, r1, r1, lsl #1
 80005c2:	f44f 6480 	mov.w	r4, #1024	; 0x400
 80005c6:	f104 0432 	add.w	r4, r4, #50	; 0x32
 80005ca:	ea5f 5c91 	movs.w	ip, r1, lsr #22
 80005ce:	f43f aed8 	beq.w	8000382 <__adddf3+0xe6>
 80005d2:	f04f 0203 	mov.w	r2, #3
 80005d6:	ea5f 0cdc 	movs.w	ip, ip, lsr #3
 80005da:	bf18      	it	ne
 80005dc:	3203      	addne	r2, #3
 80005de:	ea5f 0cdc 	movs.w	ip, ip, lsr #3
 80005e2:	bf18      	it	ne
 80005e4:	3203      	addne	r2, #3
 80005e6:	eb02 02dc 	add.w	r2, r2, ip, lsr #3
 80005ea:	f1c2 0320 	rsb	r3, r2, #32
 80005ee:	fa00 fc03 	lsl.w	ip, r0, r3
 80005f2:	fa20 f002 	lsr.w	r0, r0, r2
 80005f6:	fa01 fe03 	lsl.w	lr, r1, r3
 80005fa:	ea40 000e 	orr.w	r0, r0, lr
 80005fe:	fa21 f102 	lsr.w	r1, r1, r2
 8000602:	4414      	add	r4, r2
 8000604:	e6bd      	b.n	8000382 <__adddf3+0xe6>
 8000606:	bf00      	nop

08000608 <__aeabi_dmul>:
 8000608:	b570      	push	{r4, r5, r6, lr}
 800060a:	f04f 0cff 	mov.w	ip, #255	; 0xff
 800060e:	f44c 6ce0 	orr.w	ip, ip, #1792	; 0x700
 8000612:	ea1c 5411 	ands.w	r4, ip, r1, lsr #20
 8000616:	bf1d      	ittte	ne
 8000618:	ea1c 5513 	andsne.w	r5, ip, r3, lsr #20
 800061c:	ea94 0f0c 	teqne	r4, ip
 8000620:	ea95 0f0c 	teqne	r5, ip
 8000624:	f000 f8de 	bleq	80007e4 <__aeabi_dmul+0x1dc>
 8000628:	442c      	add	r4, r5
 800062a:	ea81 0603 	eor.w	r6, r1, r3
 800062e:	ea21 514c 	bic.w	r1, r1, ip, lsl #21
 8000632:	ea23 534c 	bic.w	r3, r3, ip, lsl #21
 8000636:	ea50 3501 	orrs.w	r5, r0, r1, lsl #12
 800063a:	bf18      	it	ne
 800063c:	ea52 3503 	orrsne.w	r5, r2, r3, lsl #12
 8000640:	f441 1180 	orr.w	r1, r1, #1048576	; 0x100000
 8000644:	f443 1380 	orr.w	r3, r3, #1048576	; 0x100000
 8000648:	d038      	beq.n	80006bc <__aeabi_dmul+0xb4>
 800064a:	fba0 ce02 	umull	ip, lr, r0, r2
 800064e:	f04f 0500 	mov.w	r5, #0
 8000652:	fbe1 e502 	umlal	lr, r5, r1, r2
 8000656:	f006 4200 	and.w	r2, r6, #2147483648	; 0x80000000
 800065a:	fbe0 e503 	umlal	lr, r5, r0, r3
 800065e:	f04f 0600 	mov.w	r6, #0
 8000662:	fbe1 5603 	umlal	r5, r6, r1, r3
 8000666:	f09c 0f00 	teq	ip, #0
 800066a:	bf18      	it	ne
 800066c:	f04e 0e01 	orrne.w	lr, lr, #1
 8000670:	f1a4 04ff 	sub.w	r4, r4, #255	; 0xff
 8000674:	f5b6 7f00 	cmp.w	r6, #512	; 0x200
 8000678:	f564 7440 	sbc.w	r4, r4, #768	; 0x300
 800067c:	d204      	bcs.n	8000688 <__aeabi_dmul+0x80>
 800067e:	ea5f 0e4e 	movs.w	lr, lr, lsl #1
 8000682:	416d      	adcs	r5, r5
 8000684:	eb46 0606 	adc.w	r6, r6, r6
 8000688:	ea42 21c6 	orr.w	r1, r2, r6, lsl #11
 800068c:	ea41 5155 	orr.w	r1, r1, r5, lsr #21
 8000690:	ea4f 20c5 	mov.w	r0, r5, lsl #11
 8000694:	ea40 505e 	orr.w	r0, r0, lr, lsr #21
 8000698:	ea4f 2ece 	mov.w	lr, lr, lsl #11
 800069c:	f1b4 0cfd 	subs.w	ip, r4, #253	; 0xfd
 80006a0:	bf88      	it	hi
 80006a2:	f5bc 6fe0 	cmphi.w	ip, #1792	; 0x700
 80006a6:	d81e      	bhi.n	80006e6 <__aeabi_dmul+0xde>
 80006a8:	f1be 4f00 	cmp.w	lr, #2147483648	; 0x80000000
 80006ac:	bf08      	it	eq
 80006ae:	ea5f 0e50 	movseq.w	lr, r0, lsr #1
 80006b2:	f150 0000 	adcs.w	r0, r0, #0
 80006b6:	eb41 5104 	adc.w	r1, r1, r4, lsl #20
 80006ba:	bd70      	pop	{r4, r5, r6, pc}
 80006bc:	f006 4600 	and.w	r6, r6, #2147483648	; 0x80000000
 80006c0:	ea46 0101 	orr.w	r1, r6, r1
 80006c4:	ea40 0002 	orr.w	r0, r0, r2
 80006c8:	ea81 0103 	eor.w	r1, r1, r3
 80006cc:	ebb4 045c 	subs.w	r4, r4, ip, lsr #1
 80006d0:	bfc2      	ittt	gt
 80006d2:	ebd4 050c 	rsbsgt	r5, r4, ip
 80006d6:	ea41 5104 	orrgt.w	r1, r1, r4, lsl #20
 80006da:	bd70      	popgt	{r4, r5, r6, pc}
 80006dc:	f441 1180 	orr.w	r1, r1, #1048576	; 0x100000
 80006e0:	f04f 0e00 	mov.w	lr, #0
 80006e4:	3c01      	subs	r4, #1
 80006e6:	f300 80ab 	bgt.w	8000840 <__aeabi_dmul+0x238>
 80006ea:	f114 0f36 	cmn.w	r4, #54	; 0x36
 80006ee:	bfde      	ittt	le
 80006f0:	2000      	movle	r0, #0
 80006f2:	f001 4100 	andle.w	r1, r1, #2147483648	; 0x80000000
 80006f6:	bd70      	pople	{r4, r5, r6, pc}
 80006f8:	f1c4 0400 	rsb	r4, r4, #0
 80006fc:	3c20      	subs	r4, #32
 80006fe:	da35      	bge.n	800076c <__aeabi_dmul+0x164>
 8000700:	340c      	adds	r4, #12
 8000702:	dc1b      	bgt.n	800073c <__aeabi_dmul+0x134>
 8000704:	f104 0414 	add.w	r4, r4, #20
 8000708:	f1c4 0520 	rsb	r5, r4, #32
 800070c:	fa00 f305 	lsl.w	r3, r0, r5
 8000710:	fa20 f004 	lsr.w	r0, r0, r4
 8000714:	fa01 f205 	lsl.w	r2, r1, r5
 8000718:	ea40 0002 	orr.w	r0, r0, r2
 800071c:	f001 4200 	and.w	r2, r1, #2147483648	; 0x80000000
 8000720:	f021 4100 	bic.w	r1, r1, #2147483648	; 0x80000000
 8000724:	eb10 70d3 	adds.w	r0, r0, r3, lsr #31
 8000728:	fa21 f604 	lsr.w	r6, r1, r4
 800072c:	eb42 0106 	adc.w	r1, r2, r6
 8000730:	ea5e 0e43 	orrs.w	lr, lr, r3, lsl #1
 8000734:	bf08      	it	eq
 8000736:	ea20 70d3 	biceq.w	r0, r0, r3, lsr #31
 800073a:	bd70      	pop	{r4, r5, r6, pc}
 800073c:	f1c4 040c 	rsb	r4, r4, #12
 8000740:	f1c4 0520 	rsb	r5, r4, #32
 8000744:	fa00 f304 	lsl.w	r3, r0, r4
 8000748:	fa20 f005 	lsr.w	r0, r0, r5
 800074c:	fa01 f204 	lsl.w	r2, r1, r4
 8000750:	ea40 0002 	orr.w	r0, r0, r2
 8000754:	f001 4100 	and.w	r1, r1, #2147483648	; 0x80000000
 8000758:	eb10 70d3 	adds.w	r0, r0, r3, lsr #31
 800075c:	f141 0100 	adc.w	r1, r1, #0
 8000760:	ea5e 0e43 	orrs.w	lr, lr, r3, lsl #1
 8000764:	bf08      	it	eq
 8000766:	ea20 70d3 	biceq.w	r0, r0, r3, lsr #31
 800076a:	bd70      	pop	{r4, r5, r6, pc}
 800076c:	f1c4 0520 	rsb	r5, r4, #32
 8000770:	fa00 f205 	lsl.w	r2, r0, r5
 8000774:	ea4e 0e02 	orr.w	lr, lr, r2
 8000778:	fa20 f304 	lsr.w	r3, r0, r4
 800077c:	fa01 f205 	lsl.w	r2, r1, r5
 8000780:	ea43 0302 	orr.w	r3, r3, r2
 8000784:	fa21 f004 	lsr.w	r0, r1, r4
 8000788:	f001 4100 	and.w	r1, r1, #2147483648	; 0x80000000
 800078c:	fa21 f204 	lsr.w	r2, r1, r4
 8000790:	ea20 0002 	bic.w	r0, r0, r2
 8000794:	eb00 70d3 	add.w	r0, r0, r3, lsr #31
 8000798:	ea5e 0e43 	orrs.w	lr, lr, r3, lsl #1
 800079c:	bf08      	it	eq
 800079e:	ea20 70d3 	biceq.w	r0, r0, r3, lsr #31
 80007a2:	bd70      	pop	{r4, r5, r6, pc}
 80007a4:	f094 0f00 	teq	r4, #0
 80007a8:	d10f      	bne.n	80007ca <__aeabi_dmul+0x1c2>
 80007aa:	f001 4600 	and.w	r6, r1, #2147483648	; 0x80000000
 80007ae:	0040      	lsls	r0, r0, #1
 80007b0:	eb41 0101 	adc.w	r1, r1, r1
 80007b4:	f411 1f80 	tst.w	r1, #1048576	; 0x100000
 80007b8:	bf08      	it	eq
 80007ba:	3c01      	subeq	r4, #1
 80007bc:	d0f7      	beq.n	80007ae <__aeabi_dmul+0x1a6>
 80007be:	ea41 0106 	orr.w	r1, r1, r6
 80007c2:	f095 0f00 	teq	r5, #0
 80007c6:	bf18      	it	ne
 80007c8:	4770      	bxne	lr
 80007ca:	f003 4600 	and.w	r6, r3, #2147483648	; 0x80000000
 80007ce:	0052      	lsls	r2, r2, #1
 80007d0:	eb43 0303 	adc.w	r3, r3, r3
 80007d4:	f413 1f80 	tst.w	r3, #1048576	; 0x100000
 80007d8:	bf08      	it	eq
 80007da:	3d01      	subeq	r5, #1
 80007dc:	d0f7      	beq.n	80007ce <__aeabi_dmul+0x1c6>
 80007de:	ea43 0306 	orr.w	r3, r3, r6
 80007e2:	4770      	bx	lr
 80007e4:	ea94 0f0c 	teq	r4, ip
 80007e8:	ea0c 5513 	and.w	r5, ip, r3, lsr #20
 80007ec:	bf18      	it	ne
 80007ee:	ea95 0f0c 	teqne	r5, ip
 80007f2:	d00c      	beq.n	800080e <__aeabi_dmul+0x206>
 80007f4:	ea50 0641 	orrs.w	r6, r0, r1, lsl #1
 80007f8:	bf18      	it	ne
 80007fa:	ea52 0643 	orrsne.w	r6, r2, r3, lsl #1
 80007fe:	d1d1      	bne.n	80007a4 <__aeabi_dmul+0x19c>
 8000800:	ea81 0103 	eor.w	r1, r1, r3
 8000804:	f001 4100 	and.w	r1, r1, #2147483648	; 0x80000000
 8000808:	f04f 0000 	mov.w	r0, #0
 800080c:	bd70      	pop	{r4, r5, r6, pc}
 800080e:	ea50 0641 	orrs.w	r6, r0, r1, lsl #1
 8000812:	bf06      	itte	eq
 8000814:	4610      	moveq	r0, r2
 8000816:	4619      	moveq	r1, r3
 8000818:	ea52 0643 	orrsne.w	r6, r2, r3, lsl #1
 800081c:	d019      	beq.n	8000852 <__aeabi_dmul+0x24a>
 800081e:	ea94 0f0c 	teq	r4, ip
 8000822:	d102      	bne.n	800082a <__aeabi_dmul+0x222>
 8000824:	ea50 3601 	orrs.w	r6, r0, r1, lsl #12
 8000828:	d113      	bne.n	8000852 <__aeabi_dmul+0x24a>
 800082a:	ea95 0f0c 	teq	r5, ip
 800082e:	d105      	bne.n	800083c <__aeabi_dmul+0x234>
 8000830:	ea52 3603 	orrs.w	r6, r2, r3, lsl #12
 8000834:	bf1c      	itt	ne
 8000836:	4610      	movne	r0, r2
 8000838:	4619      	movne	r1, r3
 800083a:	d10a      	bne.n	8000852 <__aeabi_dmul+0x24a>
 800083c:	ea81 0103 	eor.w	r1, r1, r3
 8000840:	f001 4100 	and.w	r1, r1, #2147483648	; 0x80000000
 8000844:	f041 41fe 	orr.w	r1, r1, #2130706432	; 0x7f000000
 8000848:	f441 0170 	orr.w	r1, r1, #15728640	; 0xf00000
 800084c:	f04f 0000 	mov.w	r0, #0
 8000850:	bd70      	pop	{r4, r5, r6, pc}
 8000852:	f041 41fe 	orr.w	r1, r1, #2130706432	; 0x7f000000
 8000856:	f441 0178 	orr.w	r1, r1, #16252928	; 0xf80000
 800085a:	bd70      	pop	{r4, r5, r6, pc}

0800085c <__aeabi_ddiv>:
 800085c:	b570      	push	{r4, r5, r6, lr}
 800085e:	f04f 0cff 	mov.w	ip, #255	; 0xff
 8000862:	f44c 6ce0 	orr.w	ip, ip, #1792	; 0x700
 8000866:	ea1c 5411 	ands.w	r4, ip, r1, lsr #20
 800086a:	bf1d      	ittte	ne
 800086c:	ea1c 5513 	andsne.w	r5, ip, r3, lsr #20
 8000870:	ea94 0f0c 	teqne	r4, ip
 8000874:	ea95 0f0c 	teqne	r5, ip
 8000878:	f000 f8a7 	bleq	80009ca <__aeabi_ddiv+0x16e>
 800087c:	eba4 0405 	sub.w	r4, r4, r5
 8000880:	ea81 0e03 	eor.w	lr, r1, r3
 8000884:	ea52 3503 	orrs.w	r5, r2, r3, lsl #12
 8000888:	ea4f 3101 	mov.w	r1, r1, lsl #12
 800088c:	f000 8088 	beq.w	80009a0 <__aeabi_ddiv+0x144>
 8000890:	ea4f 3303 	mov.w	r3, r3, lsl #12
 8000894:	f04f 5580 	mov.w	r5, #268435456	; 0x10000000
 8000898:	ea45 1313 	orr.w	r3, r5, r3, lsr #4
 800089c:	ea43 6312 	orr.w	r3, r3, r2, lsr #24
 80008a0:	ea4f 2202 	mov.w	r2, r2, lsl #8
 80008a4:	ea45 1511 	orr.w	r5, r5, r1, lsr #4
 80008a8:	ea45 6510 	orr.w	r5, r5, r0, lsr #24
 80008ac:	ea4f 2600 	mov.w	r6, r0, lsl #8
 80008b0:	f00e 4100 	and.w	r1, lr, #2147483648	; 0x80000000
 80008b4:	429d      	cmp	r5, r3
 80008b6:	bf08      	it	eq
 80008b8:	4296      	cmpeq	r6, r2
 80008ba:	f144 04fd 	adc.w	r4, r4, #253	; 0xfd
 80008be:	f504 7440 	add.w	r4, r4, #768	; 0x300
 80008c2:	d202      	bcs.n	80008ca <__aeabi_ddiv+0x6e>
 80008c4:	085b      	lsrs	r3, r3, #1
 80008c6:	ea4f 0232 	mov.w	r2, r2, rrx
 80008ca:	1ab6      	subs	r6, r6, r2
 80008cc:	eb65 0503 	sbc.w	r5, r5, r3
 80008d0:	085b      	lsrs	r3, r3, #1
 80008d2:	ea4f 0232 	mov.w	r2, r2, rrx
 80008d6:	f44f 1080 	mov.w	r0, #1048576	; 0x100000
 80008da:	f44f 2c00 	mov.w	ip, #524288	; 0x80000
 80008de:	ebb6 0e02 	subs.w	lr, r6, r2
 80008e2:	eb75 0e03 	sbcs.w	lr, r5, r3
 80008e6:	bf22      	ittt	cs
 80008e8:	1ab6      	subcs	r6, r6, r2
 80008ea:	4675      	movcs	r5, lr
 80008ec:	ea40 000c 	orrcs.w	r0, r0, ip
 80008f0:	085b      	lsrs	r3, r3, #1
 80008f2:	ea4f 0232 	mov.w	r2, r2, rrx
 80008f6:	ebb6 0e02 	subs.w	lr, r6, r2
 80008fa:	eb75 0e03 	sbcs.w	lr, r5, r3
 80008fe:	bf22      	ittt	cs
 8000900:	1ab6      	subcs	r6, r6, r2
 8000902:	4675      	movcs	r5, lr
 8000904:	ea40 005c 	orrcs.w	r0, r0, ip, lsr #1
 8000908:	085b      	lsrs	r3, r3, #1
 800090a:	ea4f 0232 	mov.w	r2, r2, rrx
 800090e:	ebb6 0e02 	subs.w	lr, r6, r2
 8000912:	eb75 0e03 	sbcs.w	lr, r5, r3
 8000916:	bf22      	ittt	cs
 8000918:	1ab6      	subcs	r6, r6, r2
 800091a:	4675      	movcs	r5, lr
 800091c:	ea40 009c 	orrcs.w	r0, r0, ip, lsr #2
 8000920:	085b      	lsrs	r3, r3, #1
 8000922:	ea4f 0232 	mov.w	r2, r2, rrx
 8000926:	ebb6 0e02 	subs.w	lr, r6, r2
 800092a:	eb75 0e03 	sbcs.w	lr, r5, r3
 800092e:	bf22      	ittt	cs
 8000930:	1ab6      	subcs	r6, r6, r2
 8000932:	4675      	movcs	r5, lr
 8000934:	ea40 00dc 	orrcs.w	r0, r0, ip, lsr #3
 8000938:	ea55 0e06 	orrs.w	lr, r5, r6
 800093c:	d018      	beq.n	8000970 <__aeabi_ddiv+0x114>
 800093e:	ea4f 1505 	mov.w	r5, r5, lsl #4
 8000942:	ea45 7516 	orr.w	r5, r5, r6, lsr #28
 8000946:	ea4f 1606 	mov.w	r6, r6, lsl #4
 800094a:	ea4f 03c3 	mov.w	r3, r3, lsl #3
 800094e:	ea43 7352 	orr.w	r3, r3, r2, lsr #29
 8000952:	ea4f 02c2 	mov.w	r2, r2, lsl #3
 8000956:	ea5f 1c1c 	movs.w	ip, ip, lsr #4
 800095a:	d1c0      	bne.n	80008de <__aeabi_ddiv+0x82>
 800095c:	f411 1f80 	tst.w	r1, #1048576	; 0x100000
 8000960:	d10b      	bne.n	800097a <__aeabi_ddiv+0x11e>
 8000962:	ea41 0100 	orr.w	r1, r1, r0
 8000966:	f04f 0000 	mov.w	r0, #0
 800096a:	f04f 4c00 	mov.w	ip, #2147483648	; 0x80000000
 800096e:	e7b6      	b.n	80008de <__aeabi_ddiv+0x82>
 8000970:	f411 1f80 	tst.w	r1, #1048576	; 0x100000
 8000974:	bf04      	itt	eq
 8000976:	4301      	orreq	r1, r0
 8000978:	2000      	moveq	r0, #0
 800097a:	f1b4 0cfd 	subs.w	ip, r4, #253	; 0xfd
 800097e:	bf88      	it	hi
 8000980:	f5bc 6fe0 	cmphi.w	ip, #1792	; 0x700
 8000984:	f63f aeaf 	bhi.w	80006e6 <__aeabi_dmul+0xde>
 8000988:	ebb5 0c03 	subs.w	ip, r5, r3
 800098c:	bf04      	itt	eq
 800098e:	ebb6 0c02 	subseq.w	ip, r6, r2
 8000992:	ea5f 0c50 	movseq.w	ip, r0, lsr #1
 8000996:	f150 0000 	adcs.w	r0, r0, #0
 800099a:	eb41 5104 	adc.w	r1, r1, r4, lsl #20
 800099e:	bd70      	pop	{r4, r5, r6, pc}
 80009a0:	f00e 4e00 	and.w	lr, lr, #2147483648	; 0x80000000
 80009a4:	ea4e 3111 	orr.w	r1, lr, r1, lsr #12
 80009a8:	eb14 045c 	adds.w	r4, r4, ip, lsr #1
 80009ac:	bfc2      	ittt	gt
 80009ae:	ebd4 050c 	rsbsgt	r5, r4, ip
 80009b2:	ea41 5104 	orrgt.w	r1, r1, r4, lsl #20
 80009b6:	bd70      	popgt	{r4, r5, r6, pc}
 80009b8:	f441 1180 	orr.w	r1, r1, #1048576	; 0x100000
 80009bc:	f04f 0e00 	mov.w	lr, #0
 80009c0:	3c01      	subs	r4, #1
 80009c2:	e690      	b.n	80006e6 <__aeabi_dmul+0xde>
 80009c4:	ea45 0e06 	orr.w	lr, r5, r6
 80009c8:	e68d      	b.n	80006e6 <__aeabi_dmul+0xde>
 80009ca:	ea0c 5513 	and.w	r5, ip, r3, lsr #20
 80009ce:	ea94 0f0c 	teq	r4, ip
 80009d2:	bf08      	it	eq
 80009d4:	ea95 0f0c 	teqeq	r5, ip
 80009d8:	f43f af3b 	beq.w	8000852 <__aeabi_dmul+0x24a>
 80009dc:	ea94 0f0c 	teq	r4, ip
 80009e0:	d10a      	bne.n	80009f8 <__aeabi_ddiv+0x19c>
 80009e2:	ea50 3401 	orrs.w	r4, r0, r1, lsl #12
 80009e6:	f47f af34 	bne.w	8000852 <__aeabi_dmul+0x24a>
 80009ea:	ea95 0f0c 	teq	r5, ip
 80009ee:	f47f af25 	bne.w	800083c <__aeabi_dmul+0x234>
 80009f2:	4610      	mov	r0, r2
 80009f4:	4619      	mov	r1, r3
 80009f6:	e72c      	b.n	8000852 <__aeabi_dmul+0x24a>
 80009f8:	ea95 0f0c 	teq	r5, ip
 80009fc:	d106      	bne.n	8000a0c <__aeabi_ddiv+0x1b0>
 80009fe:	ea52 3503 	orrs.w	r5, r2, r3, lsl #12
 8000a02:	f43f aefd 	beq.w	8000800 <__aeabi_dmul+0x1f8>
 8000a06:	4610      	mov	r0, r2
 8000a08:	4619      	mov	r1, r3
 8000a0a:	e722      	b.n	8000852 <__aeabi_dmul+0x24a>
 8000a0c:	ea50 0641 	orrs.w	r6, r0, r1, lsl #1
 8000a10:	bf18      	it	ne
 8000a12:	ea52 0643 	orrsne.w	r6, r2, r3, lsl #1
 8000a16:	f47f aec5 	bne.w	80007a4 <__aeabi_dmul+0x19c>
 8000a1a:	ea50 0441 	orrs.w	r4, r0, r1, lsl #1
 8000a1e:	f47f af0d 	bne.w	800083c <__aeabi_dmul+0x234>
 8000a22:	ea52 0543 	orrs.w	r5, r2, r3, lsl #1
 8000a26:	f47f aeeb 	bne.w	8000800 <__aeabi_dmul+0x1f8>
 8000a2a:	e712      	b.n	8000852 <__aeabi_dmul+0x24a>

08000a2c <__gedf2>:
 8000a2c:	f04f 3cff 	mov.w	ip, #4294967295
 8000a30:	e006      	b.n	8000a40 <__cmpdf2+0x4>
 8000a32:	bf00      	nop

08000a34 <__ledf2>:
 8000a34:	f04f 0c01 	mov.w	ip, #1
 8000a38:	e002      	b.n	8000a40 <__cmpdf2+0x4>
 8000a3a:	bf00      	nop

08000a3c <__cmpdf2>:
 8000a3c:	f04f 0c01 	mov.w	ip, #1
 8000a40:	f84d cd04 	str.w	ip, [sp, #-4]!
 8000a44:	ea4f 0c41 	mov.w	ip, r1, lsl #1
 8000a48:	ea7f 5c6c 	mvns.w	ip, ip, asr #21
 8000a4c:	ea4f 0c43 	mov.w	ip, r3, lsl #1
 8000a50:	bf18      	it	ne
 8000a52:	ea7f 5c6c 	mvnsne.w	ip, ip, asr #21
 8000a56:	d01b      	beq.n	8000a90 <__cmpdf2+0x54>
 8000a58:	b001      	add	sp, #4
 8000a5a:	ea50 0c41 	orrs.w	ip, r0, r1, lsl #1
 8000a5e:	bf0c      	ite	eq
 8000a60:	ea52 0c43 	orrseq.w	ip, r2, r3, lsl #1
 8000a64:	ea91 0f03 	teqne	r1, r3
 8000a68:	bf02      	ittt	eq
 8000a6a:	ea90 0f02 	teqeq	r0, r2
 8000a6e:	2000      	moveq	r0, #0
 8000a70:	4770      	bxeq	lr
 8000a72:	f110 0f00 	cmn.w	r0, #0
 8000a76:	ea91 0f03 	teq	r1, r3
 8000a7a:	bf58      	it	pl
 8000a7c:	4299      	cmppl	r1, r3
 8000a7e:	bf08      	it	eq
 8000a80:	4290      	cmpeq	r0, r2
 8000a82:	bf2c      	ite	cs
 8000a84:	17d8      	asrcs	r0, r3, #31
 8000a86:	ea6f 70e3 	mvncc.w	r0, r3, asr #31
 8000a8a:	f040 0001 	orr.w	r0, r0, #1
 8000a8e:	4770      	bx	lr
 8000a90:	ea4f 0c41 	mov.w	ip, r1, lsl #1
 8000a94:	ea7f 5c6c 	mvns.w	ip, ip, asr #21
 8000a98:	d102      	bne.n	8000aa0 <__cmpdf2+0x64>
 8000a9a:	ea50 3c01 	orrs.w	ip, r0, r1, lsl #12
 8000a9e:	d107      	bne.n	8000ab0 <__cmpdf2+0x74>
 8000aa0:	ea4f 0c43 	mov.w	ip, r3, lsl #1
 8000aa4:	ea7f 5c6c 	mvns.w	ip, ip, asr #21
 8000aa8:	d1d6      	bne.n	8000a58 <__cmpdf2+0x1c>
 8000aaa:	ea52 3c03 	orrs.w	ip, r2, r3, lsl #12
 8000aae:	d0d3      	beq.n	8000a58 <__cmpdf2+0x1c>
 8000ab0:	f85d 0b04 	ldr.w	r0, [sp], #4
 8000ab4:	4770      	bx	lr
 8000ab6:	bf00      	nop

08000ab8 <__aeabi_cdrcmple>:
 8000ab8:	4684      	mov	ip, r0
 8000aba:	4610      	mov	r0, r2
 8000abc:	4662      	mov	r2, ip
 8000abe:	468c      	mov	ip, r1
 8000ac0:	4619      	mov	r1, r3
 8000ac2:	4663      	mov	r3, ip
 8000ac4:	e000      	b.n	8000ac8 <__aeabi_cdcmpeq>
 8000ac6:	bf00      	nop

08000ac8 <__aeabi_cdcmpeq>:
 8000ac8:	b501      	push	{r0, lr}
 8000aca:	f7ff ffb7 	bl	8000a3c <__cmpdf2>
 8000ace:	2800      	cmp	r0, #0
 8000ad0:	bf48      	it	mi
 8000ad2:	f110 0f00 	cmnmi.w	r0, #0
 8000ad6:	bd01      	pop	{r0, pc}

08000ad8 <__aeabi_dcmpeq>:
 8000ad8:	f84d ed08 	str.w	lr, [sp, #-8]!
 8000adc:	f7ff fff4 	bl	8000ac8 <__aeabi_cdcmpeq>
 8000ae0:	bf0c      	ite	eq
 8000ae2:	2001      	moveq	r0, #1
 8000ae4:	2000      	movne	r0, #0
 8000ae6:	f85d fb08 	ldr.w	pc, [sp], #8
 8000aea:	bf00      	nop

08000aec <__aeabi_dcmplt>:
 8000aec:	f84d ed08 	str.w	lr, [sp, #-8]!
 8000af0:	f7ff ffea 	bl	8000ac8 <__aeabi_cdcmpeq>
 8000af4:	bf34      	ite	cc
 8000af6:	2001      	movcc	r0, #1
 8000af8:	2000      	movcs	r0, #0
 8000afa:	f85d fb08 	ldr.w	pc, [sp], #8
 8000afe:	bf00      	nop

08000b00 <__aeabi_dcmple>:
 8000b00:	f84d ed08 	str.w	lr, [sp, #-8]!
 8000b04:	f7ff ffe0 	bl	8000ac8 <__aeabi_cdcmpeq>
 8000b08:	bf94      	ite	ls
 8000b0a:	2001      	movls	r0, #1
 8000b0c:	2000      	movhi	r0, #0
 8000b0e:	f85d fb08 	ldr.w	pc, [sp], #8
 8000b12:	bf00      	nop

08000b14 <__aeabi_dcmpge>:
 8000b14:	f84d ed08 	str.w	lr, [sp, #-8]!
 8000b18:	f7ff ffce 	bl	8000ab8 <__aeabi_cdrcmple>
 8000b1c:	bf94      	ite	ls
 8000b1e:	2001      	movls	r0, #1
 8000b20:	2000      	movhi	r0, #0
 8000b22:	f85d fb08 	ldr.w	pc, [sp], #8
 8000b26:	bf00      	nop

08000b28 <__aeabi_dcmpgt>:
 8000b28:	f84d ed08 	str.w	lr, [sp, #-8]!
 8000b2c:	f7ff ffc4 	bl	8000ab8 <__aeabi_cdrcmple>
 8000b30:	bf34      	ite	cc
 8000b32:	2001      	movcc	r0, #1
 8000b34:	2000      	movcs	r0, #0
 8000b36:	f85d fb08 	ldr.w	pc, [sp], #8
 8000b3a:	bf00      	nop

08000b3c <__aeabi_dcmpun>:
 8000b3c:	ea4f 0c41 	mov.w	ip, r1, lsl #1
 8000b40:	ea7f 5c6c 	mvns.w	ip, ip, asr #21
 8000b44:	d102      	bne.n	8000b4c <__aeabi_dcmpun+0x10>
 8000b46:	ea50 3c01 	orrs.w	ip, r0, r1, lsl #12
 8000b4a:	d10a      	bne.n	8000b62 <__aeabi_dcmpun+0x26>
 8000b4c:	ea4f 0c43 	mov.w	ip, r3, lsl #1
 8000b50:	ea7f 5c6c 	mvns.w	ip, ip, asr #21
 8000b54:	d102      	bne.n	8000b5c <__aeabi_dcmpun+0x20>
 8000b56:	ea52 3c03 	orrs.w	ip, r2, r3, lsl #12
 8000b5a:	d102      	bne.n	8000b62 <__aeabi_dcmpun+0x26>
 8000b5c:	f04f 0000 	mov.w	r0, #0
 8000b60:	4770      	bx	lr
 8000b62:	f04f 0001 	mov.w	r0, #1
 8000b66:	4770      	bx	lr

08000b68 <__aeabi_d2iz>:
 8000b68:	ea4f 0241 	mov.w	r2, r1, lsl #1
 8000b6c:	f512 1200 	adds.w	r2, r2, #2097152	; 0x200000
 8000b70:	d215      	bcs.n	8000b9e <__aeabi_d2iz+0x36>
 8000b72:	d511      	bpl.n	8000b98 <__aeabi_d2iz+0x30>
 8000b74:	f46f 7378 	mvn.w	r3, #992	; 0x3e0
 8000b78:	ebb3 5262 	subs.w	r2, r3, r2, asr #21
 8000b7c:	d912      	bls.n	8000ba4 <__aeabi_d2iz+0x3c>
 8000b7e:	ea4f 23c1 	mov.w	r3, r1, lsl #11
 8000b82:	f043 4300 	orr.w	r3, r3, #2147483648	; 0x80000000
 8000b86:	ea43 5350 	orr.w	r3, r3, r0, lsr #21
 8000b8a:	f011 4f00 	tst.w	r1, #2147483648	; 0x80000000
 8000b8e:	fa23 f002 	lsr.w	r0, r3, r2
 8000b92:	bf18      	it	ne
 8000b94:	4240      	negne	r0, r0
 8000b96:	4770      	bx	lr
 8000b98:	f04f 0000 	mov.w	r0, #0
 8000b9c:	4770      	bx	lr
 8000b9e:	ea50 3001 	orrs.w	r0, r0, r1, lsl #12
 8000ba2:	d105      	bne.n	8000bb0 <__aeabi_d2iz+0x48>
 8000ba4:	f011 4000 	ands.w	r0, r1, #2147483648	; 0x80000000
 8000ba8:	bf08      	it	eq
 8000baa:	f06f 4000 	mvneq.w	r0, #2147483648	; 0x80000000
 8000bae:	4770      	bx	lr
 8000bb0:	f04f 0000 	mov.w	r0, #0
 8000bb4:	4770      	bx	lr
 8000bb6:	bf00      	nop

08000bb8 <__aeabi_uldivmod>:
 8000bb8:	b953      	cbnz	r3, 8000bd0 <__aeabi_uldivmod+0x18>
 8000bba:	b94a      	cbnz	r2, 8000bd0 <__aeabi_uldivmod+0x18>
 8000bbc:	2900      	cmp	r1, #0
 8000bbe:	bf08      	it	eq
 8000bc0:	2800      	cmpeq	r0, #0
 8000bc2:	bf1c      	itt	ne
 8000bc4:	f04f 31ff 	movne.w	r1, #4294967295
 8000bc8:	f04f 30ff 	movne.w	r0, #4294967295
 8000bcc:	f000 b974 	b.w	8000eb8 <__aeabi_idiv0>
 8000bd0:	f1ad 0c08 	sub.w	ip, sp, #8
 8000bd4:	e96d ce04 	strd	ip, lr, [sp, #-16]!
 8000bd8:	f000 f806 	bl	8000be8 <__udivmoddi4>
 8000bdc:	f8dd e004 	ldr.w	lr, [sp, #4]
 8000be0:	e9dd 2302 	ldrd	r2, r3, [sp, #8]
 8000be4:	b004      	add	sp, #16
 8000be6:	4770      	bx	lr

08000be8 <__udivmoddi4>:
 8000be8:	e92d 47f0 	stmdb	sp!, {r4, r5, r6, r7, r8, r9, sl, lr}
 8000bec:	9d08      	ldr	r5, [sp, #32]
 8000bee:	4604      	mov	r4, r0
 8000bf0:	468e      	mov	lr, r1
 8000bf2:	2b00      	cmp	r3, #0
 8000bf4:	d14d      	bne.n	8000c92 <__udivmoddi4+0xaa>
 8000bf6:	428a      	cmp	r2, r1
 8000bf8:	4694      	mov	ip, r2
 8000bfa:	d969      	bls.n	8000cd0 <__udivmoddi4+0xe8>
 8000bfc:	fab2 f282 	clz	r2, r2
 8000c00:	b152      	cbz	r2, 8000c18 <__udivmoddi4+0x30>
 8000c02:	fa01 f302 	lsl.w	r3, r1, r2
 8000c06:	f1c2 0120 	rsb	r1, r2, #32
 8000c0a:	fa20 f101 	lsr.w	r1, r0, r1
 8000c0e:	fa0c fc02 	lsl.w	ip, ip, r2
 8000c12:	ea41 0e03 	orr.w	lr, r1, r3
 8000c16:	4094      	lsls	r4, r2
 8000c18:	ea4f 481c 	mov.w	r8, ip, lsr #16
 8000c1c:	0c21      	lsrs	r1, r4, #16
 8000c1e:	fbbe f6f8 	udiv	r6, lr, r8
 8000c22:	fa1f f78c 	uxth.w	r7, ip
 8000c26:	fb08 e316 	mls	r3, r8, r6, lr
 8000c2a:	ea41 4303 	orr.w	r3, r1, r3, lsl #16
 8000c2e:	fb06 f107 	mul.w	r1, r6, r7
 8000c32:	4299      	cmp	r1, r3
 8000c34:	d90a      	bls.n	8000c4c <__udivmoddi4+0x64>
 8000c36:	eb1c 0303 	adds.w	r3, ip, r3
 8000c3a:	f106 30ff 	add.w	r0, r6, #4294967295
 8000c3e:	f080 811f 	bcs.w	8000e80 <__udivmoddi4+0x298>
 8000c42:	4299      	cmp	r1, r3
 8000c44:	f240 811c 	bls.w	8000e80 <__udivmoddi4+0x298>
 8000c48:	3e02      	subs	r6, #2
 8000c4a:	4463      	add	r3, ip
 8000c4c:	1a5b      	subs	r3, r3, r1
 8000c4e:	b2a4      	uxth	r4, r4
 8000c50:	fbb3 f0f8 	udiv	r0, r3, r8
 8000c54:	fb08 3310 	mls	r3, r8, r0, r3
 8000c58:	ea44 4403 	orr.w	r4, r4, r3, lsl #16
 8000c5c:	fb00 f707 	mul.w	r7, r0, r7
 8000c60:	42a7      	cmp	r7, r4
 8000c62:	d90a      	bls.n	8000c7a <__udivmoddi4+0x92>
 8000c64:	eb1c 0404 	adds.w	r4, ip, r4
 8000c68:	f100 33ff 	add.w	r3, r0, #4294967295
 8000c6c:	f080 810a 	bcs.w	8000e84 <__udivmoddi4+0x29c>
 8000c70:	42a7      	cmp	r7, r4
 8000c72:	f240 8107 	bls.w	8000e84 <__udivmoddi4+0x29c>
 8000c76:	4464      	add	r4, ip
 8000c78:	3802      	subs	r0, #2
 8000c7a:	ea40 4006 	orr.w	r0, r0, r6, lsl #16
 8000c7e:	1be4      	subs	r4, r4, r7
 8000c80:	2600      	movs	r6, #0
 8000c82:	b11d      	cbz	r5, 8000c8c <__udivmoddi4+0xa4>
 8000c84:	40d4      	lsrs	r4, r2
 8000c86:	2300      	movs	r3, #0
 8000c88:	e9c5 4300 	strd	r4, r3, [r5]
 8000c8c:	4631      	mov	r1, r6
 8000c8e:	e8bd 87f0 	ldmia.w	sp!, {r4, r5, r6, r7, r8, r9, sl, pc}
 8000c92:	428b      	cmp	r3, r1
 8000c94:	d909      	bls.n	8000caa <__udivmoddi4+0xc2>
 8000c96:	2d00      	cmp	r5, #0
 8000c98:	f000 80ef 	beq.w	8000e7a <__udivmoddi4+0x292>
 8000c9c:	2600      	movs	r6, #0
 8000c9e:	e9c5 0100 	strd	r0, r1, [r5]
 8000ca2:	4630      	mov	r0, r6
 8000ca4:	4631      	mov	r1, r6
 8000ca6:	e8bd 87f0 	ldmia.w	sp!, {r4, r5, r6, r7, r8, r9, sl, pc}
 8000caa:	fab3 f683 	clz	r6, r3
 8000cae:	2e00      	cmp	r6, #0
 8000cb0:	d14a      	bne.n	8000d48 <__udivmoddi4+0x160>
 8000cb2:	428b      	cmp	r3, r1
 8000cb4:	d302      	bcc.n	8000cbc <__udivmoddi4+0xd4>
 8000cb6:	4282      	cmp	r2, r0
 8000cb8:	f200 80f9 	bhi.w	8000eae <__udivmoddi4+0x2c6>
 8000cbc:	1a84      	subs	r4, r0, r2
 8000cbe:	eb61 0303 	sbc.w	r3, r1, r3
 8000cc2:	2001      	movs	r0, #1
 8000cc4:	469e      	mov	lr, r3
 8000cc6:	2d00      	cmp	r5, #0
 8000cc8:	d0e0      	beq.n	8000c8c <__udivmoddi4+0xa4>
 8000cca:	e9c5 4e00 	strd	r4, lr, [r5]
 8000cce:	e7dd      	b.n	8000c8c <__udivmoddi4+0xa4>
 8000cd0:	b902      	cbnz	r2, 8000cd4 <__udivmoddi4+0xec>
 8000cd2:	deff      	udf	#255	; 0xff
 8000cd4:	fab2 f282 	clz	r2, r2
 8000cd8:	2a00      	cmp	r2, #0
 8000cda:	f040 8092 	bne.w	8000e02 <__udivmoddi4+0x21a>
 8000cde:	eba1 010c 	sub.w	r1, r1, ip
 8000ce2:	ea4f 471c 	mov.w	r7, ip, lsr #16
 8000ce6:	fa1f fe8c 	uxth.w	lr, ip
 8000cea:	2601      	movs	r6, #1
 8000cec:	0c20      	lsrs	r0, r4, #16
 8000cee:	fbb1 f3f7 	udiv	r3, r1, r7
 8000cf2:	fb07 1113 	mls	r1, r7, r3, r1
 8000cf6:	ea40 4101 	orr.w	r1, r0, r1, lsl #16
 8000cfa:	fb0e f003 	mul.w	r0, lr, r3
 8000cfe:	4288      	cmp	r0, r1
 8000d00:	d908      	bls.n	8000d14 <__udivmoddi4+0x12c>
 8000d02:	eb1c 0101 	adds.w	r1, ip, r1
 8000d06:	f103 38ff 	add.w	r8, r3, #4294967295
 8000d0a:	d202      	bcs.n	8000d12 <__udivmoddi4+0x12a>
 8000d0c:	4288      	cmp	r0, r1
 8000d0e:	f200 80cb 	bhi.w	8000ea8 <__udivmoddi4+0x2c0>
 8000d12:	4643      	mov	r3, r8
 8000d14:	1a09      	subs	r1, r1, r0
 8000d16:	b2a4      	uxth	r4, r4
 8000d18:	fbb1 f0f7 	udiv	r0, r1, r7
 8000d1c:	fb07 1110 	mls	r1, r7, r0, r1
 8000d20:	ea44 4401 	orr.w	r4, r4, r1, lsl #16
 8000d24:	fb0e fe00 	mul.w	lr, lr, r0
 8000d28:	45a6      	cmp	lr, r4
 8000d2a:	d908      	bls.n	8000d3e <__udivmoddi4+0x156>
 8000d2c:	eb1c 0404 	adds.w	r4, ip, r4
 8000d30:	f100 31ff 	add.w	r1, r0, #4294967295
 8000d34:	d202      	bcs.n	8000d3c <__udivmoddi4+0x154>
 8000d36:	45a6      	cmp	lr, r4
 8000d38:	f200 80bb 	bhi.w	8000eb2 <__udivmoddi4+0x2ca>
 8000d3c:	4608      	mov	r0, r1
 8000d3e:	eba4 040e 	sub.w	r4, r4, lr
 8000d42:	ea40 4003 	orr.w	r0, r0, r3, lsl #16
 8000d46:	e79c      	b.n	8000c82 <__udivmoddi4+0x9a>
 8000d48:	f1c6 0720 	rsb	r7, r6, #32
 8000d4c:	40b3      	lsls	r3, r6
 8000d4e:	fa22 fc07 	lsr.w	ip, r2, r7
 8000d52:	ea4c 0c03 	orr.w	ip, ip, r3
 8000d56:	fa20 f407 	lsr.w	r4, r0, r7
 8000d5a:	fa01 f306 	lsl.w	r3, r1, r6
 8000d5e:	431c      	orrs	r4, r3
 8000d60:	40f9      	lsrs	r1, r7
 8000d62:	ea4f 491c 	mov.w	r9, ip, lsr #16
 8000d66:	fa00 f306 	lsl.w	r3, r0, r6
 8000d6a:	fbb1 f8f9 	udiv	r8, r1, r9
 8000d6e:	0c20      	lsrs	r0, r4, #16
 8000d70:	fa1f fe8c 	uxth.w	lr, ip
 8000d74:	fb09 1118 	mls	r1, r9, r8, r1
 8000d78:	ea40 4101 	orr.w	r1, r0, r1, lsl #16
 8000d7c:	fb08 f00e 	mul.w	r0, r8, lr
 8000d80:	4288      	cmp	r0, r1
 8000d82:	fa02 f206 	lsl.w	r2, r2, r6
 8000d86:	d90b      	bls.n	8000da0 <__udivmoddi4+0x1b8>
 8000d88:	eb1c 0101 	adds.w	r1, ip, r1
 8000d8c:	f108 3aff 	add.w	sl, r8, #4294967295
 8000d90:	f080 8088 	bcs.w	8000ea4 <__udivmoddi4+0x2bc>
 8000d94:	4288      	cmp	r0, r1
 8000d96:	f240 8085 	bls.w	8000ea4 <__udivmoddi4+0x2bc>
 8000d9a:	f1a8 0802 	sub.w	r8, r8, #2
 8000d9e:	4461      	add	r1, ip
 8000da0:	1a09      	subs	r1, r1, r0
 8000da2:	b2a4      	uxth	r4, r4
 8000da4:	fbb1 f0f9 	udiv	r0, r1, r9
 8000da8:	fb09 1110 	mls	r1, r9, r0, r1
 8000dac:	ea44 4101 	orr.w	r1, r4, r1, lsl #16
 8000db0:	fb00 fe0e 	mul.w	lr, r0, lr
 8000db4:	458e      	cmp	lr, r1
 8000db6:	d908      	bls.n	8000dca <__udivmoddi4+0x1e2>
 8000db8:	eb1c 0101 	adds.w	r1, ip, r1
 8000dbc:	f100 34ff 	add.w	r4, r0, #4294967295
 8000dc0:	d26c      	bcs.n	8000e9c <__udivmoddi4+0x2b4>
 8000dc2:	458e      	cmp	lr, r1
 8000dc4:	d96a      	bls.n	8000e9c <__udivmoddi4+0x2b4>
 8000dc6:	3802      	subs	r0, #2
 8000dc8:	4461      	add	r1, ip
 8000dca:	ea40 4008 	orr.w	r0, r0, r8, lsl #16
 8000dce:	fba0 9402 	umull	r9, r4, r0, r2
 8000dd2:	eba1 010e 	sub.w	r1, r1, lr
 8000dd6:	42a1      	cmp	r1, r4
 8000dd8:	46c8      	mov	r8, r9
 8000dda:	46a6      	mov	lr, r4
 8000ddc:	d356      	bcc.n	8000e8c <__udivmoddi4+0x2a4>
 8000dde:	d053      	beq.n	8000e88 <__udivmoddi4+0x2a0>
 8000de0:	b15d      	cbz	r5, 8000dfa <__udivmoddi4+0x212>
 8000de2:	ebb3 0208 	subs.w	r2, r3, r8
 8000de6:	eb61 010e 	sbc.w	r1, r1, lr
 8000dea:	fa01 f707 	lsl.w	r7, r1, r7
 8000dee:	fa22 f306 	lsr.w	r3, r2, r6
 8000df2:	40f1      	lsrs	r1, r6
 8000df4:	431f      	orrs	r7, r3
 8000df6:	e9c5 7100 	strd	r7, r1, [r5]
 8000dfa:	2600      	movs	r6, #0
 8000dfc:	4631      	mov	r1, r6
 8000dfe:	e8bd 87f0 	ldmia.w	sp!, {r4, r5, r6, r7, r8, r9, sl, pc}
 8000e02:	f1c2 0320 	rsb	r3, r2, #32
 8000e06:	40d8      	lsrs	r0, r3
 8000e08:	fa0c fc02 	lsl.w	ip, ip, r2
 8000e0c:	fa21 f303 	lsr.w	r3, r1, r3
 8000e10:	4091      	lsls	r1, r2
 8000e12:	4301      	orrs	r1, r0
 8000e14:	ea4f 471c 	mov.w	r7, ip, lsr #16
 8000e18:	fa1f fe8c 	uxth.w	lr, ip
 8000e1c:	fbb3 f0f7 	udiv	r0, r3, r7
 8000e20:	fb07 3610 	mls	r6, r7, r0, r3
 8000e24:	0c0b      	lsrs	r3, r1, #16
 8000e26:	ea43 4306 	orr.w	r3, r3, r6, lsl #16
 8000e2a:	fb00 f60e 	mul.w	r6, r0, lr
 8000e2e:	429e      	cmp	r6, r3
 8000e30:	fa04 f402 	lsl.w	r4, r4, r2
 8000e34:	d908      	bls.n	8000e48 <__udivmoddi4+0x260>
 8000e36:	eb1c 0303 	adds.w	r3, ip, r3
 8000e3a:	f100 38ff 	add.w	r8, r0, #4294967295
 8000e3e:	d22f      	bcs.n	8000ea0 <__udivmoddi4+0x2b8>
 8000e40:	429e      	cmp	r6, r3
 8000e42:	d92d      	bls.n	8000ea0 <__udivmoddi4+0x2b8>
 8000e44:	3802      	subs	r0, #2
 8000e46:	4463      	add	r3, ip
 8000e48:	1b9b      	subs	r3, r3, r6
 8000e4a:	b289      	uxth	r1, r1
 8000e4c:	fbb3 f6f7 	udiv	r6, r3, r7
 8000e50:	fb07 3316 	mls	r3, r7, r6, r3
 8000e54:	ea41 4103 	orr.w	r1, r1, r3, lsl #16
 8000e58:	fb06 f30e 	mul.w	r3, r6, lr
 8000e5c:	428b      	cmp	r3, r1
 8000e5e:	d908      	bls.n	8000e72 <__udivmoddi4+0x28a>
 8000e60:	eb1c 0101 	adds.w	r1, ip, r1
 8000e64:	f106 38ff 	add.w	r8, r6, #4294967295
 8000e68:	d216      	bcs.n	8000e98 <__udivmoddi4+0x2b0>
 8000e6a:	428b      	cmp	r3, r1
 8000e6c:	d914      	bls.n	8000e98 <__udivmoddi4+0x2b0>
 8000e6e:	3e02      	subs	r6, #2
 8000e70:	4461      	add	r1, ip
 8000e72:	1ac9      	subs	r1, r1, r3
 8000e74:	ea46 4600 	orr.w	r6, r6, r0, lsl #16
 8000e78:	e738      	b.n	8000cec <__udivmoddi4+0x104>
 8000e7a:	462e      	mov	r6, r5
 8000e7c:	4628      	mov	r0, r5
 8000e7e:	e705      	b.n	8000c8c <__udivmoddi4+0xa4>
 8000e80:	4606      	mov	r6, r0
 8000e82:	e6e3      	b.n	8000c4c <__udivmoddi4+0x64>
 8000e84:	4618      	mov	r0, r3
 8000e86:	e6f8      	b.n	8000c7a <__udivmoddi4+0x92>
 8000e88:	454b      	cmp	r3, r9
 8000e8a:	d2a9      	bcs.n	8000de0 <__udivmoddi4+0x1f8>
 8000e8c:	ebb9 0802 	subs.w	r8, r9, r2
 8000e90:	eb64 0e0c 	sbc.w	lr, r4, ip
 8000e94:	3801      	subs	r0, #1
 8000e96:	e7a3      	b.n	8000de0 <__udivmoddi4+0x1f8>
 8000e98:	4646      	mov	r6, r8
 8000e9a:	e7ea      	b.n	8000e72 <__udivmoddi4+0x28a>
 8000e9c:	4620      	mov	r0, r4
 8000e9e:	e794      	b.n	8000dca <__udivmoddi4+0x1e2>
 8000ea0:	4640      	mov	r0, r8
 8000ea2:	e7d1      	b.n	8000e48 <__udivmoddi4+0x260>
 8000ea4:	46d0      	mov	r8, sl
 8000ea6:	e77b      	b.n	8000da0 <__udivmoddi4+0x1b8>
 8000ea8:	3b02      	subs	r3, #2
 8000eaa:	4461      	add	r1, ip
 8000eac:	e732      	b.n	8000d14 <__udivmoddi4+0x12c>
 8000eae:	4630      	mov	r0, r6
 8000eb0:	e709      	b.n	8000cc6 <__udivmoddi4+0xde>
 8000eb2:	4464      	add	r4, ip
 8000eb4:	3802      	subs	r0, #2
 8000eb6:	e742      	b.n	8000d3e <__udivmoddi4+0x156>

08000eb8 <__aeabi_idiv0>:
 8000eb8:	4770      	bx	lr
 8000eba:	bf00      	nop

08000ebc <_write>:
/* USER CODE END PFP */

/* Private user code ---------------------------------------------------------*/
/* USER CODE BEGIN 0 */
int _write(int file, char *ptr, int len)
{
 8000ebc:	b580      	push	{r7, lr}
 8000ebe:	b084      	sub	sp, #16
 8000ec0:	af00      	add	r7, sp, #0
 8000ec2:	60f8      	str	r0, [r7, #12]
 8000ec4:	60b9      	str	r1, [r7, #8]
 8000ec6:	607a      	str	r2, [r7, #4]
	if(HAL_UART_Transmit(&huart2, (uint8_t *)ptr, len, 10) == HAL_OK)
 8000ec8:	687b      	ldr	r3, [r7, #4]
 8000eca:	b29a      	uxth	r2, r3
 8000ecc:	230a      	movs	r3, #10
 8000ece:	68b9      	ldr	r1, [r7, #8]
 8000ed0:	4806      	ldr	r0, [pc, #24]	; (8000eec <_write+0x30>)
 8000ed2:	f003 fc76 	bl	80047c2 <HAL_UART_Transmit>
 8000ed6:	4603      	mov	r3, r0
 8000ed8:	2b00      	cmp	r3, #0
 8000eda:	d101      	bne.n	8000ee0 <_write+0x24>
		return len;
 8000edc:	687b      	ldr	r3, [r7, #4]
 8000ede:	e001      	b.n	8000ee4 <_write+0x28>
	return -1;
 8000ee0:	f04f 33ff 	mov.w	r3, #4294967295
}
 8000ee4:	4618      	mov	r0, r3
 8000ee6:	3710      	adds	r7, #16
 8000ee8:	46bd      	mov	sp, r7
 8000eea:	bd80      	pop	{r7, pc}
 8000eec:	20000680 	.word	0x20000680

08000ef0 <main>:
/**
  * @brief  The application entry point.
  * @retval int
  */
int main(void)
{
 8000ef0:	b580      	push	{r7, lr}
 8000ef2:	af00      	add	r7, sp, #0
  /* USER CODE END 1 */

  /* MCU Configuration--------------------------------------------------------*/

  /* Reset of all peripherals, Initializes the Flash interface and the Systick. */
  HAL_Init();
 8000ef4:	f000 fe92 	bl	8001c1c <HAL_Init>
  /* USER CODE BEGIN Init */

  /* USER CODE END Init */

  /* Configure the system clock */
  SystemClock_Config();
 8000ef8:	f000 f85a 	bl	8000fb0 <SystemClock_Config>
  /* USER CODE BEGIN SysInit */

  /* USER CODE END SysInit */

  /* Initialize all configured peripherals */
  MX_GPIO_Init();
 8000efc:	f000 faa4 	bl	8001448 <MX_GPIO_Init>
  MX_SPI2_Init();
 8000f00:	f000 f8be 	bl	8001080 <MX_SPI2_Init>
  MX_SPI3_Init();
 8000f04:	f000 f8f2 	bl	80010ec <MX_SPI3_Init>
  MX_USART2_UART_Init();
 8000f08:	f000 fa74 	bl	80013f4 <MX_USART2_UART_Init>
  MX_USART1_UART_Init();
 8000f0c:	f000 fa48 	bl	80013a0 <MX_USART1_UART_Init>
  MX_TIM4_Init();
 8000f10:	f000 f9a6 	bl	8001260 <MX_TIM4_Init>
  MX_TIM3_Init();
 8000f14:	f000 f922 	bl	800115c <MX_TIM3_Init>
  MX_TIM9_Init();
 8000f18:	f000 fa08 	bl	800132c <MX_TIM9_Init>
  /* USER CODE BEGIN 2 */
  HAL_TIM_PWM_Start(&htim4, TIM_CHANNEL_1);
 8000f1c:	2100      	movs	r1, #0
 8000f1e:	481a      	ldr	r0, [pc, #104]	; (8000f88 <main+0x98>)
 8000f20:	f002 fcdc 	bl	80038dc <HAL_TIM_PWM_Start>
  HAL_TIM_PWM_Start(&htim4, TIM_CHANNEL_2);
 8000f24:	2104      	movs	r1, #4
 8000f26:	4818      	ldr	r0, [pc, #96]	; (8000f88 <main+0x98>)
 8000f28:	f002 fcd8 	bl	80038dc <HAL_TIM_PWM_Start>

  /* Make temperature sensor object */
  tempBottom = Custom_Tempsensor(&hspi3, TEMPSENSOR_DOWN_CS_Port, TEMPSENSOR_DOWN_CS_Pin, 300);
 8000f2c:	f44f 7396 	mov.w	r3, #300	; 0x12c
 8000f30:	f44f 5200 	mov.w	r2, #8192	; 0x2000
 8000f34:	4915      	ldr	r1, [pc, #84]	; (8000f8c <main+0x9c>)
 8000f36:	4816      	ldr	r0, [pc, #88]	; (8000f90 <main+0xa0>)
 8000f38:	f005 fae2 	bl	8006500 <Custom_Tempsensor>
 8000f3c:	4603      	mov	r3, r0
 8000f3e:	4a15      	ldr	r2, [pc, #84]	; (8000f94 <main+0xa4>)
 8000f40:	6013      	str	r3, [r2, #0]
  tempTop = Custom_Tempsensor(&hspi3, TEMPSENSOR_UP_CS_Port, TEMPSENSOR_UP_CS_Pin, 300);
 8000f42:	f44f 7396 	mov.w	r3, #300	; 0x12c
 8000f46:	f44f 4280 	mov.w	r2, #16384	; 0x4000
 8000f4a:	4910      	ldr	r1, [pc, #64]	; (8000f8c <main+0x9c>)
 8000f4c:	4810      	ldr	r0, [pc, #64]	; (8000f90 <main+0xa0>)
 8000f4e:	f005 fad7 	bl	8006500 <Custom_Tempsensor>
 8000f52:	4603      	mov	r3, r0
 8000f54:	4a10      	ldr	r2, [pc, #64]	; (8000f98 <main+0xa8>)
 8000f56:	6013      	str	r3, [r2, #0]

  /* Initialize heater struct */
  heaterTop = Custom_HeaterControl(&htim3, TIM_CHANNEL_3);	// HU
 8000f58:	2108      	movs	r1, #8
 8000f5a:	4810      	ldr	r0, [pc, #64]	; (8000f9c <main+0xac>)
 8000f5c:	f005 f900 	bl	8006160 <Custom_HeaterControl>
 8000f60:	4603      	mov	r3, r0
 8000f62:	4a0f      	ldr	r2, [pc, #60]	; (8000fa0 <main+0xb0>)
 8000f64:	6013      	str	r3, [r2, #0]
  heaterBottom = Custom_HeaterControl(&htim3, TIM_CHANNEL_2);	// HD
 8000f66:	2104      	movs	r1, #4
 8000f68:	480c      	ldr	r0, [pc, #48]	; (8000f9c <main+0xac>)
 8000f6a:	f005 f8f9 	bl	8006160 <Custom_HeaterControl>
 8000f6e:	4603      	mov	r3, r0
 8000f70:	4a0c      	ldr	r2, [pc, #48]	; (8000fa4 <main+0xb4>)
 8000f72:	6013      	str	r3, [r2, #0]

  /* Start HeaterControl interrupt */
  HAL_TIM_Base_Start_IT(&htim9);
 8000f74:	480c      	ldr	r0, [pc, #48]	; (8000fa8 <main+0xb8>)
 8000f76:	f002 fbff 	bl	8003778 <HAL_TIM_Base_Start_IT>
  printf("Hello!\r\n");
 8000f7a:	480c      	ldr	r0, [pc, #48]	; (8000fac <main+0xbc>)
 8000f7c:	f006 fe8e 	bl	8007c9c <puts>
  Menu();
 8000f80:	f005 fd3a 	bl	80069f8 <Menu>

  /* USER CODE END 2 */

  /* Infinite loop */
  /* USER CODE BEGIN WHILE */
  while (1)
 8000f84:	e7fe      	b.n	8000f84 <main+0x94>
 8000f86:	bf00      	nop
 8000f88:	200005ac 	.word	0x200005ac
 8000f8c:	40020400 	.word	0x40020400
 8000f90:	2000050c 	.word	0x2000050c
 8000f94:	200006c8 	.word	0x200006c8
 8000f98:	200006c4 	.word	0x200006c4
 8000f9c:	20000564 	.word	0x20000564
 8000fa0:	200006cc 	.word	0x200006cc
 8000fa4:	200006d0 	.word	0x200006d0
 8000fa8:	200005f4 	.word	0x200005f4
 8000fac:	08009fe0 	.word	0x08009fe0

08000fb0 <SystemClock_Config>:
/**
  * @brief System Clock Configuration
  * @retval None
  */
void SystemClock_Config(void)
{
 8000fb0:	b580      	push	{r7, lr}
 8000fb2:	b094      	sub	sp, #80	; 0x50
 8000fb4:	af00      	add	r7, sp, #0
  RCC_OscInitTypeDef RCC_OscInitStruct = {0};
 8000fb6:	f107 0320 	add.w	r3, r7, #32
 8000fba:	2230      	movs	r2, #48	; 0x30
 8000fbc:	2100      	movs	r1, #0
 8000fbe:	4618      	mov	r0, r3
 8000fc0:	f006 f87e 	bl	80070c0 <memset>
  RCC_ClkInitTypeDef RCC_ClkInitStruct = {0};
 8000fc4:	f107 030c 	add.w	r3, r7, #12
 8000fc8:	2200      	movs	r2, #0
 8000fca:	601a      	str	r2, [r3, #0]
 8000fcc:	605a      	str	r2, [r3, #4]
 8000fce:	609a      	str	r2, [r3, #8]
 8000fd0:	60da      	str	r2, [r3, #12]
 8000fd2:	611a      	str	r2, [r3, #16]

  /** Configure the main internal regulator output voltage
  */
  __HAL_RCC_PWR_CLK_ENABLE();
 8000fd4:	2300      	movs	r3, #0
 8000fd6:	60bb      	str	r3, [r7, #8]
 8000fd8:	4b27      	ldr	r3, [pc, #156]	; (8001078 <SystemClock_Config+0xc8>)
 8000fda:	6c1b      	ldr	r3, [r3, #64]	; 0x40
 8000fdc:	4a26      	ldr	r2, [pc, #152]	; (8001078 <SystemClock_Config+0xc8>)
 8000fde:	f043 5380 	orr.w	r3, r3, #268435456	; 0x10000000
 8000fe2:	6413      	str	r3, [r2, #64]	; 0x40
 8000fe4:	4b24      	ldr	r3, [pc, #144]	; (8001078 <SystemClock_Config+0xc8>)
 8000fe6:	6c1b      	ldr	r3, [r3, #64]	; 0x40
 8000fe8:	f003 5380 	and.w	r3, r3, #268435456	; 0x10000000
 8000fec:	60bb      	str	r3, [r7, #8]
 8000fee:	68bb      	ldr	r3, [r7, #8]
  __HAL_PWR_VOLTAGESCALING_CONFIG(PWR_REGULATOR_VOLTAGE_SCALE1);
 8000ff0:	2300      	movs	r3, #0
 8000ff2:	607b      	str	r3, [r7, #4]
 8000ff4:	4b21      	ldr	r3, [pc, #132]	; (800107c <SystemClock_Config+0xcc>)
 8000ff6:	681b      	ldr	r3, [r3, #0]
 8000ff8:	4a20      	ldr	r2, [pc, #128]	; (800107c <SystemClock_Config+0xcc>)
 8000ffa:	f443 4340 	orr.w	r3, r3, #49152	; 0xc000
 8000ffe:	6013      	str	r3, [r2, #0]
 8001000:	4b1e      	ldr	r3, [pc, #120]	; (800107c <SystemClock_Config+0xcc>)
 8001002:	681b      	ldr	r3, [r3, #0]
 8001004:	f403 4340 	and.w	r3, r3, #49152	; 0xc000
 8001008:	607b      	str	r3, [r7, #4]
 800100a:	687b      	ldr	r3, [r7, #4]
  /** Initializes the RCC Oscillators according to the specified parameters
  * in the RCC_OscInitTypeDef structure.
  */
  RCC_OscInitStruct.OscillatorType = RCC_OSCILLATORTYPE_HSI;
 800100c:	2302      	movs	r3, #2
 800100e:	623b      	str	r3, [r7, #32]
  RCC_OscInitStruct.HSIState = RCC_HSI_ON;
 8001010:	2301      	movs	r3, #1
 8001012:	62fb      	str	r3, [r7, #44]	; 0x2c
  RCC_OscInitStruct.HSICalibrationValue = RCC_HSICALIBRATION_DEFAULT;
 8001014:	2310      	movs	r3, #16
 8001016:	633b      	str	r3, [r7, #48]	; 0x30
  RCC_OscInitStruct.PLL.PLLState = RCC_PLL_ON;
 8001018:	2302      	movs	r3, #2
 800101a:	63bb      	str	r3, [r7, #56]	; 0x38
  RCC_OscInitStruct.PLL.PLLSource = RCC_PLLSOURCE_HSI;
 800101c:	2300      	movs	r3, #0
 800101e:	63fb      	str	r3, [r7, #60]	; 0x3c
  RCC_OscInitStruct.PLL.PLLM = 8;
 8001020:	2308      	movs	r3, #8
 8001022:	643b      	str	r3, [r7, #64]	; 0x40
  RCC_OscInitStruct.PLL.PLLN = 100;
 8001024:	2364      	movs	r3, #100	; 0x64
 8001026:	647b      	str	r3, [r7, #68]	; 0x44
  RCC_OscInitStruct.PLL.PLLP = RCC_PLLP_DIV2;
 8001028:	2302      	movs	r3, #2
 800102a:	64bb      	str	r3, [r7, #72]	; 0x48
  RCC_OscInitStruct.PLL.PLLQ = 4;
 800102c:	2304      	movs	r3, #4
 800102e:	64fb      	str	r3, [r7, #76]	; 0x4c
  if (HAL_RCC_OscConfig(&RCC_OscInitStruct) != HAL_OK)
 8001030:	f107 0320 	add.w	r3, r7, #32
 8001034:	4618      	mov	r0, r3
 8001036:	f001 f94f 	bl	80022d8 <HAL_RCC_OscConfig>
 800103a:	4603      	mov	r3, r0
 800103c:	2b00      	cmp	r3, #0
 800103e:	d001      	beq.n	8001044 <SystemClock_Config+0x94>
  {
    Error_Handler();
 8001040:	f000 fac4 	bl	80015cc <Error_Handler>
  }
  /** Initializes the CPU, AHB and APB buses clocks
  */
  RCC_ClkInitStruct.ClockType = RCC_CLOCKTYPE_HCLK|RCC_CLOCKTYPE_SYSCLK
 8001044:	230f      	movs	r3, #15
 8001046:	60fb      	str	r3, [r7, #12]
                              |RCC_CLOCKTYPE_PCLK1|RCC_CLOCKTYPE_PCLK2;
  RCC_ClkInitStruct.SYSCLKSource = RCC_SYSCLKSOURCE_PLLCLK;
 8001048:	2302      	movs	r3, #2
 800104a:	613b      	str	r3, [r7, #16]
  RCC_ClkInitStruct.AHBCLKDivider = RCC_SYSCLK_DIV1;
 800104c:	2300      	movs	r3, #0
 800104e:	617b      	str	r3, [r7, #20]
  RCC_ClkInitStruct.APB1CLKDivider = RCC_HCLK_DIV2;
 8001050:	f44f 5380 	mov.w	r3, #4096	; 0x1000
 8001054:	61bb      	str	r3, [r7, #24]
  RCC_ClkInitStruct.APB2CLKDivider = RCC_HCLK_DIV1;
 8001056:	2300      	movs	r3, #0
 8001058:	61fb      	str	r3, [r7, #28]

  if (HAL_RCC_ClockConfig(&RCC_ClkInitStruct, FLASH_LATENCY_3) != HAL_OK)
 800105a:	f107 030c 	add.w	r3, r7, #12
 800105e:	2103      	movs	r1, #3
 8001060:	4618      	mov	r0, r3
 8001062:	f001 fbb1 	bl	80027c8 <HAL_RCC_ClockConfig>
 8001066:	4603      	mov	r3, r0
 8001068:	2b00      	cmp	r3, #0
 800106a:	d001      	beq.n	8001070 <SystemClock_Config+0xc0>
  {
    Error_Handler();
 800106c:	f000 faae 	bl	80015cc <Error_Handler>
  }
}
 8001070:	bf00      	nop
 8001072:	3750      	adds	r7, #80	; 0x50
 8001074:	46bd      	mov	sp, r7
 8001076:	bd80      	pop	{r7, pc}
 8001078:	40023800 	.word	0x40023800
 800107c:	40007000 	.word	0x40007000

08001080 <MX_SPI2_Init>:
  * @brief SPI2 Initialization Function
  * @param None
  * @retval None
  */
static void MX_SPI2_Init(void)
{
 8001080:	b580      	push	{r7, lr}
 8001082:	af00      	add	r7, sp, #0

  /* USER CODE BEGIN SPI2_Init 1 */

  /* USER CODE END SPI2_Init 1 */
  /* SPI2 parameter configuration*/
  hspi2.Instance = SPI2;
 8001084:	4b17      	ldr	r3, [pc, #92]	; (80010e4 <MX_SPI2_Init+0x64>)
 8001086:	4a18      	ldr	r2, [pc, #96]	; (80010e8 <MX_SPI2_Init+0x68>)
 8001088:	601a      	str	r2, [r3, #0]
  hspi2.Init.Mode = SPI_MODE_MASTER;
 800108a:	4b16      	ldr	r3, [pc, #88]	; (80010e4 <MX_SPI2_Init+0x64>)
 800108c:	f44f 7282 	mov.w	r2, #260	; 0x104
 8001090:	605a      	str	r2, [r3, #4]
  hspi2.Init.Direction = SPI_DIRECTION_2LINES;
 8001092:	4b14      	ldr	r3, [pc, #80]	; (80010e4 <MX_SPI2_Init+0x64>)
 8001094:	2200      	movs	r2, #0
 8001096:	609a      	str	r2, [r3, #8]
  hspi2.Init.DataSize = SPI_DATASIZE_8BIT;
 8001098:	4b12      	ldr	r3, [pc, #72]	; (80010e4 <MX_SPI2_Init+0x64>)
 800109a:	2200      	movs	r2, #0
 800109c:	60da      	str	r2, [r3, #12]
  hspi2.Init.CLKPolarity = SPI_POLARITY_HIGH;
 800109e:	4b11      	ldr	r3, [pc, #68]	; (80010e4 <MX_SPI2_Init+0x64>)
 80010a0:	2202      	movs	r2, #2
 80010a2:	611a      	str	r2, [r3, #16]
  hspi2.Init.CLKPhase = SPI_PHASE_1EDGE;
 80010a4:	4b0f      	ldr	r3, [pc, #60]	; (80010e4 <MX_SPI2_Init+0x64>)
 80010a6:	2200      	movs	r2, #0
 80010a8:	615a      	str	r2, [r3, #20]
  hspi2.Init.NSS = SPI_NSS_SOFT;
 80010aa:	4b0e      	ldr	r3, [pc, #56]	; (80010e4 <MX_SPI2_Init+0x64>)
 80010ac:	f44f 7200 	mov.w	r2, #512	; 0x200
 80010b0:	619a      	str	r2, [r3, #24]
  hspi2.Init.BaudRatePrescaler = SPI_BAUDRATEPRESCALER_2;
 80010b2:	4b0c      	ldr	r3, [pc, #48]	; (80010e4 <MX_SPI2_Init+0x64>)
 80010b4:	2200      	movs	r2, #0
 80010b6:	61da      	str	r2, [r3, #28]
  hspi2.Init.FirstBit = SPI_FIRSTBIT_MSB;
 80010b8:	4b0a      	ldr	r3, [pc, #40]	; (80010e4 <MX_SPI2_Init+0x64>)
 80010ba:	2200      	movs	r2, #0
 80010bc:	621a      	str	r2, [r3, #32]
  hspi2.Init.TIMode = SPI_TIMODE_DISABLE;
 80010be:	4b09      	ldr	r3, [pc, #36]	; (80010e4 <MX_SPI2_Init+0x64>)
 80010c0:	2200      	movs	r2, #0
 80010c2:	625a      	str	r2, [r3, #36]	; 0x24
  hspi2.Init.CRCCalculation = SPI_CRCCALCULATION_DISABLE;
 80010c4:	4b07      	ldr	r3, [pc, #28]	; (80010e4 <MX_SPI2_Init+0x64>)
 80010c6:	2200      	movs	r2, #0
 80010c8:	629a      	str	r2, [r3, #40]	; 0x28
  hspi2.Init.CRCPolynomial = 10;
 80010ca:	4b06      	ldr	r3, [pc, #24]	; (80010e4 <MX_SPI2_Init+0x64>)
 80010cc:	220a      	movs	r2, #10
 80010ce:	62da      	str	r2, [r3, #44]	; 0x2c
  if (HAL_SPI_Init(&hspi2) != HAL_OK)
 80010d0:	4804      	ldr	r0, [pc, #16]	; (80010e4 <MX_SPI2_Init+0x64>)
 80010d2:	f001 fd59 	bl	8002b88 <HAL_SPI_Init>
 80010d6:	4603      	mov	r3, r0
 80010d8:	2b00      	cmp	r3, #0
 80010da:	d001      	beq.n	80010e0 <MX_SPI2_Init+0x60>
  {
    Error_Handler();
 80010dc:	f000 fa76 	bl	80015cc <Error_Handler>
  }
  /* USER CODE BEGIN SPI2_Init 2 */

  /* USER CODE END SPI2_Init 2 */

}
 80010e0:	bf00      	nop
 80010e2:	bd80      	pop	{r7, pc}
 80010e4:	200004b4 	.word	0x200004b4
 80010e8:	40003800 	.word	0x40003800

080010ec <MX_SPI3_Init>:
  * @brief SPI3 Initialization Function
  * @param None
  * @retval None
  */
static void MX_SPI3_Init(void)
{
 80010ec:	b580      	push	{r7, lr}
 80010ee:	af00      	add	r7, sp, #0

  /* USER CODE BEGIN SPI3_Init 1 */

  /* USER CODE END SPI3_Init 1 */
  /* SPI3 parameter configuration*/
  hspi3.Instance = SPI3;
 80010f0:	4b18      	ldr	r3, [pc, #96]	; (8001154 <MX_SPI3_Init+0x68>)
 80010f2:	4a19      	ldr	r2, [pc, #100]	; (8001158 <MX_SPI3_Init+0x6c>)
 80010f4:	601a      	str	r2, [r3, #0]
  hspi3.Init.Mode = SPI_MODE_MASTER;
 80010f6:	4b17      	ldr	r3, [pc, #92]	; (8001154 <MX_SPI3_Init+0x68>)
 80010f8:	f44f 7282 	mov.w	r2, #260	; 0x104
 80010fc:	605a      	str	r2, [r3, #4]
  hspi3.Init.Direction = SPI_DIRECTION_2LINES_RXONLY;
 80010fe:	4b15      	ldr	r3, [pc, #84]	; (8001154 <MX_SPI3_Init+0x68>)
 8001100:	f44f 6280 	mov.w	r2, #1024	; 0x400
 8001104:	609a      	str	r2, [r3, #8]
  hspi3.Init.DataSize = SPI_DATASIZE_16BIT;
 8001106:	4b13      	ldr	r3, [pc, #76]	; (8001154 <MX_SPI3_Init+0x68>)
 8001108:	f44f 6200 	mov.w	r2, #2048	; 0x800
 800110c:	60da      	str	r2, [r3, #12]
  hspi3.Init.CLKPolarity = SPI_POLARITY_LOW;
 800110e:	4b11      	ldr	r3, [pc, #68]	; (8001154 <MX_SPI3_Init+0x68>)
 8001110:	2200      	movs	r2, #0
 8001112:	611a      	str	r2, [r3, #16]
  hspi3.Init.CLKPhase = SPI_PHASE_1EDGE;
 8001114:	4b0f      	ldr	r3, [pc, #60]	; (8001154 <MX_SPI3_Init+0x68>)
 8001116:	2200      	movs	r2, #0
 8001118:	615a      	str	r2, [r3, #20]
  hspi3.Init.NSS = SPI_NSS_SOFT;
 800111a:	4b0e      	ldr	r3, [pc, #56]	; (8001154 <MX_SPI3_Init+0x68>)
 800111c:	f44f 7200 	mov.w	r2, #512	; 0x200
 8001120:	619a      	str	r2, [r3, #24]
  hspi3.Init.BaudRatePrescaler = SPI_BAUDRATEPRESCALER_256;
 8001122:	4b0c      	ldr	r3, [pc, #48]	; (8001154 <MX_SPI3_Init+0x68>)
 8001124:	2238      	movs	r2, #56	; 0x38
 8001126:	61da      	str	r2, [r3, #28]
  hspi3.Init.FirstBit = SPI_FIRSTBIT_MSB;
 8001128:	4b0a      	ldr	r3, [pc, #40]	; (8001154 <MX_SPI3_Init+0x68>)
 800112a:	2200      	movs	r2, #0
 800112c:	621a      	str	r2, [r3, #32]
  hspi3.Init.TIMode = SPI_TIMODE_DISABLE;
 800112e:	4b09      	ldr	r3, [pc, #36]	; (8001154 <MX_SPI3_Init+0x68>)
 8001130:	2200      	movs	r2, #0
 8001132:	625a      	str	r2, [r3, #36]	; 0x24
  hspi3.Init.CRCCalculation = SPI_CRCCALCULATION_DISABLE;
 8001134:	4b07      	ldr	r3, [pc, #28]	; (8001154 <MX_SPI3_Init+0x68>)
 8001136:	2200      	movs	r2, #0
 8001138:	629a      	str	r2, [r3, #40]	; 0x28
  hspi3.Init.CRCPolynomial = 10;
 800113a:	4b06      	ldr	r3, [pc, #24]	; (8001154 <MX_SPI3_Init+0x68>)
 800113c:	220a      	movs	r2, #10
 800113e:	62da      	str	r2, [r3, #44]	; 0x2c
  if (HAL_SPI_Init(&hspi3) != HAL_OK)
 8001140:	4804      	ldr	r0, [pc, #16]	; (8001154 <MX_SPI3_Init+0x68>)
 8001142:	f001 fd21 	bl	8002b88 <HAL_SPI_Init>
 8001146:	4603      	mov	r3, r0
 8001148:	2b00      	cmp	r3, #0
 800114a:	d001      	beq.n	8001150 <MX_SPI3_Init+0x64>
  {
    Error_Handler();
 800114c:	f000 fa3e 	bl	80015cc <Error_Handler>
  }
  /* USER CODE BEGIN SPI3_Init 2 */

  /* USER CODE END SPI3_Init 2 */

}
 8001150:	bf00      	nop
 8001152:	bd80      	pop	{r7, pc}
 8001154:	2000050c 	.word	0x2000050c
 8001158:	40003c00 	.word	0x40003c00

0800115c <MX_TIM3_Init>:
  * @brief TIM3 Initialization Function
  * @param None
  * @retval None
  */
static void MX_TIM3_Init(void)
{
 800115c:	b580      	push	{r7, lr}
 800115e:	b08e      	sub	sp, #56	; 0x38
 8001160:	af00      	add	r7, sp, #0

  /* USER CODE BEGIN TIM3_Init 0 */

  /* USER CODE END TIM3_Init 0 */

  TIM_ClockConfigTypeDef sClockSourceConfig = {0};
 8001162:	f107 0328 	add.w	r3, r7, #40	; 0x28
 8001166:	2200      	movs	r2, #0
 8001168:	601a      	str	r2, [r3, #0]
 800116a:	605a      	str	r2, [r3, #4]
 800116c:	609a      	str	r2, [r3, #8]
 800116e:	60da      	str	r2, [r3, #12]
  TIM_MasterConfigTypeDef sMasterConfig = {0};
 8001170:	f107 0320 	add.w	r3, r7, #32
 8001174:	2200      	movs	r2, #0
 8001176:	601a      	str	r2, [r3, #0]
 8001178:	605a      	str	r2, [r3, #4]
  TIM_OC_InitTypeDef sConfigOC = {0};
 800117a:	1d3b      	adds	r3, r7, #4
 800117c:	2200      	movs	r2, #0
 800117e:	601a      	str	r2, [r3, #0]
 8001180:	605a      	str	r2, [r3, #4]
 8001182:	609a      	str	r2, [r3, #8]
 8001184:	60da      	str	r2, [r3, #12]
 8001186:	611a      	str	r2, [r3, #16]
 8001188:	615a      	str	r2, [r3, #20]
 800118a:	619a      	str	r2, [r3, #24]

  /* USER CODE BEGIN TIM3_Init 1 */

  /* USER CODE END TIM3_Init 1 */
  htim3.Instance = TIM3;
 800118c:	4b32      	ldr	r3, [pc, #200]	; (8001258 <MX_TIM3_Init+0xfc>)
 800118e:	4a33      	ldr	r2, [pc, #204]	; (800125c <MX_TIM3_Init+0x100>)
 8001190:	601a      	str	r2, [r3, #0]
  htim3.Init.Prescaler = 9999;
 8001192:	4b31      	ldr	r3, [pc, #196]	; (8001258 <MX_TIM3_Init+0xfc>)
 8001194:	f242 720f 	movw	r2, #9999	; 0x270f
 8001198:	605a      	str	r2, [r3, #4]
  htim3.Init.CounterMode = TIM_COUNTERMODE_UP;
 800119a:	4b2f      	ldr	r3, [pc, #188]	; (8001258 <MX_TIM3_Init+0xfc>)
 800119c:	2200      	movs	r2, #0
 800119e:	609a      	str	r2, [r3, #8]
  htim3.Init.Period = 9999;
 80011a0:	4b2d      	ldr	r3, [pc, #180]	; (8001258 <MX_TIM3_Init+0xfc>)
 80011a2:	f242 720f 	movw	r2, #9999	; 0x270f
 80011a6:	60da      	str	r2, [r3, #12]
  htim3.Init.ClockDivision = TIM_CLOCKDIVISION_DIV1;
 80011a8:	4b2b      	ldr	r3, [pc, #172]	; (8001258 <MX_TIM3_Init+0xfc>)
 80011aa:	2200      	movs	r2, #0
 80011ac:	611a      	str	r2, [r3, #16]
  htim3.Init.AutoReloadPreload = TIM_AUTORELOAD_PRELOAD_DISABLE;
 80011ae:	4b2a      	ldr	r3, [pc, #168]	; (8001258 <MX_TIM3_Init+0xfc>)
 80011b0:	2200      	movs	r2, #0
 80011b2:	619a      	str	r2, [r3, #24]
  if (HAL_TIM_Base_Init(&htim3) != HAL_OK)
 80011b4:	4828      	ldr	r0, [pc, #160]	; (8001258 <MX_TIM3_Init+0xfc>)
 80011b6:	f002 fa8f 	bl	80036d8 <HAL_TIM_Base_Init>
 80011ba:	4603      	mov	r3, r0
 80011bc:	2b00      	cmp	r3, #0
 80011be:	d001      	beq.n	80011c4 <MX_TIM3_Init+0x68>
  {
    Error_Handler();
 80011c0:	f000 fa04 	bl	80015cc <Error_Handler>
  }
  sClockSourceConfig.ClockSource = TIM_CLOCKSOURCE_INTERNAL;
 80011c4:	f44f 5380 	mov.w	r3, #4096	; 0x1000
 80011c8:	62bb      	str	r3, [r7, #40]	; 0x28
  if (HAL_TIM_ConfigClockSource(&htim3, &sClockSourceConfig) != HAL_OK)
 80011ca:	f107 0328 	add.w	r3, r7, #40	; 0x28
 80011ce:	4619      	mov	r1, r3
 80011d0:	4821      	ldr	r0, [pc, #132]	; (8001258 <MX_TIM3_Init+0xfc>)
 80011d2:	f002 fe61 	bl	8003e98 <HAL_TIM_ConfigClockSource>
 80011d6:	4603      	mov	r3, r0
 80011d8:	2b00      	cmp	r3, #0
 80011da:	d001      	beq.n	80011e0 <MX_TIM3_Init+0x84>
  {
    Error_Handler();
 80011dc:	f000 f9f6 	bl	80015cc <Error_Handler>
  }
  if (HAL_TIM_PWM_Init(&htim3) != HAL_OK)
 80011e0:	481d      	ldr	r0, [pc, #116]	; (8001258 <MX_TIM3_Init+0xfc>)
 80011e2:	f002 fb2b 	bl	800383c <HAL_TIM_PWM_Init>
 80011e6:	4603      	mov	r3, r0
 80011e8:	2b00      	cmp	r3, #0
 80011ea:	d001      	beq.n	80011f0 <MX_TIM3_Init+0x94>
  {
    Error_Handler();
 80011ec:	f000 f9ee 	bl	80015cc <Error_Handler>
  }
  sMasterConfig.MasterOutputTrigger = TIM_TRGO_RESET;
 80011f0:	2300      	movs	r3, #0
 80011f2:	623b      	str	r3, [r7, #32]
  sMasterConfig.MasterSlaveMode = TIM_MASTERSLAVEMODE_DISABLE;
 80011f4:	2300      	movs	r3, #0
 80011f6:	627b      	str	r3, [r7, #36]	; 0x24
  if (HAL_TIMEx_MasterConfigSynchronization(&htim3, &sMasterConfig) != HAL_OK)
 80011f8:	f107 0320 	add.w	r3, r7, #32
 80011fc:	4619      	mov	r1, r3
 80011fe:	4816      	ldr	r0, [pc, #88]	; (8001258 <MX_TIM3_Init+0xfc>)
 8001200:	f003 fa10 	bl	8004624 <HAL_TIMEx_MasterConfigSynchronization>
 8001204:	4603      	mov	r3, r0
 8001206:	2b00      	cmp	r3, #0
 8001208:	d001      	beq.n	800120e <MX_TIM3_Init+0xb2>
  {
    Error_Handler();
 800120a:	f000 f9df 	bl	80015cc <Error_Handler>
  }
  sConfigOC.OCMode = TIM_OCMODE_PWM2;
 800120e:	2370      	movs	r3, #112	; 0x70
 8001210:	607b      	str	r3, [r7, #4]
  sConfigOC.Pulse = 0;
 8001212:	2300      	movs	r3, #0
 8001214:	60bb      	str	r3, [r7, #8]
  sConfigOC.OCPolarity = TIM_OCPOLARITY_HIGH;
 8001216:	2300      	movs	r3, #0
 8001218:	60fb      	str	r3, [r7, #12]
  sConfigOC.OCFastMode = TIM_OCFAST_DISABLE;
 800121a:	2300      	movs	r3, #0
 800121c:	617b      	str	r3, [r7, #20]
  if (HAL_TIM_PWM_ConfigChannel(&htim3, &sConfigOC, TIM_CHANNEL_2) != HAL_OK)
 800121e:	1d3b      	adds	r3, r7, #4
 8001220:	2204      	movs	r2, #4
 8001222:	4619      	mov	r1, r3
 8001224:	480c      	ldr	r0, [pc, #48]	; (8001258 <MX_TIM3_Init+0xfc>)
 8001226:	f002 fd75 	bl	8003d14 <HAL_TIM_PWM_ConfigChannel>
 800122a:	4603      	mov	r3, r0
 800122c:	2b00      	cmp	r3, #0
 800122e:	d001      	beq.n	8001234 <MX_TIM3_Init+0xd8>
  {
    Error_Handler();
 8001230:	f000 f9cc 	bl	80015cc <Error_Handler>
  }
  if (HAL_TIM_PWM_ConfigChannel(&htim3, &sConfigOC, TIM_CHANNEL_3) != HAL_OK)
 8001234:	1d3b      	adds	r3, r7, #4
 8001236:	2208      	movs	r2, #8
 8001238:	4619      	mov	r1, r3
 800123a:	4807      	ldr	r0, [pc, #28]	; (8001258 <MX_TIM3_Init+0xfc>)
 800123c:	f002 fd6a 	bl	8003d14 <HAL_TIM_PWM_ConfigChannel>
 8001240:	4603      	mov	r3, r0
 8001242:	2b00      	cmp	r3, #0
 8001244:	d001      	beq.n	800124a <MX_TIM3_Init+0xee>
  {
    Error_Handler();
 8001246:	f000 f9c1 	bl	80015cc <Error_Handler>
  }
  /* USER CODE BEGIN TIM3_Init 2 */

  /* USER CODE END TIM3_Init 2 */
  HAL_TIM_MspPostInit(&htim3);
 800124a:	4803      	ldr	r0, [pc, #12]	; (8001258 <MX_TIM3_Init+0xfc>)
 800124c:	f000 faea 	bl	8001824 <HAL_TIM_MspPostInit>

}
 8001250:	bf00      	nop
 8001252:	3738      	adds	r7, #56	; 0x38
 8001254:	46bd      	mov	sp, r7
 8001256:	bd80      	pop	{r7, pc}
 8001258:	20000564 	.word	0x20000564
 800125c:	40000400 	.word	0x40000400

08001260 <MX_TIM4_Init>:
  * @brief TIM4 Initialization Function
  * @param None
  * @retval None
  */
static void MX_TIM4_Init(void)
{
 8001260:	b580      	push	{r7, lr}
 8001262:	b08a      	sub	sp, #40	; 0x28
 8001264:	af00      	add	r7, sp, #0

  /* USER CODE BEGIN TIM4_Init 0 */

  /* USER CODE END TIM4_Init 0 */

  TIM_MasterConfigTypeDef sMasterConfig = {0};
 8001266:	f107 0320 	add.w	r3, r7, #32
 800126a:	2200      	movs	r2, #0
 800126c:	601a      	str	r2, [r3, #0]
 800126e:	605a      	str	r2, [r3, #4]
  TIM_OC_InitTypeDef sConfigOC = {0};
 8001270:	1d3b      	adds	r3, r7, #4
 8001272:	2200      	movs	r2, #0
 8001274:	601a      	str	r2, [r3, #0]
 8001276:	605a      	str	r2, [r3, #4]
 8001278:	609a      	str	r2, [r3, #8]
 800127a:	60da      	str	r2, [r3, #12]
 800127c:	611a      	str	r2, [r3, #16]
 800127e:	615a      	str	r2, [r3, #20]
 8001280:	619a      	str	r2, [r3, #24]

  /* USER CODE BEGIN TIM4_Init 1 */

  /* USER CODE END TIM4_Init 1 */
  htim4.Instance = TIM4;
 8001282:	4b28      	ldr	r3, [pc, #160]	; (8001324 <MX_TIM4_Init+0xc4>)
 8001284:	4a28      	ldr	r2, [pc, #160]	; (8001328 <MX_TIM4_Init+0xc8>)
 8001286:	601a      	str	r2, [r3, #0]
  htim4.Init.Prescaler = 9999;
 8001288:	4b26      	ldr	r3, [pc, #152]	; (8001324 <MX_TIM4_Init+0xc4>)
 800128a:	f242 720f 	movw	r2, #9999	; 0x270f
 800128e:	605a      	str	r2, [r3, #4]
  htim4.Init.CounterMode = TIM_COUNTERMODE_UP;
 8001290:	4b24      	ldr	r3, [pc, #144]	; (8001324 <MX_TIM4_Init+0xc4>)
 8001292:	2200      	movs	r2, #0
 8001294:	609a      	str	r2, [r3, #8]
  htim4.Init.Period = 9999;
 8001296:	4b23      	ldr	r3, [pc, #140]	; (8001324 <MX_TIM4_Init+0xc4>)
 8001298:	f242 720f 	movw	r2, #9999	; 0x270f
 800129c:	60da      	str	r2, [r3, #12]
  htim4.Init.ClockDivision = TIM_CLOCKDIVISION_DIV1;
 800129e:	4b21      	ldr	r3, [pc, #132]	; (8001324 <MX_TIM4_Init+0xc4>)
 80012a0:	2200      	movs	r2, #0
 80012a2:	611a      	str	r2, [r3, #16]
  htim4.Init.AutoReloadPreload = TIM_AUTORELOAD_PRELOAD_DISABLE;
 80012a4:	4b1f      	ldr	r3, [pc, #124]	; (8001324 <MX_TIM4_Init+0xc4>)
 80012a6:	2200      	movs	r2, #0
 80012a8:	619a      	str	r2, [r3, #24]
  if (HAL_TIM_PWM_Init(&htim4) != HAL_OK)
 80012aa:	481e      	ldr	r0, [pc, #120]	; (8001324 <MX_TIM4_Init+0xc4>)
 80012ac:	f002 fac6 	bl	800383c <HAL_TIM_PWM_Init>
 80012b0:	4603      	mov	r3, r0
 80012b2:	2b00      	cmp	r3, #0
 80012b4:	d001      	beq.n	80012ba <MX_TIM4_Init+0x5a>
  {
    Error_Handler();
 80012b6:	f000 f989 	bl	80015cc <Error_Handler>
  }
  sMasterConfig.MasterOutputTrigger = TIM_TRGO_RESET;
 80012ba:	2300      	movs	r3, #0
 80012bc:	623b      	str	r3, [r7, #32]
  sMasterConfig.MasterSlaveMode = TIM_MASTERSLAVEMODE_DISABLE;
 80012be:	2300      	movs	r3, #0
 80012c0:	627b      	str	r3, [r7, #36]	; 0x24
  if (HAL_TIMEx_MasterConfigSynchronization(&htim4, &sMasterConfig) != HAL_OK)
 80012c2:	f107 0320 	add.w	r3, r7, #32
 80012c6:	4619      	mov	r1, r3
 80012c8:	4816      	ldr	r0, [pc, #88]	; (8001324 <MX_TIM4_Init+0xc4>)
 80012ca:	f003 f9ab 	bl	8004624 <HAL_TIMEx_MasterConfigSynchronization>
 80012ce:	4603      	mov	r3, r0
 80012d0:	2b00      	cmp	r3, #0
 80012d2:	d001      	beq.n	80012d8 <MX_TIM4_Init+0x78>
  {
    Error_Handler();
 80012d4:	f000 f97a 	bl	80015cc <Error_Handler>
  }
  sConfigOC.OCMode = TIM_OCMODE_PWM1;
 80012d8:	2360      	movs	r3, #96	; 0x60
 80012da:	607b      	str	r3, [r7, #4]
  sConfigOC.Pulse = 0;
 80012dc:	2300      	movs	r3, #0
 80012de:	60bb      	str	r3, [r7, #8]
  sConfigOC.OCPolarity = TIM_OCPOLARITY_HIGH;
 80012e0:	2300      	movs	r3, #0
 80012e2:	60fb      	str	r3, [r7, #12]
  sConfigOC.OCFastMode = TIM_OCFAST_DISABLE;
 80012e4:	2300      	movs	r3, #0
 80012e6:	617b      	str	r3, [r7, #20]
  if (HAL_TIM_PWM_ConfigChannel(&htim4, &sConfigOC, TIM_CHANNEL_1) != HAL_OK)
 80012e8:	1d3b      	adds	r3, r7, #4
 80012ea:	2200      	movs	r2, #0
 80012ec:	4619      	mov	r1, r3
 80012ee:	480d      	ldr	r0, [pc, #52]	; (8001324 <MX_TIM4_Init+0xc4>)
 80012f0:	f002 fd10 	bl	8003d14 <HAL_TIM_PWM_ConfigChannel>
 80012f4:	4603      	mov	r3, r0
 80012f6:	2b00      	cmp	r3, #0
 80012f8:	d001      	beq.n	80012fe <MX_TIM4_Init+0x9e>
  {
    Error_Handler();
 80012fa:	f000 f967 	bl	80015cc <Error_Handler>
  }
  if (HAL_TIM_PWM_ConfigChannel(&htim4, &sConfigOC, TIM_CHANNEL_2) != HAL_OK)
 80012fe:	1d3b      	adds	r3, r7, #4
 8001300:	2204      	movs	r2, #4
 8001302:	4619      	mov	r1, r3
 8001304:	4807      	ldr	r0, [pc, #28]	; (8001324 <MX_TIM4_Init+0xc4>)
 8001306:	f002 fd05 	bl	8003d14 <HAL_TIM_PWM_ConfigChannel>
 800130a:	4603      	mov	r3, r0
 800130c:	2b00      	cmp	r3, #0
 800130e:	d001      	beq.n	8001314 <MX_TIM4_Init+0xb4>
  {
    Error_Handler();
 8001310:	f000 f95c 	bl	80015cc <Error_Handler>
  }
  /* USER CODE BEGIN TIM4_Init 2 */

  /* USER CODE END TIM4_Init 2 */
  HAL_TIM_MspPostInit(&htim4);
 8001314:	4803      	ldr	r0, [pc, #12]	; (8001324 <MX_TIM4_Init+0xc4>)
 8001316:	f000 fa85 	bl	8001824 <HAL_TIM_MspPostInit>

}
 800131a:	bf00      	nop
 800131c:	3728      	adds	r7, #40	; 0x28
 800131e:	46bd      	mov	sp, r7
 8001320:	bd80      	pop	{r7, pc}
 8001322:	bf00      	nop
 8001324:	200005ac 	.word	0x200005ac
 8001328:	40000800 	.word	0x40000800

0800132c <MX_TIM9_Init>:
  * @brief TIM9 Initialization Function
  * @param None
  * @retval None
  */
static void MX_TIM9_Init(void)
{
 800132c:	b580      	push	{r7, lr}
 800132e:	b084      	sub	sp, #16
 8001330:	af00      	add	r7, sp, #0

  /* USER CODE BEGIN TIM9_Init 0 */

  /* USER CODE END TIM9_Init 0 */

  TIM_ClockConfigTypeDef sClockSourceConfig = {0};
 8001332:	463b      	mov	r3, r7
 8001334:	2200      	movs	r2, #0
 8001336:	601a      	str	r2, [r3, #0]
 8001338:	605a      	str	r2, [r3, #4]
 800133a:	609a      	str	r2, [r3, #8]
 800133c:	60da      	str	r2, [r3, #12]

  /* USER CODE BEGIN TIM9_Init 1 */

  /* USER CODE END TIM9_Init 1 */
  htim9.Instance = TIM9;
 800133e:	4b16      	ldr	r3, [pc, #88]	; (8001398 <MX_TIM9_Init+0x6c>)
 8001340:	4a16      	ldr	r2, [pc, #88]	; (800139c <MX_TIM9_Init+0x70>)
 8001342:	601a      	str	r2, [r3, #0]
  htim9.Init.Prescaler = 9999;
 8001344:	4b14      	ldr	r3, [pc, #80]	; (8001398 <MX_TIM9_Init+0x6c>)
 8001346:	f242 720f 	movw	r2, #9999	; 0x270f
 800134a:	605a      	str	r2, [r3, #4]
  htim9.Init.CounterMode = TIM_COUNTERMODE_UP;
 800134c:	4b12      	ldr	r3, [pc, #72]	; (8001398 <MX_TIM9_Init+0x6c>)
 800134e:	2200      	movs	r2, #0
 8001350:	609a      	str	r2, [r3, #8]
  htim9.Init.Period = 9999;
 8001352:	4b11      	ldr	r3, [pc, #68]	; (8001398 <MX_TIM9_Init+0x6c>)
 8001354:	f242 720f 	movw	r2, #9999	; 0x270f
 8001358:	60da      	str	r2, [r3, #12]
  htim9.Init.ClockDivision = TIM_CLOCKDIVISION_DIV1;
 800135a:	4b0f      	ldr	r3, [pc, #60]	; (8001398 <MX_TIM9_Init+0x6c>)
 800135c:	2200      	movs	r2, #0
 800135e:	611a      	str	r2, [r3, #16]
  htim9.Init.AutoReloadPreload = TIM_AUTORELOAD_PRELOAD_DISABLE;
 8001360:	4b0d      	ldr	r3, [pc, #52]	; (8001398 <MX_TIM9_Init+0x6c>)
 8001362:	2200      	movs	r2, #0
 8001364:	619a      	str	r2, [r3, #24]
  if (HAL_TIM_Base_Init(&htim9) != HAL_OK)
 8001366:	480c      	ldr	r0, [pc, #48]	; (8001398 <MX_TIM9_Init+0x6c>)
 8001368:	f002 f9b6 	bl	80036d8 <HAL_TIM_Base_Init>
 800136c:	4603      	mov	r3, r0
 800136e:	2b00      	cmp	r3, #0
 8001370:	d001      	beq.n	8001376 <MX_TIM9_Init+0x4a>
  {
    Error_Handler();
 8001372:	f000 f92b 	bl	80015cc <Error_Handler>
  }
  sClockSourceConfig.ClockSource = TIM_CLOCKSOURCE_INTERNAL;
 8001376:	f44f 5380 	mov.w	r3, #4096	; 0x1000
 800137a:	603b      	str	r3, [r7, #0]
  if (HAL_TIM_ConfigClockSource(&htim9, &sClockSourceConfig) != HAL_OK)
 800137c:	463b      	mov	r3, r7
 800137e:	4619      	mov	r1, r3
 8001380:	4805      	ldr	r0, [pc, #20]	; (8001398 <MX_TIM9_Init+0x6c>)
 8001382:	f002 fd89 	bl	8003e98 <HAL_TIM_ConfigClockSource>
 8001386:	4603      	mov	r3, r0
 8001388:	2b00      	cmp	r3, #0
 800138a:	d001      	beq.n	8001390 <MX_TIM9_Init+0x64>
  {
    Error_Handler();
 800138c:	f000 f91e 	bl	80015cc <Error_Handler>
  }
  /* USER CODE BEGIN TIM9_Init 2 */

  /* USER CODE END TIM9_Init 2 */

}
 8001390:	bf00      	nop
 8001392:	3710      	adds	r7, #16
 8001394:	46bd      	mov	sp, r7
 8001396:	bd80      	pop	{r7, pc}
 8001398:	200005f4 	.word	0x200005f4
 800139c:	40014000 	.word	0x40014000

080013a0 <MX_USART1_UART_Init>:
  * @brief USART1 Initialization Function
  * @param None
  * @retval None
  */
static void MX_USART1_UART_Init(void)
{
 80013a0:	b580      	push	{r7, lr}
 80013a2:	af00      	add	r7, sp, #0
  /* USER CODE END USART1_Init 0 */

  /* USER CODE BEGIN USART1_Init 1 */

  /* USER CODE END USART1_Init 1 */
  huart1.Instance = USART1;
 80013a4:	4b11      	ldr	r3, [pc, #68]	; (80013ec <MX_USART1_UART_Init+0x4c>)
 80013a6:	4a12      	ldr	r2, [pc, #72]	; (80013f0 <MX_USART1_UART_Init+0x50>)
 80013a8:	601a      	str	r2, [r3, #0]
  huart1.Init.BaudRate = 38400;
 80013aa:	4b10      	ldr	r3, [pc, #64]	; (80013ec <MX_USART1_UART_Init+0x4c>)
 80013ac:	f44f 4216 	mov.w	r2, #38400	; 0x9600
 80013b0:	605a      	str	r2, [r3, #4]
  huart1.Init.WordLength = UART_WORDLENGTH_8B;
 80013b2:	4b0e      	ldr	r3, [pc, #56]	; (80013ec <MX_USART1_UART_Init+0x4c>)
 80013b4:	2200      	movs	r2, #0
 80013b6:	609a      	str	r2, [r3, #8]
  huart1.Init.StopBits = UART_STOPBITS_1;
 80013b8:	4b0c      	ldr	r3, [pc, #48]	; (80013ec <MX_USART1_UART_Init+0x4c>)
 80013ba:	2200      	movs	r2, #0
 80013bc:	60da      	str	r2, [r3, #12]
  huart1.Init.Parity = UART_PARITY_NONE;
 80013be:	4b0b      	ldr	r3, [pc, #44]	; (80013ec <MX_USART1_UART_Init+0x4c>)
 80013c0:	2200      	movs	r2, #0
 80013c2:	611a      	str	r2, [r3, #16]
  huart1.Init.Mode = UART_MODE_TX_RX;
 80013c4:	4b09      	ldr	r3, [pc, #36]	; (80013ec <MX_USART1_UART_Init+0x4c>)
 80013c6:	220c      	movs	r2, #12
 80013c8:	615a      	str	r2, [r3, #20]
  huart1.Init.HwFlowCtl = UART_HWCONTROL_NONE;
 80013ca:	4b08      	ldr	r3, [pc, #32]	; (80013ec <MX_USART1_UART_Init+0x4c>)
 80013cc:	2200      	movs	r2, #0
 80013ce:	619a      	str	r2, [r3, #24]
  huart1.Init.OverSampling = UART_OVERSAMPLING_16;
 80013d0:	4b06      	ldr	r3, [pc, #24]	; (80013ec <MX_USART1_UART_Init+0x4c>)
 80013d2:	2200      	movs	r2, #0
 80013d4:	61da      	str	r2, [r3, #28]
  if (HAL_UART_Init(&huart1) != HAL_OK)
 80013d6:	4805      	ldr	r0, [pc, #20]	; (80013ec <MX_USART1_UART_Init+0x4c>)
 80013d8:	f003 f9a6 	bl	8004728 <HAL_UART_Init>
 80013dc:	4603      	mov	r3, r0
 80013de:	2b00      	cmp	r3, #0
 80013e0:	d001      	beq.n	80013e6 <MX_USART1_UART_Init+0x46>
  {
    Error_Handler();
 80013e2:	f000 f8f3 	bl	80015cc <Error_Handler>
  }
  /* USER CODE BEGIN USART1_Init 2 */

  /* USER CODE END USART1_Init 2 */

}
 80013e6:	bf00      	nop
 80013e8:	bd80      	pop	{r7, pc}
 80013ea:	bf00      	nop
 80013ec:	2000063c 	.word	0x2000063c
 80013f0:	40011000 	.word	0x40011000

080013f4 <MX_USART2_UART_Init>:
  * @brief USART2 Initialization Function
  * @param None
  * @retval None
  */
static void MX_USART2_UART_Init(void)
{
 80013f4:	b580      	push	{r7, lr}
 80013f6:	af00      	add	r7, sp, #0
  /* USER CODE END USART2_Init 0 */

  /* USER CODE BEGIN USART2_Init 1 */

  /* USER CODE END USART2_Init 1 */
  huart2.Instance = USART2;
 80013f8:	4b11      	ldr	r3, [pc, #68]	; (8001440 <MX_USART2_UART_Init+0x4c>)
 80013fa:	4a12      	ldr	r2, [pc, #72]	; (8001444 <MX_USART2_UART_Init+0x50>)
 80013fc:	601a      	str	r2, [r3, #0]
  huart2.Init.BaudRate = 115200;
 80013fe:	4b10      	ldr	r3, [pc, #64]	; (8001440 <MX_USART2_UART_Init+0x4c>)
 8001400:	f44f 32e1 	mov.w	r2, #115200	; 0x1c200
 8001404:	605a      	str	r2, [r3, #4]
  huart2.Init.WordLength = UART_WORDLENGTH_8B;
 8001406:	4b0e      	ldr	r3, [pc, #56]	; (8001440 <MX_USART2_UART_Init+0x4c>)
 8001408:	2200      	movs	r2, #0
 800140a:	609a      	str	r2, [r3, #8]
  huart2.Init.StopBits = UART_STOPBITS_1;
 800140c:	4b0c      	ldr	r3, [pc, #48]	; (8001440 <MX_USART2_UART_Init+0x4c>)
 800140e:	2200      	movs	r2, #0
 8001410:	60da      	str	r2, [r3, #12]
  huart2.Init.Parity = UART_PARITY_NONE;
 8001412:	4b0b      	ldr	r3, [pc, #44]	; (8001440 <MX_USART2_UART_Init+0x4c>)
 8001414:	2200      	movs	r2, #0
 8001416:	611a      	str	r2, [r3, #16]
  huart2.Init.Mode = UART_MODE_TX_RX;
 8001418:	4b09      	ldr	r3, [pc, #36]	; (8001440 <MX_USART2_UART_Init+0x4c>)
 800141a:	220c      	movs	r2, #12
 800141c:	615a      	str	r2, [r3, #20]
  huart2.Init.HwFlowCtl = UART_HWCONTROL_NONE;
 800141e:	4b08      	ldr	r3, [pc, #32]	; (8001440 <MX_USART2_UART_Init+0x4c>)
 8001420:	2200      	movs	r2, #0
 8001422:	619a      	str	r2, [r3, #24]
  huart2.Init.OverSampling = UART_OVERSAMPLING_16;
 8001424:	4b06      	ldr	r3, [pc, #24]	; (8001440 <MX_USART2_UART_Init+0x4c>)
 8001426:	2200      	movs	r2, #0
 8001428:	61da      	str	r2, [r3, #28]
  if (HAL_UART_Init(&huart2) != HAL_OK)
 800142a:	4805      	ldr	r0, [pc, #20]	; (8001440 <MX_USART2_UART_Init+0x4c>)
 800142c:	f003 f97c 	bl	8004728 <HAL_UART_Init>
 8001430:	4603      	mov	r3, r0
 8001432:	2b00      	cmp	r3, #0
 8001434:	d001      	beq.n	800143a <MX_USART2_UART_Init+0x46>
  {
    Error_Handler();
 8001436:	f000 f8c9 	bl	80015cc <Error_Handler>
  }
  /* USER CODE BEGIN USART2_Init 2 */

  /* USER CODE END USART2_Init 2 */

}
 800143a:	bf00      	nop
 800143c:	bd80      	pop	{r7, pc}
 800143e:	bf00      	nop
 8001440:	20000680 	.word	0x20000680
 8001444:	40004400 	.word	0x40004400

08001448 <MX_GPIO_Init>:
  * @brief GPIO Initialization Function
  * @param None
  * @retval None
  */
static void MX_GPIO_Init(void)
{
 8001448:	b580      	push	{r7, lr}
 800144a:	b08a      	sub	sp, #40	; 0x28
 800144c:	af00      	add	r7, sp, #0
  GPIO_InitTypeDef GPIO_InitStruct = {0};
 800144e:	f107 0314 	add.w	r3, r7, #20
 8001452:	2200      	movs	r2, #0
 8001454:	601a      	str	r2, [r3, #0]
 8001456:	605a      	str	r2, [r3, #4]
 8001458:	609a      	str	r2, [r3, #8]
 800145a:	60da      	str	r2, [r3, #12]
 800145c:	611a      	str	r2, [r3, #16]

  /* GPIO Ports Clock Enable */
  __HAL_RCC_GPIOH_CLK_ENABLE();
 800145e:	2300      	movs	r3, #0
 8001460:	613b      	str	r3, [r7, #16]
 8001462:	4b56      	ldr	r3, [pc, #344]	; (80015bc <MX_GPIO_Init+0x174>)
 8001464:	6b1b      	ldr	r3, [r3, #48]	; 0x30
 8001466:	4a55      	ldr	r2, [pc, #340]	; (80015bc <MX_GPIO_Init+0x174>)
 8001468:	f043 0380 	orr.w	r3, r3, #128	; 0x80
 800146c:	6313      	str	r3, [r2, #48]	; 0x30
 800146e:	4b53      	ldr	r3, [pc, #332]	; (80015bc <MX_GPIO_Init+0x174>)
 8001470:	6b1b      	ldr	r3, [r3, #48]	; 0x30
 8001472:	f003 0380 	and.w	r3, r3, #128	; 0x80
 8001476:	613b      	str	r3, [r7, #16]
 8001478:	693b      	ldr	r3, [r7, #16]
  __HAL_RCC_GPIOA_CLK_ENABLE();
 800147a:	2300      	movs	r3, #0
 800147c:	60fb      	str	r3, [r7, #12]
 800147e:	4b4f      	ldr	r3, [pc, #316]	; (80015bc <MX_GPIO_Init+0x174>)
 8001480:	6b1b      	ldr	r3, [r3, #48]	; 0x30
 8001482:	4a4e      	ldr	r2, [pc, #312]	; (80015bc <MX_GPIO_Init+0x174>)
 8001484:	f043 0301 	orr.w	r3, r3, #1
 8001488:	6313      	str	r3, [r2, #48]	; 0x30
 800148a:	4b4c      	ldr	r3, [pc, #304]	; (80015bc <MX_GPIO_Init+0x174>)
 800148c:	6b1b      	ldr	r3, [r3, #48]	; 0x30
 800148e:	f003 0301 	and.w	r3, r3, #1
 8001492:	60fb      	str	r3, [r7, #12]
 8001494:	68fb      	ldr	r3, [r7, #12]
  __HAL_RCC_GPIOB_CLK_ENABLE();
 8001496:	2300      	movs	r3, #0
 8001498:	60bb      	str	r3, [r7, #8]
 800149a:	4b48      	ldr	r3, [pc, #288]	; (80015bc <MX_GPIO_Init+0x174>)
 800149c:	6b1b      	ldr	r3, [r3, #48]	; 0x30
 800149e:	4a47      	ldr	r2, [pc, #284]	; (80015bc <MX_GPIO_Init+0x174>)
 80014a0:	f043 0302 	orr.w	r3, r3, #2
 80014a4:	6313      	str	r3, [r2, #48]	; 0x30
 80014a6:	4b45      	ldr	r3, [pc, #276]	; (80015bc <MX_GPIO_Init+0x174>)
 80014a8:	6b1b      	ldr	r3, [r3, #48]	; 0x30
 80014aa:	f003 0302 	and.w	r3, r3, #2
 80014ae:	60bb      	str	r3, [r7, #8]
 80014b0:	68bb      	ldr	r3, [r7, #8]
  __HAL_RCC_GPIOC_CLK_ENABLE();
 80014b2:	2300      	movs	r3, #0
 80014b4:	607b      	str	r3, [r7, #4]
 80014b6:	4b41      	ldr	r3, [pc, #260]	; (80015bc <MX_GPIO_Init+0x174>)
 80014b8:	6b1b      	ldr	r3, [r3, #48]	; 0x30
 80014ba:	4a40      	ldr	r2, [pc, #256]	; (80015bc <MX_GPIO_Init+0x174>)
 80014bc:	f043 0304 	orr.w	r3, r3, #4
 80014c0:	6313      	str	r3, [r2, #48]	; 0x30
 80014c2:	4b3e      	ldr	r3, [pc, #248]	; (80015bc <MX_GPIO_Init+0x174>)
 80014c4:	6b1b      	ldr	r3, [r3, #48]	; 0x30
 80014c6:	f003 0304 	and.w	r3, r3, #4
 80014ca:	607b      	str	r3, [r7, #4]
 80014cc:	687b      	ldr	r3, [r7, #4]

  /*Configure GPIO pin Output Level */
  HAL_GPIO_WritePin(GPIOA, OLED_RS_Pin|OLED_DC_Pin, GPIO_PIN_RESET);
 80014ce:	2200      	movs	r2, #0
 80014d0:	2112      	movs	r1, #18
 80014d2:	483b      	ldr	r0, [pc, #236]	; (80015c0 <MX_GPIO_Init+0x178>)
 80014d4:	f000 fee6 	bl	80022a4 <HAL_GPIO_WritePin>

  /*Configure GPIO pin Output Level */
  HAL_GPIO_WritePin(OLED_CS_GPIO_Port, OLED_CS_Pin, GPIO_PIN_RESET);
 80014d8:	2200      	movs	r2, #0
 80014da:	2104      	movs	r1, #4
 80014dc:	4839      	ldr	r0, [pc, #228]	; (80015c4 <MX_GPIO_Init+0x17c>)
 80014de:	f000 fee1 	bl	80022a4 <HAL_GPIO_WritePin>

  /*Configure GPIO pin Output Level */
  HAL_GPIO_WritePin(GPIOB, TEMP_ADD_Pin|TEMP_ADU_Pin, GPIO_PIN_SET);
 80014e2:	2201      	movs	r2, #1
 80014e4:	f44f 41c0 	mov.w	r1, #24576	; 0x6000
 80014e8:	4836      	ldr	r0, [pc, #216]	; (80015c4 <MX_GPIO_Init+0x17c>)
 80014ea:	f000 fedb 	bl	80022a4 <HAL_GPIO_WritePin>

  /*Configure GPIO pin Output Level */
  HAL_GPIO_WritePin(DCFAN_GPIO_Port, DCFAN_Pin, GPIO_PIN_RESET);
 80014ee:	2200      	movs	r2, #0
 80014f0:	f44f 7100 	mov.w	r1, #512	; 0x200
 80014f4:	4834      	ldr	r0, [pc, #208]	; (80015c8 <MX_GPIO_Init+0x180>)
 80014f6:	f000 fed5 	bl	80022a4 <HAL_GPIO_WritePin>

  /*Configure GPIO pin Output Level */
  HAL_GPIO_WritePin(GPIOA, Motor2_Pin|Motor1_Pin|LAMP_Pin, GPIO_PIN_SET);
 80014fa:	2201      	movs	r2, #1
 80014fc:	f44f 6130 	mov.w	r1, #2816	; 0xb00
 8001500:	482f      	ldr	r0, [pc, #188]	; (80015c0 <MX_GPIO_Init+0x178>)
 8001502:	f000 fecf 	bl	80022a4 <HAL_GPIO_WritePin>

  /*Configure GPIO pins : OLED_RS_Pin OLED_DC_Pin */
  GPIO_InitStruct.Pin = OLED_RS_Pin|OLED_DC_Pin;
 8001506:	2312      	movs	r3, #18
 8001508:	617b      	str	r3, [r7, #20]
  GPIO_InitStruct.Mode = GPIO_MODE_OUTPUT_PP;
 800150a:	2301      	movs	r3, #1
 800150c:	61bb      	str	r3, [r7, #24]
  GPIO_InitStruct.Pull = GPIO_NOPULL;
 800150e:	2300      	movs	r3, #0
 8001510:	61fb      	str	r3, [r7, #28]
  GPIO_InitStruct.Speed = GPIO_SPEED_FREQ_LOW;
 8001512:	2300      	movs	r3, #0
 8001514:	623b      	str	r3, [r7, #32]
  HAL_GPIO_Init(GPIOA, &GPIO_InitStruct);
 8001516:	f107 0314 	add.w	r3, r7, #20
 800151a:	4619      	mov	r1, r3
 800151c:	4828      	ldr	r0, [pc, #160]	; (80015c0 <MX_GPIO_Init+0x178>)
 800151e:	f000 fd25 	bl	8001f6c <HAL_GPIO_Init>

  /*Configure GPIO pin : OLED_CS_Pin */
  GPIO_InitStruct.Pin = OLED_CS_Pin;
 8001522:	2304      	movs	r3, #4
 8001524:	617b      	str	r3, [r7, #20]
  GPIO_InitStruct.Mode = GPIO_MODE_OUTPUT_PP;
 8001526:	2301      	movs	r3, #1
 8001528:	61bb      	str	r3, [r7, #24]
  GPIO_InitStruct.Pull = GPIO_NOPULL;
 800152a:	2300      	movs	r3, #0
 800152c:	61fb      	str	r3, [r7, #28]
  GPIO_InitStruct.Speed = GPIO_SPEED_FREQ_LOW;
 800152e:	2300      	movs	r3, #0
 8001530:	623b      	str	r3, [r7, #32]
  HAL_GPIO_Init(OLED_CS_GPIO_Port, &GPIO_InitStruct);
 8001532:	f107 0314 	add.w	r3, r7, #20
 8001536:	4619      	mov	r1, r3
 8001538:	4822      	ldr	r0, [pc, #136]	; (80015c4 <MX_GPIO_Init+0x17c>)
 800153a:	f000 fd17 	bl	8001f6c <HAL_GPIO_Init>

  /*Configure GPIO pins : TEMP_ADD_Pin TEMP_ADU_Pin */
  GPIO_InitStruct.Pin = TEMP_ADD_Pin|TEMP_ADU_Pin;
 800153e:	f44f 43c0 	mov.w	r3, #24576	; 0x6000
 8001542:	617b      	str	r3, [r7, #20]
  GPIO_InitStruct.Mode = GPIO_MODE_OUTPUT_PP;
 8001544:	2301      	movs	r3, #1
 8001546:	61bb      	str	r3, [r7, #24]
  GPIO_InitStruct.Pull = GPIO_NOPULL;
 8001548:	2300      	movs	r3, #0
 800154a:	61fb      	str	r3, [r7, #28]
  GPIO_InitStruct.Speed = GPIO_SPEED_FREQ_VERY_HIGH;
 800154c:	2303      	movs	r3, #3
 800154e:	623b      	str	r3, [r7, #32]
  HAL_GPIO_Init(GPIOB, &GPIO_InitStruct);
 8001550:	f107 0314 	add.w	r3, r7, #20
 8001554:	4619      	mov	r1, r3
 8001556:	481b      	ldr	r0, [pc, #108]	; (80015c4 <MX_GPIO_Init+0x17c>)
 8001558:	f000 fd08 	bl	8001f6c <HAL_GPIO_Init>

  /*Configure GPIO pin : DCFAN_Pin */
  GPIO_InitStruct.Pin = DCFAN_Pin;
 800155c:	f44f 7300 	mov.w	r3, #512	; 0x200
 8001560:	617b      	str	r3, [r7, #20]
  GPIO_InitStruct.Mode = GPIO_MODE_OUTPUT_OD;
 8001562:	2311      	movs	r3, #17
 8001564:	61bb      	str	r3, [r7, #24]
  GPIO_InitStruct.Pull = GPIO_NOPULL;
 8001566:	2300      	movs	r3, #0
 8001568:	61fb      	str	r3, [r7, #28]
  GPIO_InitStruct.Speed = GPIO_SPEED_FREQ_LOW;
 800156a:	2300      	movs	r3, #0
 800156c:	623b      	str	r3, [r7, #32]
  HAL_GPIO_Init(DCFAN_GPIO_Port, &GPIO_InitStruct);
 800156e:	f107 0314 	add.w	r3, r7, #20
 8001572:	4619      	mov	r1, r3
 8001574:	4814      	ldr	r0, [pc, #80]	; (80015c8 <MX_GPIO_Init+0x180>)
 8001576:	f000 fcf9 	bl	8001f6c <HAL_GPIO_Init>

  /*Configure GPIO pins : Motor2_Pin Motor1_Pin LAMP_Pin */
  GPIO_InitStruct.Pin = Motor2_Pin|Motor1_Pin|LAMP_Pin;
 800157a:	f44f 6330 	mov.w	r3, #2816	; 0xb00
 800157e:	617b      	str	r3, [r7, #20]
  GPIO_InitStruct.Mode = GPIO_MODE_OUTPUT_OD;
 8001580:	2311      	movs	r3, #17
 8001582:	61bb      	str	r3, [r7, #24]
  GPIO_InitStruct.Pull = GPIO_NOPULL;
 8001584:	2300      	movs	r3, #0
 8001586:	61fb      	str	r3, [r7, #28]
  GPIO_InitStruct.Speed = GPIO_SPEED_FREQ_LOW;
 8001588:	2300      	movs	r3, #0
 800158a:	623b      	str	r3, [r7, #32]
  HAL_GPIO_Init(GPIOA, &GPIO_InitStruct);
 800158c:	f107 0314 	add.w	r3, r7, #20
 8001590:	4619      	mov	r1, r3
 8001592:	480b      	ldr	r0, [pc, #44]	; (80015c0 <MX_GPIO_Init+0x178>)
 8001594:	f000 fcea 	bl	8001f6c <HAL_GPIO_Init>

  /*Configure GPIO pins : SW1_Pin SW2_Pin SW3_Pin SW4_Pin
                           SW5_Pin */
  GPIO_InitStruct.Pin = SW1_Pin|SW2_Pin|SW3_Pin|SW4_Pin
 8001598:	f44f 734e 	mov.w	r3, #824	; 0x338
 800159c:	617b      	str	r3, [r7, #20]
                          |SW5_Pin;
  GPIO_InitStruct.Mode = GPIO_MODE_INPUT;
 800159e:	2300      	movs	r3, #0
 80015a0:	61bb      	str	r3, [r7, #24]
  GPIO_InitStruct.Pull = GPIO_PULLUP;
 80015a2:	2301      	movs	r3, #1
 80015a4:	61fb      	str	r3, [r7, #28]
  HAL_GPIO_Init(GPIOB, &GPIO_InitStruct);
 80015a6:	f107 0314 	add.w	r3, r7, #20
 80015aa:	4619      	mov	r1, r3
 80015ac:	4805      	ldr	r0, [pc, #20]	; (80015c4 <MX_GPIO_Init+0x17c>)
 80015ae:	f000 fcdd 	bl	8001f6c <HAL_GPIO_Init>

}
 80015b2:	bf00      	nop
 80015b4:	3728      	adds	r7, #40	; 0x28
 80015b6:	46bd      	mov	sp, r7
 80015b8:	bd80      	pop	{r7, pc}
 80015ba:	bf00      	nop
 80015bc:	40023800 	.word	0x40023800
 80015c0:	40020000 	.word	0x40020000
 80015c4:	40020400 	.word	0x40020400
 80015c8:	40020800 	.word	0x40020800

080015cc <Error_Handler>:
/**
  * @brief  This function is executed in case of error occurrence.
  * @retval None
  */
void Error_Handler(void)
{
 80015cc:	b480      	push	{r7}
 80015ce:	af00      	add	r7, sp, #0
  \details Disables IRQ interrupts by setting the I-bit in the CPSR.
           Can only be executed in Privileged modes.
 */
__STATIC_FORCEINLINE void __disable_irq(void)
{
  __ASM volatile ("cpsid i" : : : "memory");
 80015d0:	b672      	cpsid	i
}
 80015d2:	bf00      	nop
  /* USER CODE BEGIN Error_Handler_Debug */
  /* User can add his own implementation to report the HAL error return state */
  __disable_irq();
  while (1)
 80015d4:	e7fe      	b.n	80015d4 <Error_Handler+0x8>
	...

080015d8 <HAL_MspInit>:
void HAL_TIM_MspPostInit(TIM_HandleTypeDef *htim);
                                        /**
  * Initializes the Global MSP.
  */
void HAL_MspInit(void)
{
 80015d8:	b480      	push	{r7}
 80015da:	b083      	sub	sp, #12
 80015dc:	af00      	add	r7, sp, #0
  /* USER CODE BEGIN MspInit 0 */

  /* USER CODE END MspInit 0 */

  __HAL_RCC_SYSCFG_CLK_ENABLE();
 80015de:	2300      	movs	r3, #0
 80015e0:	607b      	str	r3, [r7, #4]
 80015e2:	4b10      	ldr	r3, [pc, #64]	; (8001624 <HAL_MspInit+0x4c>)
 80015e4:	6c5b      	ldr	r3, [r3, #68]	; 0x44
 80015e6:	4a0f      	ldr	r2, [pc, #60]	; (8001624 <HAL_MspInit+0x4c>)
 80015e8:	f443 4380 	orr.w	r3, r3, #16384	; 0x4000
 80015ec:	6453      	str	r3, [r2, #68]	; 0x44
 80015ee:	4b0d      	ldr	r3, [pc, #52]	; (8001624 <HAL_MspInit+0x4c>)
 80015f0:	6c5b      	ldr	r3, [r3, #68]	; 0x44
 80015f2:	f403 4380 	and.w	r3, r3, #16384	; 0x4000
 80015f6:	607b      	str	r3, [r7, #4]
 80015f8:	687b      	ldr	r3, [r7, #4]
  __HAL_RCC_PWR_CLK_ENABLE();
 80015fa:	2300      	movs	r3, #0
 80015fc:	603b      	str	r3, [r7, #0]
 80015fe:	4b09      	ldr	r3, [pc, #36]	; (8001624 <HAL_MspInit+0x4c>)
 8001600:	6c1b      	ldr	r3, [r3, #64]	; 0x40
 8001602:	4a08      	ldr	r2, [pc, #32]	; (8001624 <HAL_MspInit+0x4c>)
 8001604:	f043 5380 	orr.w	r3, r3, #268435456	; 0x10000000
 8001608:	6413      	str	r3, [r2, #64]	; 0x40
 800160a:	4b06      	ldr	r3, [pc, #24]	; (8001624 <HAL_MspInit+0x4c>)
 800160c:	6c1b      	ldr	r3, [r3, #64]	; 0x40
 800160e:	f003 5380 	and.w	r3, r3, #268435456	; 0x10000000
 8001612:	603b      	str	r3, [r7, #0]
 8001614:	683b      	ldr	r3, [r7, #0]
  /* System interrupt init*/

  /* USER CODE BEGIN MspInit 1 */

  /* USER CODE END MspInit 1 */
}
 8001616:	bf00      	nop
 8001618:	370c      	adds	r7, #12
 800161a:	46bd      	mov	sp, r7
 800161c:	f85d 7b04 	ldr.w	r7, [sp], #4
 8001620:	4770      	bx	lr
 8001622:	bf00      	nop
 8001624:	40023800 	.word	0x40023800

08001628 <HAL_SPI_MspInit>:
* This function configures the hardware resources used in this example
* @param hspi: SPI handle pointer
* @retval None
*/
void HAL_SPI_MspInit(SPI_HandleTypeDef* hspi)
{
 8001628:	b580      	push	{r7, lr}
 800162a:	b08c      	sub	sp, #48	; 0x30
 800162c:	af00      	add	r7, sp, #0
 800162e:	6078      	str	r0, [r7, #4]
  GPIO_InitTypeDef GPIO_InitStruct = {0};
 8001630:	f107 031c 	add.w	r3, r7, #28
 8001634:	2200      	movs	r2, #0
 8001636:	601a      	str	r2, [r3, #0]
 8001638:	605a      	str	r2, [r3, #4]
 800163a:	609a      	str	r2, [r3, #8]
 800163c:	60da      	str	r2, [r3, #12]
 800163e:	611a      	str	r2, [r3, #16]
  if(hspi->Instance==SPI2)
 8001640:	687b      	ldr	r3, [r7, #4]
 8001642:	681b      	ldr	r3, [r3, #0]
 8001644:	4a42      	ldr	r2, [pc, #264]	; (8001750 <HAL_SPI_MspInit+0x128>)
 8001646:	4293      	cmp	r3, r2
 8001648:	d12d      	bne.n	80016a6 <HAL_SPI_MspInit+0x7e>
  {
  /* USER CODE BEGIN SPI2_MspInit 0 */

  /* USER CODE END SPI2_MspInit 0 */
    /* Peripheral clock enable */
    __HAL_RCC_SPI2_CLK_ENABLE();
 800164a:	2300      	movs	r3, #0
 800164c:	61bb      	str	r3, [r7, #24]
 800164e:	4b41      	ldr	r3, [pc, #260]	; (8001754 <HAL_SPI_MspInit+0x12c>)
 8001650:	6c1b      	ldr	r3, [r3, #64]	; 0x40
 8001652:	4a40      	ldr	r2, [pc, #256]	; (8001754 <HAL_SPI_MspInit+0x12c>)
 8001654:	f443 4380 	orr.w	r3, r3, #16384	; 0x4000
 8001658:	6413      	str	r3, [r2, #64]	; 0x40
 800165a:	4b3e      	ldr	r3, [pc, #248]	; (8001754 <HAL_SPI_MspInit+0x12c>)
 800165c:	6c1b      	ldr	r3, [r3, #64]	; 0x40
 800165e:	f403 4380 	and.w	r3, r3, #16384	; 0x4000
 8001662:	61bb      	str	r3, [r7, #24]
 8001664:	69bb      	ldr	r3, [r7, #24]

    __HAL_RCC_GPIOB_CLK_ENABLE();
 8001666:	2300      	movs	r3, #0
 8001668:	617b      	str	r3, [r7, #20]
 800166a:	4b3a      	ldr	r3, [pc, #232]	; (8001754 <HAL_SPI_MspInit+0x12c>)
 800166c:	6b1b      	ldr	r3, [r3, #48]	; 0x30
 800166e:	4a39      	ldr	r2, [pc, #228]	; (8001754 <HAL_SPI_MspInit+0x12c>)
 8001670:	f043 0302 	orr.w	r3, r3, #2
 8001674:	6313      	str	r3, [r2, #48]	; 0x30
 8001676:	4b37      	ldr	r3, [pc, #220]	; (8001754 <HAL_SPI_MspInit+0x12c>)
 8001678:	6b1b      	ldr	r3, [r3, #48]	; 0x30
 800167a:	f003 0302 	and.w	r3, r3, #2
 800167e:	617b      	str	r3, [r7, #20]
 8001680:	697b      	ldr	r3, [r7, #20]
    /**SPI2 GPIO Configuration
    PB10     ------> SPI2_SCK
    PB15     ------> SPI2_MOSI
    */
    GPIO_InitStruct.Pin = OLED_SCK_Pin|OLED_MOSI_Pin;
 8001682:	f44f 4304 	mov.w	r3, #33792	; 0x8400
 8001686:	61fb      	str	r3, [r7, #28]
    GPIO_InitStruct.Mode = GPIO_MODE_AF_PP;
 8001688:	2302      	movs	r3, #2
 800168a:	623b      	str	r3, [r7, #32]
    GPIO_InitStruct.Pull = GPIO_NOPULL;
 800168c:	2300      	movs	r3, #0
 800168e:	627b      	str	r3, [r7, #36]	; 0x24
    GPIO_InitStruct.Speed = GPIO_SPEED_FREQ_VERY_HIGH;
 8001690:	2303      	movs	r3, #3
 8001692:	62bb      	str	r3, [r7, #40]	; 0x28
    GPIO_InitStruct.Alternate = GPIO_AF5_SPI2;
 8001694:	2305      	movs	r3, #5
 8001696:	62fb      	str	r3, [r7, #44]	; 0x2c
    HAL_GPIO_Init(GPIOB, &GPIO_InitStruct);
 8001698:	f107 031c 	add.w	r3, r7, #28
 800169c:	4619      	mov	r1, r3
 800169e:	482e      	ldr	r0, [pc, #184]	; (8001758 <HAL_SPI_MspInit+0x130>)
 80016a0:	f000 fc64 	bl	8001f6c <HAL_GPIO_Init>
  /* USER CODE BEGIN SPI3_MspInit 1 */

  /* USER CODE END SPI3_MspInit 1 */
  }

}
 80016a4:	e050      	b.n	8001748 <HAL_SPI_MspInit+0x120>
  else if(hspi->Instance==SPI3)
 80016a6:	687b      	ldr	r3, [r7, #4]
 80016a8:	681b      	ldr	r3, [r3, #0]
 80016aa:	4a2c      	ldr	r2, [pc, #176]	; (800175c <HAL_SPI_MspInit+0x134>)
 80016ac:	4293      	cmp	r3, r2
 80016ae:	d14b      	bne.n	8001748 <HAL_SPI_MspInit+0x120>
    __HAL_RCC_SPI3_CLK_ENABLE();
 80016b0:	2300      	movs	r3, #0
 80016b2:	613b      	str	r3, [r7, #16]
 80016b4:	4b27      	ldr	r3, [pc, #156]	; (8001754 <HAL_SPI_MspInit+0x12c>)
 80016b6:	6c1b      	ldr	r3, [r3, #64]	; 0x40
 80016b8:	4a26      	ldr	r2, [pc, #152]	; (8001754 <HAL_SPI_MspInit+0x12c>)
 80016ba:	f443 4300 	orr.w	r3, r3, #32768	; 0x8000
 80016be:	6413      	str	r3, [r2, #64]	; 0x40
 80016c0:	4b24      	ldr	r3, [pc, #144]	; (8001754 <HAL_SPI_MspInit+0x12c>)
 80016c2:	6c1b      	ldr	r3, [r3, #64]	; 0x40
 80016c4:	f403 4300 	and.w	r3, r3, #32768	; 0x8000
 80016c8:	613b      	str	r3, [r7, #16]
 80016ca:	693b      	ldr	r3, [r7, #16]
    __HAL_RCC_GPIOB_CLK_ENABLE();
 80016cc:	2300      	movs	r3, #0
 80016ce:	60fb      	str	r3, [r7, #12]
 80016d0:	4b20      	ldr	r3, [pc, #128]	; (8001754 <HAL_SPI_MspInit+0x12c>)
 80016d2:	6b1b      	ldr	r3, [r3, #48]	; 0x30
 80016d4:	4a1f      	ldr	r2, [pc, #124]	; (8001754 <HAL_SPI_MspInit+0x12c>)
 80016d6:	f043 0302 	orr.w	r3, r3, #2
 80016da:	6313      	str	r3, [r2, #48]	; 0x30
 80016dc:	4b1d      	ldr	r3, [pc, #116]	; (8001754 <HAL_SPI_MspInit+0x12c>)
 80016de:	6b1b      	ldr	r3, [r3, #48]	; 0x30
 80016e0:	f003 0302 	and.w	r3, r3, #2
 80016e4:	60fb      	str	r3, [r7, #12]
 80016e6:	68fb      	ldr	r3, [r7, #12]
    __HAL_RCC_GPIOC_CLK_ENABLE();
 80016e8:	2300      	movs	r3, #0
 80016ea:	60bb      	str	r3, [r7, #8]
 80016ec:	4b19      	ldr	r3, [pc, #100]	; (8001754 <HAL_SPI_MspInit+0x12c>)
 80016ee:	6b1b      	ldr	r3, [r3, #48]	; 0x30
 80016f0:	4a18      	ldr	r2, [pc, #96]	; (8001754 <HAL_SPI_MspInit+0x12c>)
 80016f2:	f043 0304 	orr.w	r3, r3, #4
 80016f6:	6313      	str	r3, [r2, #48]	; 0x30
 80016f8:	4b16      	ldr	r3, [pc, #88]	; (8001754 <HAL_SPI_MspInit+0x12c>)
 80016fa:	6b1b      	ldr	r3, [r3, #48]	; 0x30
 80016fc:	f003 0304 	and.w	r3, r3, #4
 8001700:	60bb      	str	r3, [r7, #8]
 8001702:	68bb      	ldr	r3, [r7, #8]
    GPIO_InitStruct.Pin = TEMP_SCK_Pin;
 8001704:	f44f 5380 	mov.w	r3, #4096	; 0x1000
 8001708:	61fb      	str	r3, [r7, #28]
    GPIO_InitStruct.Mode = GPIO_MODE_AF_PP;
 800170a:	2302      	movs	r3, #2
 800170c:	623b      	str	r3, [r7, #32]
    GPIO_InitStruct.Pull = GPIO_NOPULL;
 800170e:	2300      	movs	r3, #0
 8001710:	627b      	str	r3, [r7, #36]	; 0x24
    GPIO_InitStruct.Speed = GPIO_SPEED_FREQ_VERY_HIGH;
 8001712:	2303      	movs	r3, #3
 8001714:	62bb      	str	r3, [r7, #40]	; 0x28
    GPIO_InitStruct.Alternate = GPIO_AF7_SPI3;
 8001716:	2307      	movs	r3, #7
 8001718:	62fb      	str	r3, [r7, #44]	; 0x2c
    HAL_GPIO_Init(TEMP_SCK_GPIO_Port, &GPIO_InitStruct);
 800171a:	f107 031c 	add.w	r3, r7, #28
 800171e:	4619      	mov	r1, r3
 8001720:	480d      	ldr	r0, [pc, #52]	; (8001758 <HAL_SPI_MspInit+0x130>)
 8001722:	f000 fc23 	bl	8001f6c <HAL_GPIO_Init>
    GPIO_InitStruct.Pin = TEMP_SO_Pin;
 8001726:	f44f 6300 	mov.w	r3, #2048	; 0x800
 800172a:	61fb      	str	r3, [r7, #28]
    GPIO_InitStruct.Mode = GPIO_MODE_AF_PP;
 800172c:	2302      	movs	r3, #2
 800172e:	623b      	str	r3, [r7, #32]
    GPIO_InitStruct.Pull = GPIO_NOPULL;
 8001730:	2300      	movs	r3, #0
 8001732:	627b      	str	r3, [r7, #36]	; 0x24
    GPIO_InitStruct.Speed = GPIO_SPEED_FREQ_VERY_HIGH;
 8001734:	2303      	movs	r3, #3
 8001736:	62bb      	str	r3, [r7, #40]	; 0x28
    GPIO_InitStruct.Alternate = GPIO_AF6_SPI3;
 8001738:	2306      	movs	r3, #6
 800173a:	62fb      	str	r3, [r7, #44]	; 0x2c
    HAL_GPIO_Init(TEMP_SO_GPIO_Port, &GPIO_InitStruct);
 800173c:	f107 031c 	add.w	r3, r7, #28
 8001740:	4619      	mov	r1, r3
 8001742:	4807      	ldr	r0, [pc, #28]	; (8001760 <HAL_SPI_MspInit+0x138>)
 8001744:	f000 fc12 	bl	8001f6c <HAL_GPIO_Init>
}
 8001748:	bf00      	nop
 800174a:	3730      	adds	r7, #48	; 0x30
 800174c:	46bd      	mov	sp, r7
 800174e:	bd80      	pop	{r7, pc}
 8001750:	40003800 	.word	0x40003800
 8001754:	40023800 	.word	0x40023800
 8001758:	40020400 	.word	0x40020400
 800175c:	40003c00 	.word	0x40003c00
 8001760:	40020800 	.word	0x40020800

08001764 <HAL_TIM_Base_MspInit>:
* This function configures the hardware resources used in this example
* @param htim_base: TIM_Base handle pointer
* @retval None
*/
void HAL_TIM_Base_MspInit(TIM_HandleTypeDef* htim_base)
{
 8001764:	b580      	push	{r7, lr}
 8001766:	b084      	sub	sp, #16
 8001768:	af00      	add	r7, sp, #0
 800176a:	6078      	str	r0, [r7, #4]
  if(htim_base->Instance==TIM3)
 800176c:	687b      	ldr	r3, [r7, #4]
 800176e:	681b      	ldr	r3, [r3, #0]
 8001770:	4a18      	ldr	r2, [pc, #96]	; (80017d4 <HAL_TIM_Base_MspInit+0x70>)
 8001772:	4293      	cmp	r3, r2
 8001774:	d10e      	bne.n	8001794 <HAL_TIM_Base_MspInit+0x30>
  {
  /* USER CODE BEGIN TIM3_MspInit 0 */

  /* USER CODE END TIM3_MspInit 0 */
    /* Peripheral clock enable */
    __HAL_RCC_TIM3_CLK_ENABLE();
 8001776:	2300      	movs	r3, #0
 8001778:	60fb      	str	r3, [r7, #12]
 800177a:	4b17      	ldr	r3, [pc, #92]	; (80017d8 <HAL_TIM_Base_MspInit+0x74>)
 800177c:	6c1b      	ldr	r3, [r3, #64]	; 0x40
 800177e:	4a16      	ldr	r2, [pc, #88]	; (80017d8 <HAL_TIM_Base_MspInit+0x74>)
 8001780:	f043 0302 	orr.w	r3, r3, #2
 8001784:	6413      	str	r3, [r2, #64]	; 0x40
 8001786:	4b14      	ldr	r3, [pc, #80]	; (80017d8 <HAL_TIM_Base_MspInit+0x74>)
 8001788:	6c1b      	ldr	r3, [r3, #64]	; 0x40
 800178a:	f003 0302 	and.w	r3, r3, #2
 800178e:	60fb      	str	r3, [r7, #12]
 8001790:	68fb      	ldr	r3, [r7, #12]
  /* USER CODE BEGIN TIM9_MspInit 1 */

  /* USER CODE END TIM9_MspInit 1 */
  }

}
 8001792:	e01a      	b.n	80017ca <HAL_TIM_Base_MspInit+0x66>
  else if(htim_base->Instance==TIM9)
 8001794:	687b      	ldr	r3, [r7, #4]
 8001796:	681b      	ldr	r3, [r3, #0]
 8001798:	4a10      	ldr	r2, [pc, #64]	; (80017dc <HAL_TIM_Base_MspInit+0x78>)
 800179a:	4293      	cmp	r3, r2
 800179c:	d115      	bne.n	80017ca <HAL_TIM_Base_MspInit+0x66>
    __HAL_RCC_TIM9_CLK_ENABLE();
 800179e:	2300      	movs	r3, #0
 80017a0:	60bb      	str	r3, [r7, #8]
 80017a2:	4b0d      	ldr	r3, [pc, #52]	; (80017d8 <HAL_TIM_Base_MspInit+0x74>)
 80017a4:	6c5b      	ldr	r3, [r3, #68]	; 0x44
 80017a6:	4a0c      	ldr	r2, [pc, #48]	; (80017d8 <HAL_TIM_Base_MspInit+0x74>)
 80017a8:	f443 3380 	orr.w	r3, r3, #65536	; 0x10000
 80017ac:	6453      	str	r3, [r2, #68]	; 0x44
 80017ae:	4b0a      	ldr	r3, [pc, #40]	; (80017d8 <HAL_TIM_Base_MspInit+0x74>)
 80017b0:	6c5b      	ldr	r3, [r3, #68]	; 0x44
 80017b2:	f403 3380 	and.w	r3, r3, #65536	; 0x10000
 80017b6:	60bb      	str	r3, [r7, #8]
 80017b8:	68bb      	ldr	r3, [r7, #8]
    HAL_NVIC_SetPriority(TIM1_BRK_TIM9_IRQn, 0, 0);
 80017ba:	2200      	movs	r2, #0
 80017bc:	2100      	movs	r1, #0
 80017be:	2018      	movs	r0, #24
 80017c0:	f000 fb9d 	bl	8001efe <HAL_NVIC_SetPriority>
    HAL_NVIC_EnableIRQ(TIM1_BRK_TIM9_IRQn);
 80017c4:	2018      	movs	r0, #24
 80017c6:	f000 fbb6 	bl	8001f36 <HAL_NVIC_EnableIRQ>
}
 80017ca:	bf00      	nop
 80017cc:	3710      	adds	r7, #16
 80017ce:	46bd      	mov	sp, r7
 80017d0:	bd80      	pop	{r7, pc}
 80017d2:	bf00      	nop
 80017d4:	40000400 	.word	0x40000400
 80017d8:	40023800 	.word	0x40023800
 80017dc:	40014000 	.word	0x40014000

080017e0 <HAL_TIM_PWM_MspInit>:
* This function configures the hardware resources used in this example
* @param htim_pwm: TIM_PWM handle pointer
* @retval None
*/
void HAL_TIM_PWM_MspInit(TIM_HandleTypeDef* htim_pwm)
{
 80017e0:	b480      	push	{r7}
 80017e2:	b085      	sub	sp, #20
 80017e4:	af00      	add	r7, sp, #0
 80017e6:	6078      	str	r0, [r7, #4]
  if(htim_pwm->Instance==TIM4)
 80017e8:	687b      	ldr	r3, [r7, #4]
 80017ea:	681b      	ldr	r3, [r3, #0]
 80017ec:	4a0b      	ldr	r2, [pc, #44]	; (800181c <HAL_TIM_PWM_MspInit+0x3c>)
 80017ee:	4293      	cmp	r3, r2
 80017f0:	d10d      	bne.n	800180e <HAL_TIM_PWM_MspInit+0x2e>
  {
  /* USER CODE BEGIN TIM4_MspInit 0 */

  /* USER CODE END TIM4_MspInit 0 */
    /* Peripheral clock enable */
    __HAL_RCC_TIM4_CLK_ENABLE();
 80017f2:	2300      	movs	r3, #0
 80017f4:	60fb      	str	r3, [r7, #12]
 80017f6:	4b0a      	ldr	r3, [pc, #40]	; (8001820 <HAL_TIM_PWM_MspInit+0x40>)
 80017f8:	6c1b      	ldr	r3, [r3, #64]	; 0x40
 80017fa:	4a09      	ldr	r2, [pc, #36]	; (8001820 <HAL_TIM_PWM_MspInit+0x40>)
 80017fc:	f043 0304 	orr.w	r3, r3, #4
 8001800:	6413      	str	r3, [r2, #64]	; 0x40
 8001802:	4b07      	ldr	r3, [pc, #28]	; (8001820 <HAL_TIM_PWM_MspInit+0x40>)
 8001804:	6c1b      	ldr	r3, [r3, #64]	; 0x40
 8001806:	f003 0304 	and.w	r3, r3, #4
 800180a:	60fb      	str	r3, [r7, #12]
 800180c:	68fb      	ldr	r3, [r7, #12]
  /* USER CODE BEGIN TIM4_MspInit 1 */

  /* USER CODE END TIM4_MspInit 1 */
  }

}
 800180e:	bf00      	nop
 8001810:	3714      	adds	r7, #20
 8001812:	46bd      	mov	sp, r7
 8001814:	f85d 7b04 	ldr.w	r7, [sp], #4
 8001818:	4770      	bx	lr
 800181a:	bf00      	nop
 800181c:	40000800 	.word	0x40000800
 8001820:	40023800 	.word	0x40023800

08001824 <HAL_TIM_MspPostInit>:

void HAL_TIM_MspPostInit(TIM_HandleTypeDef* htim)
{
 8001824:	b580      	push	{r7, lr}
 8001826:	b08a      	sub	sp, #40	; 0x28
 8001828:	af00      	add	r7, sp, #0
 800182a:	6078      	str	r0, [r7, #4]
  GPIO_InitTypeDef GPIO_InitStruct = {0};
 800182c:	f107 0314 	add.w	r3, r7, #20
 8001830:	2200      	movs	r2, #0
 8001832:	601a      	str	r2, [r3, #0]
 8001834:	605a      	str	r2, [r3, #4]
 8001836:	609a      	str	r2, [r3, #8]
 8001838:	60da      	str	r2, [r3, #12]
 800183a:	611a      	str	r2, [r3, #16]
  if(htim->Instance==TIM3)
 800183c:	687b      	ldr	r3, [r7, #4]
 800183e:	681b      	ldr	r3, [r3, #0]
 8001840:	4a24      	ldr	r2, [pc, #144]	; (80018d4 <HAL_TIM_MspPostInit+0xb0>)
 8001842:	4293      	cmp	r3, r2
 8001844:	d11f      	bne.n	8001886 <HAL_TIM_MspPostInit+0x62>
  {
  /* USER CODE BEGIN TIM3_MspPostInit 0 */

  /* USER CODE END TIM3_MspPostInit 0 */
    __HAL_RCC_GPIOC_CLK_ENABLE();
 8001846:	2300      	movs	r3, #0
 8001848:	613b      	str	r3, [r7, #16]
 800184a:	4b23      	ldr	r3, [pc, #140]	; (80018d8 <HAL_TIM_MspPostInit+0xb4>)
 800184c:	6b1b      	ldr	r3, [r3, #48]	; 0x30
 800184e:	4a22      	ldr	r2, [pc, #136]	; (80018d8 <HAL_TIM_MspPostInit+0xb4>)
 8001850:	f043 0304 	orr.w	r3, r3, #4
 8001854:	6313      	str	r3, [r2, #48]	; 0x30
 8001856:	4b20      	ldr	r3, [pc, #128]	; (80018d8 <HAL_TIM_MspPostInit+0xb4>)
 8001858:	6b1b      	ldr	r3, [r3, #48]	; 0x30
 800185a:	f003 0304 	and.w	r3, r3, #4
 800185e:	613b      	str	r3, [r7, #16]
 8001860:	693b      	ldr	r3, [r7, #16]
    /**TIM3 GPIO Configuration
    PC7     ------> TIM3_CH2
    PC8     ------> TIM3_CH3
    */
    GPIO_InitStruct.Pin = Heater_Bottom_Pin|Heater_Top_Pin;
 8001862:	f44f 73c0 	mov.w	r3, #384	; 0x180
 8001866:	617b      	str	r3, [r7, #20]
    GPIO_InitStruct.Mode = GPIO_MODE_AF_OD;
 8001868:	2312      	movs	r3, #18
 800186a:	61bb      	str	r3, [r7, #24]
    GPIO_InitStruct.Pull = GPIO_NOPULL;
 800186c:	2300      	movs	r3, #0
 800186e:	61fb      	str	r3, [r7, #28]
    GPIO_InitStruct.Speed = GPIO_SPEED_FREQ_LOW;
 8001870:	2300      	movs	r3, #0
 8001872:	623b      	str	r3, [r7, #32]
    GPIO_InitStruct.Alternate = GPIO_AF2_TIM3;
 8001874:	2302      	movs	r3, #2
 8001876:	627b      	str	r3, [r7, #36]	; 0x24
    HAL_GPIO_Init(GPIOC, &GPIO_InitStruct);
 8001878:	f107 0314 	add.w	r3, r7, #20
 800187c:	4619      	mov	r1, r3
 800187e:	4817      	ldr	r0, [pc, #92]	; (80018dc <HAL_TIM_MspPostInit+0xb8>)
 8001880:	f000 fb74 	bl	8001f6c <HAL_GPIO_Init>
  /* USER CODE BEGIN TIM4_MspPostInit 1 */

  /* USER CODE END TIM4_MspPostInit 1 */
  }

}
 8001884:	e022      	b.n	80018cc <HAL_TIM_MspPostInit+0xa8>
  else if(htim->Instance==TIM4)
 8001886:	687b      	ldr	r3, [r7, #4]
 8001888:	681b      	ldr	r3, [r3, #0]
 800188a:	4a15      	ldr	r2, [pc, #84]	; (80018e0 <HAL_TIM_MspPostInit+0xbc>)
 800188c:	4293      	cmp	r3, r2
 800188e:	d11d      	bne.n	80018cc <HAL_TIM_MspPostInit+0xa8>
    __HAL_RCC_GPIOB_CLK_ENABLE();
 8001890:	2300      	movs	r3, #0
 8001892:	60fb      	str	r3, [r7, #12]
 8001894:	4b10      	ldr	r3, [pc, #64]	; (80018d8 <HAL_TIM_MspPostInit+0xb4>)
 8001896:	6b1b      	ldr	r3, [r3, #48]	; 0x30
 8001898:	4a0f      	ldr	r2, [pc, #60]	; (80018d8 <HAL_TIM_MspPostInit+0xb4>)
 800189a:	f043 0302 	orr.w	r3, r3, #2
 800189e:	6313      	str	r3, [r2, #48]	; 0x30
 80018a0:	4b0d      	ldr	r3, [pc, #52]	; (80018d8 <HAL_TIM_MspPostInit+0xb4>)
 80018a2:	6b1b      	ldr	r3, [r3, #48]	; 0x30
 80018a4:	f003 0302 	and.w	r3, r3, #2
 80018a8:	60fb      	str	r3, [r7, #12]
 80018aa:	68fb      	ldr	r3, [r7, #12]
    GPIO_InitStruct.Pin = LEDR_Pin|LEDB_Pin;
 80018ac:	23c0      	movs	r3, #192	; 0xc0
 80018ae:	617b      	str	r3, [r7, #20]
    GPIO_InitStruct.Mode = GPIO_MODE_AF_PP;
 80018b0:	2302      	movs	r3, #2
 80018b2:	61bb      	str	r3, [r7, #24]
    GPIO_InitStruct.Pull = GPIO_NOPULL;
 80018b4:	2300      	movs	r3, #0
 80018b6:	61fb      	str	r3, [r7, #28]
    GPIO_InitStruct.Speed = GPIO_SPEED_FREQ_LOW;
 80018b8:	2300      	movs	r3, #0
 80018ba:	623b      	str	r3, [r7, #32]
    GPIO_InitStruct.Alternate = GPIO_AF2_TIM4;
 80018bc:	2302      	movs	r3, #2
 80018be:	627b      	str	r3, [r7, #36]	; 0x24
    HAL_GPIO_Init(GPIOB, &GPIO_InitStruct);
 80018c0:	f107 0314 	add.w	r3, r7, #20
 80018c4:	4619      	mov	r1, r3
 80018c6:	4807      	ldr	r0, [pc, #28]	; (80018e4 <HAL_TIM_MspPostInit+0xc0>)
 80018c8:	f000 fb50 	bl	8001f6c <HAL_GPIO_Init>
}
 80018cc:	bf00      	nop
 80018ce:	3728      	adds	r7, #40	; 0x28
 80018d0:	46bd      	mov	sp, r7
 80018d2:	bd80      	pop	{r7, pc}
 80018d4:	40000400 	.word	0x40000400
 80018d8:	40023800 	.word	0x40023800
 80018dc:	40020800 	.word	0x40020800
 80018e0:	40000800 	.word	0x40000800
 80018e4:	40020400 	.word	0x40020400

080018e8 <HAL_UART_MspInit>:
* This function configures the hardware resources used in this example
* @param huart: UART handle pointer
* @retval None
*/
void HAL_UART_MspInit(UART_HandleTypeDef* huart)
{
 80018e8:	b580      	push	{r7, lr}
 80018ea:	b08c      	sub	sp, #48	; 0x30
 80018ec:	af00      	add	r7, sp, #0
 80018ee:	6078      	str	r0, [r7, #4]
  GPIO_InitTypeDef GPIO_InitStruct = {0};
 80018f0:	f107 031c 	add.w	r3, r7, #28
 80018f4:	2200      	movs	r2, #0
 80018f6:	601a      	str	r2, [r3, #0]
 80018f8:	605a      	str	r2, [r3, #4]
 80018fa:	609a      	str	r2, [r3, #8]
 80018fc:	60da      	str	r2, [r3, #12]
 80018fe:	611a      	str	r2, [r3, #16]
  if(huart->Instance==USART1)
 8001900:	687b      	ldr	r3, [r7, #4]
 8001902:	681b      	ldr	r3, [r3, #0]
 8001904:	4a32      	ldr	r2, [pc, #200]	; (80019d0 <HAL_UART_MspInit+0xe8>)
 8001906:	4293      	cmp	r3, r2
 8001908:	d12d      	bne.n	8001966 <HAL_UART_MspInit+0x7e>
  {
  /* USER CODE BEGIN USART1_MspInit 0 */

  /* USER CODE END USART1_MspInit 0 */
    /* Peripheral clock enable */
    __HAL_RCC_USART1_CLK_ENABLE();
 800190a:	2300      	movs	r3, #0
 800190c:	61bb      	str	r3, [r7, #24]
 800190e:	4b31      	ldr	r3, [pc, #196]	; (80019d4 <HAL_UART_MspInit+0xec>)
 8001910:	6c5b      	ldr	r3, [r3, #68]	; 0x44
 8001912:	4a30      	ldr	r2, [pc, #192]	; (80019d4 <HAL_UART_MspInit+0xec>)
 8001914:	f043 0310 	orr.w	r3, r3, #16
 8001918:	6453      	str	r3, [r2, #68]	; 0x44
 800191a:	4b2e      	ldr	r3, [pc, #184]	; (80019d4 <HAL_UART_MspInit+0xec>)
 800191c:	6c5b      	ldr	r3, [r3, #68]	; 0x44
 800191e:	f003 0310 	and.w	r3, r3, #16
 8001922:	61bb      	str	r3, [r7, #24]
 8001924:	69bb      	ldr	r3, [r7, #24]

    __HAL_RCC_GPIOA_CLK_ENABLE();
 8001926:	2300      	movs	r3, #0
 8001928:	617b      	str	r3, [r7, #20]
 800192a:	4b2a      	ldr	r3, [pc, #168]	; (80019d4 <HAL_UART_MspInit+0xec>)
 800192c:	6b1b      	ldr	r3, [r3, #48]	; 0x30
 800192e:	4a29      	ldr	r2, [pc, #164]	; (80019d4 <HAL_UART_MspInit+0xec>)
 8001930:	f043 0301 	orr.w	r3, r3, #1
 8001934:	6313      	str	r3, [r2, #48]	; 0x30
 8001936:	4b27      	ldr	r3, [pc, #156]	; (80019d4 <HAL_UART_MspInit+0xec>)
 8001938:	6b1b      	ldr	r3, [r3, #48]	; 0x30
 800193a:	f003 0301 	and.w	r3, r3, #1
 800193e:	617b      	str	r3, [r7, #20]
 8001940:	697b      	ldr	r3, [r7, #20]
    /**USART1 GPIO Configuration
    PA10     ------> USART1_RX
    PA15     ------> USART1_TX
    */
    GPIO_InitStruct.Pin = GPIO_PIN_10|GPIO_PIN_15;
 8001942:	f44f 4304 	mov.w	r3, #33792	; 0x8400
 8001946:	61fb      	str	r3, [r7, #28]
    GPIO_InitStruct.Mode = GPIO_MODE_AF_PP;
 8001948:	2302      	movs	r3, #2
 800194a:	623b      	str	r3, [r7, #32]
    GPIO_InitStruct.Pull = GPIO_NOPULL;
 800194c:	2300      	movs	r3, #0
 800194e:	627b      	str	r3, [r7, #36]	; 0x24
    GPIO_InitStruct.Speed = GPIO_SPEED_FREQ_VERY_HIGH;
 8001950:	2303      	movs	r3, #3
 8001952:	62bb      	str	r3, [r7, #40]	; 0x28
    GPIO_InitStruct.Alternate = GPIO_AF7_USART1;
 8001954:	2307      	movs	r3, #7
 8001956:	62fb      	str	r3, [r7, #44]	; 0x2c
    HAL_GPIO_Init(GPIOA, &GPIO_InitStruct);
 8001958:	f107 031c 	add.w	r3, r7, #28
 800195c:	4619      	mov	r1, r3
 800195e:	481e      	ldr	r0, [pc, #120]	; (80019d8 <HAL_UART_MspInit+0xf0>)
 8001960:	f000 fb04 	bl	8001f6c <HAL_GPIO_Init>
  /* USER CODE BEGIN USART2_MspInit 1 */

  /* USER CODE END USART2_MspInit 1 */
  }

}
 8001964:	e030      	b.n	80019c8 <HAL_UART_MspInit+0xe0>
  else if(huart->Instance==USART2)
 8001966:	687b      	ldr	r3, [r7, #4]
 8001968:	681b      	ldr	r3, [r3, #0]
 800196a:	4a1c      	ldr	r2, [pc, #112]	; (80019dc <HAL_UART_MspInit+0xf4>)
 800196c:	4293      	cmp	r3, r2
 800196e:	d12b      	bne.n	80019c8 <HAL_UART_MspInit+0xe0>
    __HAL_RCC_USART2_CLK_ENABLE();
 8001970:	2300      	movs	r3, #0
 8001972:	613b      	str	r3, [r7, #16]
 8001974:	4b17      	ldr	r3, [pc, #92]	; (80019d4 <HAL_UART_MspInit+0xec>)
 8001976:	6c1b      	ldr	r3, [r3, #64]	; 0x40
 8001978:	4a16      	ldr	r2, [pc, #88]	; (80019d4 <HAL_UART_MspInit+0xec>)
 800197a:	f443 3300 	orr.w	r3, r3, #131072	; 0x20000
 800197e:	6413      	str	r3, [r2, #64]	; 0x40
 8001980:	4b14      	ldr	r3, [pc, #80]	; (80019d4 <HAL_UART_MspInit+0xec>)
 8001982:	6c1b      	ldr	r3, [r3, #64]	; 0x40
 8001984:	f403 3300 	and.w	r3, r3, #131072	; 0x20000
 8001988:	613b      	str	r3, [r7, #16]
 800198a:	693b      	ldr	r3, [r7, #16]
    __HAL_RCC_GPIOA_CLK_ENABLE();
 800198c:	2300      	movs	r3, #0
 800198e:	60fb      	str	r3, [r7, #12]
 8001990:	4b10      	ldr	r3, [pc, #64]	; (80019d4 <HAL_UART_MspInit+0xec>)
 8001992:	6b1b      	ldr	r3, [r3, #48]	; 0x30
 8001994:	4a0f      	ldr	r2, [pc, #60]	; (80019d4 <HAL_UART_MspInit+0xec>)
 8001996:	f043 0301 	orr.w	r3, r3, #1
 800199a:	6313      	str	r3, [r2, #48]	; 0x30
 800199c:	4b0d      	ldr	r3, [pc, #52]	; (80019d4 <HAL_UART_MspInit+0xec>)
 800199e:	6b1b      	ldr	r3, [r3, #48]	; 0x30
 80019a0:	f003 0301 	and.w	r3, r3, #1
 80019a4:	60fb      	str	r3, [r7, #12]
 80019a6:	68fb      	ldr	r3, [r7, #12]
    GPIO_InitStruct.Pin = USART_TX_Pin|USART_RX_Pin;
 80019a8:	230c      	movs	r3, #12
 80019aa:	61fb      	str	r3, [r7, #28]
    GPIO_InitStruct.Mode = GPIO_MODE_AF_PP;
 80019ac:	2302      	movs	r3, #2
 80019ae:	623b      	str	r3, [r7, #32]
    GPIO_InitStruct.Pull = GPIO_NOPULL;
 80019b0:	2300      	movs	r3, #0
 80019b2:	627b      	str	r3, [r7, #36]	; 0x24
    GPIO_InitStruct.Speed = GPIO_SPEED_FREQ_VERY_HIGH;
 80019b4:	2303      	movs	r3, #3
 80019b6:	62bb      	str	r3, [r7, #40]	; 0x28
    GPIO_InitStruct.Alternate = GPIO_AF7_USART2;
 80019b8:	2307      	movs	r3, #7
 80019ba:	62fb      	str	r3, [r7, #44]	; 0x2c
    HAL_GPIO_Init(GPIOA, &GPIO_InitStruct);
 80019bc:	f107 031c 	add.w	r3, r7, #28
 80019c0:	4619      	mov	r1, r3
 80019c2:	4805      	ldr	r0, [pc, #20]	; (80019d8 <HAL_UART_MspInit+0xf0>)
 80019c4:	f000 fad2 	bl	8001f6c <HAL_GPIO_Init>
}
 80019c8:	bf00      	nop
 80019ca:	3730      	adds	r7, #48	; 0x30
 80019cc:	46bd      	mov	sp, r7
 80019ce:	bd80      	pop	{r7, pc}
 80019d0:	40011000 	.word	0x40011000
 80019d4:	40023800 	.word	0x40023800
 80019d8:	40020000 	.word	0x40020000
 80019dc:	40004400 	.word	0x40004400

080019e0 <NMI_Handler>:
/******************************************************************************/
/**
  * @brief This function handles Non maskable interrupt.
  */
void NMI_Handler(void)
{
 80019e0:	b480      	push	{r7}
 80019e2:	af00      	add	r7, sp, #0
  /* USER CODE BEGIN NonMaskableInt_IRQn 0 */

  /* USER CODE END NonMaskableInt_IRQn 0 */
  /* USER CODE BEGIN NonMaskableInt_IRQn 1 */
  while (1)
 80019e4:	e7fe      	b.n	80019e4 <NMI_Handler+0x4>

080019e6 <HardFault_Handler>:

/**
  * @brief This function handles Hard fault interrupt.
  */
void HardFault_Handler(void)
{
 80019e6:	b480      	push	{r7}
 80019e8:	af00      	add	r7, sp, #0
  /* USER CODE BEGIN HardFault_IRQn 0 */

  /* USER CODE END HardFault_IRQn 0 */
  while (1)
 80019ea:	e7fe      	b.n	80019ea <HardFault_Handler+0x4>

080019ec <MemManage_Handler>:

/**
  * @brief This function handles Memory management fault.
  */
void MemManage_Handler(void)
{
 80019ec:	b480      	push	{r7}
 80019ee:	af00      	add	r7, sp, #0
  /* USER CODE BEGIN MemoryManagement_IRQn 0 */

  /* USER CODE END MemoryManagement_IRQn 0 */
  while (1)
 80019f0:	e7fe      	b.n	80019f0 <MemManage_Handler+0x4>

080019f2 <BusFault_Handler>:

/**
  * @brief This function handles Pre-fetch fault, memory access fault.
  */
void BusFault_Handler(void)
{
 80019f2:	b480      	push	{r7}
 80019f4:	af00      	add	r7, sp, #0
  /* USER CODE BEGIN BusFault_IRQn 0 */

  /* USER CODE END BusFault_IRQn 0 */
  while (1)
 80019f6:	e7fe      	b.n	80019f6 <BusFault_Handler+0x4>

080019f8 <UsageFault_Handler>:

/**
  * @brief This function handles Undefined instruction or illegal state.
  */
void UsageFault_Handler(void)
{
 80019f8:	b480      	push	{r7}
 80019fa:	af00      	add	r7, sp, #0
  /* USER CODE BEGIN UsageFault_IRQn 0 */

  /* USER CODE END UsageFault_IRQn 0 */
  while (1)
 80019fc:	e7fe      	b.n	80019fc <UsageFault_Handler+0x4>

080019fe <SVC_Handler>:

/**
  * @brief This function handles System service call via SWI instruction.
  */
void SVC_Handler(void)
{
 80019fe:	b480      	push	{r7}
 8001a00:	af00      	add	r7, sp, #0

  /* USER CODE END SVCall_IRQn 0 */
  /* USER CODE BEGIN SVCall_IRQn 1 */

  /* USER CODE END SVCall_IRQn 1 */
}
 8001a02:	bf00      	nop
 8001a04:	46bd      	mov	sp, r7
 8001a06:	f85d 7b04 	ldr.w	r7, [sp], #4
 8001a0a:	4770      	bx	lr

08001a0c <DebugMon_Handler>:

/**
  * @brief This function handles Debug monitor.
  */
void DebugMon_Handler(void)
{
 8001a0c:	b480      	push	{r7}
 8001a0e:	af00      	add	r7, sp, #0

  /* USER CODE END DebugMonitor_IRQn 0 */
  /* USER CODE BEGIN DebugMonitor_IRQn 1 */

  /* USER CODE END DebugMonitor_IRQn 1 */
}
 8001a10:	bf00      	nop
 8001a12:	46bd      	mov	sp, r7
 8001a14:	f85d 7b04 	ldr.w	r7, [sp], #4
 8001a18:	4770      	bx	lr

08001a1a <PendSV_Handler>:

/**
  * @brief This function handles Pendable request for system service.
  */
void PendSV_Handler(void)
{
 8001a1a:	b480      	push	{r7}
 8001a1c:	af00      	add	r7, sp, #0

  /* USER CODE END PendSV_IRQn 0 */
  /* USER CODE BEGIN PendSV_IRQn 1 */

  /* USER CODE END PendSV_IRQn 1 */
}
 8001a1e:	bf00      	nop
 8001a20:	46bd      	mov	sp, r7
 8001a22:	f85d 7b04 	ldr.w	r7, [sp], #4
 8001a26:	4770      	bx	lr

08001a28 <SysTick_Handler>:

/**
  * @brief This function handles System tick timer.
  */
void SysTick_Handler(void)
{
 8001a28:	b580      	push	{r7, lr}
 8001a2a:	af00      	add	r7, sp, #0
  /* USER CODE BEGIN SysTick_IRQn 0 */
  Systick_Sensor_IRQ();
 8001a2c:	f004 fd42 	bl	80064b4 <Systick_Sensor_IRQ>
  /* USER CODE END SysTick_IRQn 0 */
  HAL_IncTick();
 8001a30:	f000 f946 	bl	8001cc0 <HAL_IncTick>
  /* USER CODE BEGIN SysTick_IRQn 1 */

  /* USER CODE END SysTick_IRQn 1 */
}
 8001a34:	bf00      	nop
 8001a36:	bd80      	pop	{r7, pc}

08001a38 <TIM1_BRK_TIM9_IRQHandler>:

/**
  * @brief This function handles TIM1 break interrupt and TIM9 global interrupt.
  */
void TIM1_BRK_TIM9_IRQHandler(void)
{
 8001a38:	b580      	push	{r7, lr}
 8001a3a:	af00      	add	r7, sp, #0
  /* USER CODE BEGIN TIM1_BRK_TIM9_IRQn 0 */
  HeaterControl_TIM9_IRQ();
 8001a3c:	f004 fb60 	bl	8006100 <HeaterControl_TIM9_IRQ>
  /* USER CODE END TIM1_BRK_TIM9_IRQn 0 */
  HAL_TIM_IRQHandler(&htim9);
 8001a40:	4802      	ldr	r0, [pc, #8]	; (8001a4c <TIM1_BRK_TIM9_IRQHandler+0x14>)
 8001a42:	f002 f85f 	bl	8003b04 <HAL_TIM_IRQHandler>
  /* USER CODE BEGIN TIM1_BRK_TIM9_IRQn 1 */

  /* USER CODE END TIM1_BRK_TIM9_IRQn 1 */
}
 8001a46:	bf00      	nop
 8001a48:	bd80      	pop	{r7, pc}
 8001a4a:	bf00      	nop
 8001a4c:	200005f4 	.word	0x200005f4

08001a50 <_getpid>:
void initialise_monitor_handles()
{
}

int _getpid(void)
{
 8001a50:	b480      	push	{r7}
 8001a52:	af00      	add	r7, sp, #0
	return 1;
 8001a54:	2301      	movs	r3, #1
}
 8001a56:	4618      	mov	r0, r3
 8001a58:	46bd      	mov	sp, r7
 8001a5a:	f85d 7b04 	ldr.w	r7, [sp], #4
 8001a5e:	4770      	bx	lr

08001a60 <_kill>:

int _kill(int pid, int sig)
{
 8001a60:	b580      	push	{r7, lr}
 8001a62:	b082      	sub	sp, #8
 8001a64:	af00      	add	r7, sp, #0
 8001a66:	6078      	str	r0, [r7, #4]
 8001a68:	6039      	str	r1, [r7, #0]
	errno = EINVAL;
 8001a6a:	f005 faf7 	bl	800705c <__errno>
 8001a6e:	4603      	mov	r3, r0
 8001a70:	2216      	movs	r2, #22
 8001a72:	601a      	str	r2, [r3, #0]
	return -1;
 8001a74:	f04f 33ff 	mov.w	r3, #4294967295
}
 8001a78:	4618      	mov	r0, r3
 8001a7a:	3708      	adds	r7, #8
 8001a7c:	46bd      	mov	sp, r7
 8001a7e:	bd80      	pop	{r7, pc}

08001a80 <_exit>:

void _exit (int status)
{
 8001a80:	b580      	push	{r7, lr}
 8001a82:	b082      	sub	sp, #8
 8001a84:	af00      	add	r7, sp, #0
 8001a86:	6078      	str	r0, [r7, #4]
	_kill(status, -1);
 8001a88:	f04f 31ff 	mov.w	r1, #4294967295
 8001a8c:	6878      	ldr	r0, [r7, #4]
 8001a8e:	f7ff ffe7 	bl	8001a60 <_kill>
	while (1) {}		/* Make sure we hang here */
 8001a92:	e7fe      	b.n	8001a92 <_exit+0x12>

08001a94 <_read>:
}

__attribute__((weak)) int _read(int file, char *ptr, int len)
{
 8001a94:	b580      	push	{r7, lr}
 8001a96:	b086      	sub	sp, #24
 8001a98:	af00      	add	r7, sp, #0
 8001a9a:	60f8      	str	r0, [r7, #12]
 8001a9c:	60b9      	str	r1, [r7, #8]
 8001a9e:	607a      	str	r2, [r7, #4]
	int DataIdx;

	for (DataIdx = 0; DataIdx < len; DataIdx++)
 8001aa0:	2300      	movs	r3, #0
 8001aa2:	617b      	str	r3, [r7, #20]
 8001aa4:	e00a      	b.n	8001abc <_read+0x28>
	{
		*ptr++ = __io_getchar();
 8001aa6:	f3af 8000 	nop.w
 8001aaa:	4601      	mov	r1, r0
 8001aac:	68bb      	ldr	r3, [r7, #8]
 8001aae:	1c5a      	adds	r2, r3, #1
 8001ab0:	60ba      	str	r2, [r7, #8]
 8001ab2:	b2ca      	uxtb	r2, r1
 8001ab4:	701a      	strb	r2, [r3, #0]
	for (DataIdx = 0; DataIdx < len; DataIdx++)
 8001ab6:	697b      	ldr	r3, [r7, #20]
 8001ab8:	3301      	adds	r3, #1
 8001aba:	617b      	str	r3, [r7, #20]
 8001abc:	697a      	ldr	r2, [r7, #20]
 8001abe:	687b      	ldr	r3, [r7, #4]
 8001ac0:	429a      	cmp	r2, r3
 8001ac2:	dbf0      	blt.n	8001aa6 <_read+0x12>
	}

return len;
 8001ac4:	687b      	ldr	r3, [r7, #4]
}
 8001ac6:	4618      	mov	r0, r3
 8001ac8:	3718      	adds	r7, #24
 8001aca:	46bd      	mov	sp, r7
 8001acc:	bd80      	pop	{r7, pc}

08001ace <_close>:
	}
	return len;
}

int _close(int file)
{
 8001ace:	b480      	push	{r7}
 8001ad0:	b083      	sub	sp, #12
 8001ad2:	af00      	add	r7, sp, #0
 8001ad4:	6078      	str	r0, [r7, #4]
	return -1;
 8001ad6:	f04f 33ff 	mov.w	r3, #4294967295
}
 8001ada:	4618      	mov	r0, r3
 8001adc:	370c      	adds	r7, #12
 8001ade:	46bd      	mov	sp, r7
 8001ae0:	f85d 7b04 	ldr.w	r7, [sp], #4
 8001ae4:	4770      	bx	lr

08001ae6 <_fstat>:


int _fstat(int file, struct stat *st)
{
 8001ae6:	b480      	push	{r7}
 8001ae8:	b083      	sub	sp, #12
 8001aea:	af00      	add	r7, sp, #0
 8001aec:	6078      	str	r0, [r7, #4]
 8001aee:	6039      	str	r1, [r7, #0]
	st->st_mode = S_IFCHR;
 8001af0:	683b      	ldr	r3, [r7, #0]
 8001af2:	f44f 5200 	mov.w	r2, #8192	; 0x2000
 8001af6:	605a      	str	r2, [r3, #4]
	return 0;
 8001af8:	2300      	movs	r3, #0
}
 8001afa:	4618      	mov	r0, r3
 8001afc:	370c      	adds	r7, #12
 8001afe:	46bd      	mov	sp, r7
 8001b00:	f85d 7b04 	ldr.w	r7, [sp], #4
 8001b04:	4770      	bx	lr

08001b06 <_isatty>:

int _isatty(int file)
{
 8001b06:	b480      	push	{r7}
 8001b08:	b083      	sub	sp, #12
 8001b0a:	af00      	add	r7, sp, #0
 8001b0c:	6078      	str	r0, [r7, #4]
	return 1;
 8001b0e:	2301      	movs	r3, #1
}
 8001b10:	4618      	mov	r0, r3
 8001b12:	370c      	adds	r7, #12
 8001b14:	46bd      	mov	sp, r7
 8001b16:	f85d 7b04 	ldr.w	r7, [sp], #4
 8001b1a:	4770      	bx	lr

08001b1c <_lseek>:

int _lseek(int file, int ptr, int dir)
{
 8001b1c:	b480      	push	{r7}
 8001b1e:	b085      	sub	sp, #20
 8001b20:	af00      	add	r7, sp, #0
 8001b22:	60f8      	str	r0, [r7, #12]
 8001b24:	60b9      	str	r1, [r7, #8]
 8001b26:	607a      	str	r2, [r7, #4]
	return 0;
 8001b28:	2300      	movs	r3, #0
}
 8001b2a:	4618      	mov	r0, r3
 8001b2c:	3714      	adds	r7, #20
 8001b2e:	46bd      	mov	sp, r7
 8001b30:	f85d 7b04 	ldr.w	r7, [sp], #4
 8001b34:	4770      	bx	lr
	...

08001b38 <_sbrk>:
 *
 * @param incr Memory size
 * @return Pointer to allocated memory
 */
void *_sbrk(ptrdiff_t incr)
{
 8001b38:	b580      	push	{r7, lr}
 8001b3a:	b086      	sub	sp, #24
 8001b3c:	af00      	add	r7, sp, #0
 8001b3e:	6078      	str	r0, [r7, #4]
  extern uint8_t _end; /* Symbol defined in the linker script */
  extern uint8_t _estack; /* Symbol defined in the linker script */
  extern uint32_t _Min_Stack_Size; /* Symbol defined in the linker script */
  const uint32_t stack_limit = (uint32_t)&_estack - (uint32_t)&_Min_Stack_Size;
 8001b40:	4a14      	ldr	r2, [pc, #80]	; (8001b94 <_sbrk+0x5c>)
 8001b42:	4b15      	ldr	r3, [pc, #84]	; (8001b98 <_sbrk+0x60>)
 8001b44:	1ad3      	subs	r3, r2, r3
 8001b46:	617b      	str	r3, [r7, #20]
  const uint8_t *max_heap = (uint8_t *)stack_limit;
 8001b48:	697b      	ldr	r3, [r7, #20]
 8001b4a:	613b      	str	r3, [r7, #16]
  uint8_t *prev_heap_end;

  /* Initialize heap end at first call */
  if (NULL == __sbrk_heap_end)
 8001b4c:	4b13      	ldr	r3, [pc, #76]	; (8001b9c <_sbrk+0x64>)
 8001b4e:	681b      	ldr	r3, [r3, #0]
 8001b50:	2b00      	cmp	r3, #0
 8001b52:	d102      	bne.n	8001b5a <_sbrk+0x22>
  {
    __sbrk_heap_end = &_end;
 8001b54:	4b11      	ldr	r3, [pc, #68]	; (8001b9c <_sbrk+0x64>)
 8001b56:	4a12      	ldr	r2, [pc, #72]	; (8001ba0 <_sbrk+0x68>)
 8001b58:	601a      	str	r2, [r3, #0]
  }

  /* Protect heap from growing into the reserved MSP stack */
  if (__sbrk_heap_end + incr > max_heap)
 8001b5a:	4b10      	ldr	r3, [pc, #64]	; (8001b9c <_sbrk+0x64>)
 8001b5c:	681a      	ldr	r2, [r3, #0]
 8001b5e:	687b      	ldr	r3, [r7, #4]
 8001b60:	4413      	add	r3, r2
 8001b62:	693a      	ldr	r2, [r7, #16]
 8001b64:	429a      	cmp	r2, r3
 8001b66:	d207      	bcs.n	8001b78 <_sbrk+0x40>
  {
    errno = ENOMEM;
 8001b68:	f005 fa78 	bl	800705c <__errno>
 8001b6c:	4603      	mov	r3, r0
 8001b6e:	220c      	movs	r2, #12
 8001b70:	601a      	str	r2, [r3, #0]
    return (void *)-1;
 8001b72:	f04f 33ff 	mov.w	r3, #4294967295
 8001b76:	e009      	b.n	8001b8c <_sbrk+0x54>
  }

  prev_heap_end = __sbrk_heap_end;
 8001b78:	4b08      	ldr	r3, [pc, #32]	; (8001b9c <_sbrk+0x64>)
 8001b7a:	681b      	ldr	r3, [r3, #0]
 8001b7c:	60fb      	str	r3, [r7, #12]
  __sbrk_heap_end += incr;
 8001b7e:	4b07      	ldr	r3, [pc, #28]	; (8001b9c <_sbrk+0x64>)
 8001b80:	681a      	ldr	r2, [r3, #0]
 8001b82:	687b      	ldr	r3, [r7, #4]
 8001b84:	4413      	add	r3, r2
 8001b86:	4a05      	ldr	r2, [pc, #20]	; (8001b9c <_sbrk+0x64>)
 8001b88:	6013      	str	r3, [r2, #0]

  return (void *)prev_heap_end;
 8001b8a:	68fb      	ldr	r3, [r7, #12]
}
 8001b8c:	4618      	mov	r0, r3
 8001b8e:	3718      	adds	r7, #24
 8001b90:	46bd      	mov	sp, r7
 8001b92:	bd80      	pop	{r7, pc}
 8001b94:	20020000 	.word	0x20020000
 8001b98:	00000400 	.word	0x00000400
 8001b9c:	200006d4 	.word	0x200006d4
 8001ba0:	20000710 	.word	0x20000710

08001ba4 <SystemInit>:
  *         configuration.
  * @param  None
  * @retval None
  */
void SystemInit(void)
{
 8001ba4:	b480      	push	{r7}
 8001ba6:	af00      	add	r7, sp, #0
  /* FPU settings ------------------------------------------------------------*/
  #if (__FPU_PRESENT == 1) && (__FPU_USED == 1)
    SCB->CPACR |= ((3UL << 10*2)|(3UL << 11*2));  /* set CP10 and CP11 Full Access */
 8001ba8:	4b06      	ldr	r3, [pc, #24]	; (8001bc4 <SystemInit+0x20>)
 8001baa:	f8d3 3088 	ldr.w	r3, [r3, #136]	; 0x88
 8001bae:	4a05      	ldr	r2, [pc, #20]	; (8001bc4 <SystemInit+0x20>)
 8001bb0:	f443 0370 	orr.w	r3, r3, #15728640	; 0xf00000
 8001bb4:	f8c2 3088 	str.w	r3, [r2, #136]	; 0x88

  /* Configure the Vector Table location -------------------------------------*/
#if defined(USER_VECT_TAB_ADDRESS)
  SCB->VTOR = VECT_TAB_BASE_ADDRESS | VECT_TAB_OFFSET; /* Vector Table Relocation in Internal SRAM */
#endif /* USER_VECT_TAB_ADDRESS */
}
 8001bb8:	bf00      	nop
 8001bba:	46bd      	mov	sp, r7
 8001bbc:	f85d 7b04 	ldr.w	r7, [sp], #4
 8001bc0:	4770      	bx	lr
 8001bc2:	bf00      	nop
 8001bc4:	e000ed00 	.word	0xe000ed00

08001bc8 <Reset_Handler>:

    .section  .text.Reset_Handler
  .weak  Reset_Handler
  .type  Reset_Handler, %function
Reset_Handler:  
  ldr   sp, =_estack    		 /* set stack pointer */
 8001bc8:	f8df d034 	ldr.w	sp, [pc, #52]	; 8001c00 <LoopFillZerobss+0x12>

/* Copy the data segment initializers from flash to SRAM */  
  ldr r0, =_sdata
 8001bcc:	480d      	ldr	r0, [pc, #52]	; (8001c04 <LoopFillZerobss+0x16>)
  ldr r1, =_edata
 8001bce:	490e      	ldr	r1, [pc, #56]	; (8001c08 <LoopFillZerobss+0x1a>)
  ldr r2, =_sidata
 8001bd0:	4a0e      	ldr	r2, [pc, #56]	; (8001c0c <LoopFillZerobss+0x1e>)
  movs r3, #0
 8001bd2:	2300      	movs	r3, #0
  b LoopCopyDataInit
 8001bd4:	e002      	b.n	8001bdc <LoopCopyDataInit>

08001bd6 <CopyDataInit>:

CopyDataInit:
  ldr r4, [r2, r3]
 8001bd6:	58d4      	ldr	r4, [r2, r3]
  str r4, [r0, r3]
 8001bd8:	50c4      	str	r4, [r0, r3]
  adds r3, r3, #4
 8001bda:	3304      	adds	r3, #4

08001bdc <LoopCopyDataInit>:

LoopCopyDataInit:
  adds r4, r0, r3
 8001bdc:	18c4      	adds	r4, r0, r3
  cmp r4, r1
 8001bde:	428c      	cmp	r4, r1
  bcc CopyDataInit
 8001be0:	d3f9      	bcc.n	8001bd6 <CopyDataInit>
  
/* Zero fill the bss segment. */
  ldr r2, =_sbss
 8001be2:	4a0b      	ldr	r2, [pc, #44]	; (8001c10 <LoopFillZerobss+0x22>)
  ldr r4, =_ebss
 8001be4:	4c0b      	ldr	r4, [pc, #44]	; (8001c14 <LoopFillZerobss+0x26>)
  movs r3, #0
 8001be6:	2300      	movs	r3, #0
  b LoopFillZerobss
 8001be8:	e001      	b.n	8001bee <LoopFillZerobss>

08001bea <FillZerobss>:

FillZerobss:
  str  r3, [r2]
 8001bea:	6013      	str	r3, [r2, #0]
  adds r2, r2, #4
 8001bec:	3204      	adds	r2, #4

08001bee <LoopFillZerobss>:

LoopFillZerobss:
  cmp r2, r4
 8001bee:	42a2      	cmp	r2, r4
  bcc FillZerobss
 8001bf0:	d3fb      	bcc.n	8001bea <FillZerobss>

/* Call the clock system intitialization function.*/
  bl  SystemInit   
 8001bf2:	f7ff ffd7 	bl	8001ba4 <SystemInit>
/* Call static constructors */
    bl __libc_init_array
 8001bf6:	f005 fa37 	bl	8007068 <__libc_init_array>
/* Call the application's entry point.*/
  bl  main
 8001bfa:	f7ff f979 	bl	8000ef0 <main>
  bx  lr    
 8001bfe:	4770      	bx	lr
  ldr   sp, =_estack    		 /* set stack pointer */
 8001c00:	20020000 	.word	0x20020000
  ldr r0, =_sdata
 8001c04:	20000000 	.word	0x20000000
  ldr r1, =_edata
 8001c08:	20000498 	.word	0x20000498
  ldr r2, =_sidata
 8001c0c:	0800a61c 	.word	0x0800a61c
  ldr r2, =_sbss
 8001c10:	20000498 	.word	0x20000498
  ldr r4, =_ebss
 8001c14:	2000070c 	.word	0x2000070c

08001c18 <ADC_IRQHandler>:
 * @retval None       
*/
    .section  .text.Default_Handler,"ax",%progbits
Default_Handler:
Infinite_Loop:
  b  Infinite_Loop
 8001c18:	e7fe      	b.n	8001c18 <ADC_IRQHandler>
	...

08001c1c <HAL_Init>:
  *         need to ensure that the SysTick time base is always set to 1 millisecond
  *         to have correct HAL operation.
  * @retval HAL status
  */
HAL_StatusTypeDef HAL_Init(void)
{
 8001c1c:	b580      	push	{r7, lr}
 8001c1e:	af00      	add	r7, sp, #0
  /* Configure Flash prefetch, Instruction cache, Data cache */ 
#if (INSTRUCTION_CACHE_ENABLE != 0U)
  __HAL_FLASH_INSTRUCTION_CACHE_ENABLE();
 8001c20:	4b0e      	ldr	r3, [pc, #56]	; (8001c5c <HAL_Init+0x40>)
 8001c22:	681b      	ldr	r3, [r3, #0]
 8001c24:	4a0d      	ldr	r2, [pc, #52]	; (8001c5c <HAL_Init+0x40>)
 8001c26:	f443 7300 	orr.w	r3, r3, #512	; 0x200
 8001c2a:	6013      	str	r3, [r2, #0]
#endif /* INSTRUCTION_CACHE_ENABLE */

#if (DATA_CACHE_ENABLE != 0U)
  __HAL_FLASH_DATA_CACHE_ENABLE();
 8001c2c:	4b0b      	ldr	r3, [pc, #44]	; (8001c5c <HAL_Init+0x40>)
 8001c2e:	681b      	ldr	r3, [r3, #0]
 8001c30:	4a0a      	ldr	r2, [pc, #40]	; (8001c5c <HAL_Init+0x40>)
 8001c32:	f443 6380 	orr.w	r3, r3, #1024	; 0x400
 8001c36:	6013      	str	r3, [r2, #0]
#endif /* DATA_CACHE_ENABLE */

#if (PREFETCH_ENABLE != 0U)
  __HAL_FLASH_PREFETCH_BUFFER_ENABLE();
 8001c38:	4b08      	ldr	r3, [pc, #32]	; (8001c5c <HAL_Init+0x40>)
 8001c3a:	681b      	ldr	r3, [r3, #0]
 8001c3c:	4a07      	ldr	r2, [pc, #28]	; (8001c5c <HAL_Init+0x40>)
 8001c3e:	f443 7380 	orr.w	r3, r3, #256	; 0x100
 8001c42:	6013      	str	r3, [r2, #0]
#endif /* PREFETCH_ENABLE */

  /* Set Interrupt Group Priority */
  HAL_NVIC_SetPriorityGrouping(NVIC_PRIORITYGROUP_4);
 8001c44:	2003      	movs	r0, #3
 8001c46:	f000 f94f 	bl	8001ee8 <HAL_NVIC_SetPriorityGrouping>

  /* Use systick as time base source and configure 1ms tick (default clock after Reset is HSI) */
  HAL_InitTick(TICK_INT_PRIORITY);
 8001c4a:	200f      	movs	r0, #15
 8001c4c:	f000 f808 	bl	8001c60 <HAL_InitTick>

  /* Init the low level hardware */
  HAL_MspInit();
 8001c50:	f7ff fcc2 	bl	80015d8 <HAL_MspInit>

  /* Return function status */
  return HAL_OK;
 8001c54:	2300      	movs	r3, #0
}
 8001c56:	4618      	mov	r0, r3
 8001c58:	bd80      	pop	{r7, pc}
 8001c5a:	bf00      	nop
 8001c5c:	40023c00 	.word	0x40023c00

08001c60 <HAL_InitTick>:
  *       implementation  in user file.
  * @param TickPriority Tick interrupt priority.
  * @retval HAL status
  */
__weak HAL_StatusTypeDef HAL_InitTick(uint32_t TickPriority)
{
 8001c60:	b580      	push	{r7, lr}
 8001c62:	b082      	sub	sp, #8
 8001c64:	af00      	add	r7, sp, #0
 8001c66:	6078      	str	r0, [r7, #4]
  /* Configure the SysTick to have interrupt in 1ms time basis*/
  if (HAL_SYSTICK_Config(SystemCoreClock / (1000U / uwTickFreq)) > 0U)
 8001c68:	4b12      	ldr	r3, [pc, #72]	; (8001cb4 <HAL_InitTick+0x54>)
 8001c6a:	681a      	ldr	r2, [r3, #0]
 8001c6c:	4b12      	ldr	r3, [pc, #72]	; (8001cb8 <HAL_InitTick+0x58>)
 8001c6e:	781b      	ldrb	r3, [r3, #0]
 8001c70:	4619      	mov	r1, r3
 8001c72:	f44f 737a 	mov.w	r3, #1000	; 0x3e8
 8001c76:	fbb3 f3f1 	udiv	r3, r3, r1
 8001c7a:	fbb2 f3f3 	udiv	r3, r2, r3
 8001c7e:	4618      	mov	r0, r3
 8001c80:	f000 f967 	bl	8001f52 <HAL_SYSTICK_Config>
 8001c84:	4603      	mov	r3, r0
 8001c86:	2b00      	cmp	r3, #0
 8001c88:	d001      	beq.n	8001c8e <HAL_InitTick+0x2e>
  {
    return HAL_ERROR;
 8001c8a:	2301      	movs	r3, #1
 8001c8c:	e00e      	b.n	8001cac <HAL_InitTick+0x4c>
  }

  /* Configure the SysTick IRQ priority */
  if (TickPriority < (1UL << __NVIC_PRIO_BITS))
 8001c8e:	687b      	ldr	r3, [r7, #4]
 8001c90:	2b0f      	cmp	r3, #15
 8001c92:	d80a      	bhi.n	8001caa <HAL_InitTick+0x4a>
  {
    HAL_NVIC_SetPriority(SysTick_IRQn, TickPriority, 0U);
 8001c94:	2200      	movs	r2, #0
 8001c96:	6879      	ldr	r1, [r7, #4]
 8001c98:	f04f 30ff 	mov.w	r0, #4294967295
 8001c9c:	f000 f92f 	bl	8001efe <HAL_NVIC_SetPriority>
    uwTickPrio = TickPriority;
 8001ca0:	4a06      	ldr	r2, [pc, #24]	; (8001cbc <HAL_InitTick+0x5c>)
 8001ca2:	687b      	ldr	r3, [r7, #4]
 8001ca4:	6013      	str	r3, [r2, #0]
  {
    return HAL_ERROR;
  }

  /* Return function status */
  return HAL_OK;
 8001ca6:	2300      	movs	r3, #0
 8001ca8:	e000      	b.n	8001cac <HAL_InitTick+0x4c>
    return HAL_ERROR;
 8001caa:	2301      	movs	r3, #1
}
 8001cac:	4618      	mov	r0, r3
 8001cae:	3708      	adds	r7, #8
 8001cb0:	46bd      	mov	sp, r7
 8001cb2:	bd80      	pop	{r7, pc}
 8001cb4:	20000000 	.word	0x20000000
 8001cb8:	20000008 	.word	0x20000008
 8001cbc:	20000004 	.word	0x20000004

08001cc0 <HAL_IncTick>:
 * @note This function is declared as __weak to be overwritten in case of other 
  *      implementations in user file.
  * @retval None
  */
__weak void HAL_IncTick(void)
{
 8001cc0:	b480      	push	{r7}
 8001cc2:	af00      	add	r7, sp, #0
  uwTick += uwTickFreq;
 8001cc4:	4b06      	ldr	r3, [pc, #24]	; (8001ce0 <HAL_IncTick+0x20>)
 8001cc6:	781b      	ldrb	r3, [r3, #0]
 8001cc8:	461a      	mov	r2, r3
 8001cca:	4b06      	ldr	r3, [pc, #24]	; (8001ce4 <HAL_IncTick+0x24>)
 8001ccc:	681b      	ldr	r3, [r3, #0]
 8001cce:	4413      	add	r3, r2
 8001cd0:	4a04      	ldr	r2, [pc, #16]	; (8001ce4 <HAL_IncTick+0x24>)
 8001cd2:	6013      	str	r3, [r2, #0]
}
 8001cd4:	bf00      	nop
 8001cd6:	46bd      	mov	sp, r7
 8001cd8:	f85d 7b04 	ldr.w	r7, [sp], #4
 8001cdc:	4770      	bx	lr
 8001cde:	bf00      	nop
 8001ce0:	20000008 	.word	0x20000008
 8001ce4:	200006d8 	.word	0x200006d8

08001ce8 <HAL_GetTick>:
  * @note This function is declared as __weak to be overwritten in case of other 
  *       implementations in user file.
  * @retval tick value
  */
__weak uint32_t HAL_GetTick(void)
{
 8001ce8:	b480      	push	{r7}
 8001cea:	af00      	add	r7, sp, #0
  return uwTick;
 8001cec:	4b03      	ldr	r3, [pc, #12]	; (8001cfc <HAL_GetTick+0x14>)
 8001cee:	681b      	ldr	r3, [r3, #0]
}
 8001cf0:	4618      	mov	r0, r3
 8001cf2:	46bd      	mov	sp, r7
 8001cf4:	f85d 7b04 	ldr.w	r7, [sp], #4
 8001cf8:	4770      	bx	lr
 8001cfa:	bf00      	nop
 8001cfc:	200006d8 	.word	0x200006d8

08001d00 <HAL_Delay>:
  *       implementations in user file.
  * @param Delay specifies the delay time length, in milliseconds.
  * @retval None
  */
__weak void HAL_Delay(uint32_t Delay)
{
 8001d00:	b580      	push	{r7, lr}
 8001d02:	b084      	sub	sp, #16
 8001d04:	af00      	add	r7, sp, #0
 8001d06:	6078      	str	r0, [r7, #4]
  uint32_t tickstart = HAL_GetTick();
 8001d08:	f7ff ffee 	bl	8001ce8 <HAL_GetTick>
 8001d0c:	60b8      	str	r0, [r7, #8]
  uint32_t wait = Delay;
 8001d0e:	687b      	ldr	r3, [r7, #4]
 8001d10:	60fb      	str	r3, [r7, #12]

  /* Add a freq to guarantee minimum wait */
  if (wait < HAL_MAX_DELAY)
 8001d12:	68fb      	ldr	r3, [r7, #12]
 8001d14:	f1b3 3fff 	cmp.w	r3, #4294967295
 8001d18:	d005      	beq.n	8001d26 <HAL_Delay+0x26>
  {
    wait += (uint32_t)(uwTickFreq);
 8001d1a:	4b0a      	ldr	r3, [pc, #40]	; (8001d44 <HAL_Delay+0x44>)
 8001d1c:	781b      	ldrb	r3, [r3, #0]
 8001d1e:	461a      	mov	r2, r3
 8001d20:	68fb      	ldr	r3, [r7, #12]
 8001d22:	4413      	add	r3, r2
 8001d24:	60fb      	str	r3, [r7, #12]
  }

  while((HAL_GetTick() - tickstart) < wait)
 8001d26:	bf00      	nop
 8001d28:	f7ff ffde 	bl	8001ce8 <HAL_GetTick>
 8001d2c:	4602      	mov	r2, r0
 8001d2e:	68bb      	ldr	r3, [r7, #8]
 8001d30:	1ad3      	subs	r3, r2, r3
 8001d32:	68fa      	ldr	r2, [r7, #12]
 8001d34:	429a      	cmp	r2, r3
 8001d36:	d8f7      	bhi.n	8001d28 <HAL_Delay+0x28>
  {
  }
}
 8001d38:	bf00      	nop
 8001d3a:	bf00      	nop
 8001d3c:	3710      	adds	r7, #16
 8001d3e:	46bd      	mov	sp, r7
 8001d40:	bd80      	pop	{r7, pc}
 8001d42:	bf00      	nop
 8001d44:	20000008 	.word	0x20000008

08001d48 <__NVIC_SetPriorityGrouping>:
           In case of a conflict between priority grouping and available
           priority bits (__NVIC_PRIO_BITS), the smallest possible priority group is set.
  \param [in]      PriorityGroup  Priority grouping field.
 */
__STATIC_INLINE void __NVIC_SetPriorityGrouping(uint32_t PriorityGroup)
{
 8001d48:	b480      	push	{r7}
 8001d4a:	b085      	sub	sp, #20
 8001d4c:	af00      	add	r7, sp, #0
 8001d4e:	6078      	str	r0, [r7, #4]
  uint32_t reg_value;
  uint32_t PriorityGroupTmp = (PriorityGroup & (uint32_t)0x07UL);             /* only values 0..7 are used          */
 8001d50:	687b      	ldr	r3, [r7, #4]
 8001d52:	f003 0307 	and.w	r3, r3, #7
 8001d56:	60fb      	str	r3, [r7, #12]

  reg_value  =  SCB->AIRCR;                                                   /* read old register configuration    */
 8001d58:	4b0c      	ldr	r3, [pc, #48]	; (8001d8c <__NVIC_SetPriorityGrouping+0x44>)
 8001d5a:	68db      	ldr	r3, [r3, #12]
 8001d5c:	60bb      	str	r3, [r7, #8]
  reg_value &= ~((uint32_t)(SCB_AIRCR_VECTKEY_Msk | SCB_AIRCR_PRIGROUP_Msk)); /* clear bits to change               */
 8001d5e:	68ba      	ldr	r2, [r7, #8]
 8001d60:	f64f 03ff 	movw	r3, #63743	; 0xf8ff
 8001d64:	4013      	ands	r3, r2
 8001d66:	60bb      	str	r3, [r7, #8]
  reg_value  =  (reg_value                                   |
                ((uint32_t)0x5FAUL << SCB_AIRCR_VECTKEY_Pos) |
                (PriorityGroupTmp << SCB_AIRCR_PRIGROUP_Pos)  );              /* Insert write key and priority group */
 8001d68:	68fb      	ldr	r3, [r7, #12]
 8001d6a:	021a      	lsls	r2, r3, #8
                ((uint32_t)0x5FAUL << SCB_AIRCR_VECTKEY_Pos) |
 8001d6c:	68bb      	ldr	r3, [r7, #8]
 8001d6e:	4313      	orrs	r3, r2
  reg_value  =  (reg_value                                   |
 8001d70:	f043 63bf 	orr.w	r3, r3, #100139008	; 0x5f80000
 8001d74:	f443 3300 	orr.w	r3, r3, #131072	; 0x20000
 8001d78:	60bb      	str	r3, [r7, #8]
  SCB->AIRCR =  reg_value;
 8001d7a:	4a04      	ldr	r2, [pc, #16]	; (8001d8c <__NVIC_SetPriorityGrouping+0x44>)
 8001d7c:	68bb      	ldr	r3, [r7, #8]
 8001d7e:	60d3      	str	r3, [r2, #12]
}
 8001d80:	bf00      	nop
 8001d82:	3714      	adds	r7, #20
 8001d84:	46bd      	mov	sp, r7
 8001d86:	f85d 7b04 	ldr.w	r7, [sp], #4
 8001d8a:	4770      	bx	lr
 8001d8c:	e000ed00 	.word	0xe000ed00

08001d90 <__NVIC_GetPriorityGrouping>:
  \brief   Get Priority Grouping
  \details Reads the priority grouping field from the NVIC Interrupt Controller.
  \return                Priority grouping field (SCB->AIRCR [10:8] PRIGROUP field).
 */
__STATIC_INLINE uint32_t __NVIC_GetPriorityGrouping(void)
{
 8001d90:	b480      	push	{r7}
 8001d92:	af00      	add	r7, sp, #0
  return ((uint32_t)((SCB->AIRCR & SCB_AIRCR_PRIGROUP_Msk) >> SCB_AIRCR_PRIGROUP_Pos));
 8001d94:	4b04      	ldr	r3, [pc, #16]	; (8001da8 <__NVIC_GetPriorityGrouping+0x18>)
 8001d96:	68db      	ldr	r3, [r3, #12]
 8001d98:	0a1b      	lsrs	r3, r3, #8
 8001d9a:	f003 0307 	and.w	r3, r3, #7
}
 8001d9e:	4618      	mov	r0, r3
 8001da0:	46bd      	mov	sp, r7
 8001da2:	f85d 7b04 	ldr.w	r7, [sp], #4
 8001da6:	4770      	bx	lr
 8001da8:	e000ed00 	.word	0xe000ed00

08001dac <__NVIC_EnableIRQ>:
  \details Enables a device specific interrupt in the NVIC interrupt controller.
  \param [in]      IRQn  Device specific interrupt number.
  \note    IRQn must not be negative.
 */
__STATIC_INLINE void __NVIC_EnableIRQ(IRQn_Type IRQn)
{
 8001dac:	b480      	push	{r7}
 8001dae:	b083      	sub	sp, #12
 8001db0:	af00      	add	r7, sp, #0
 8001db2:	4603      	mov	r3, r0
 8001db4:	71fb      	strb	r3, [r7, #7]
  if ((int32_t)(IRQn) >= 0)
 8001db6:	f997 3007 	ldrsb.w	r3, [r7, #7]
 8001dba:	2b00      	cmp	r3, #0
 8001dbc:	db0b      	blt.n	8001dd6 <__NVIC_EnableIRQ+0x2a>
  {
    NVIC->ISER[(((uint32_t)IRQn) >> 5UL)] = (uint32_t)(1UL << (((uint32_t)IRQn) & 0x1FUL));
 8001dbe:	79fb      	ldrb	r3, [r7, #7]
 8001dc0:	f003 021f 	and.w	r2, r3, #31
 8001dc4:	4907      	ldr	r1, [pc, #28]	; (8001de4 <__NVIC_EnableIRQ+0x38>)
 8001dc6:	f997 3007 	ldrsb.w	r3, [r7, #7]
 8001dca:	095b      	lsrs	r3, r3, #5
 8001dcc:	2001      	movs	r0, #1
 8001dce:	fa00 f202 	lsl.w	r2, r0, r2
 8001dd2:	f841 2023 	str.w	r2, [r1, r3, lsl #2]
  }
}
 8001dd6:	bf00      	nop
 8001dd8:	370c      	adds	r7, #12
 8001dda:	46bd      	mov	sp, r7
 8001ddc:	f85d 7b04 	ldr.w	r7, [sp], #4
 8001de0:	4770      	bx	lr
 8001de2:	bf00      	nop
 8001de4:	e000e100 	.word	0xe000e100

08001de8 <__NVIC_SetPriority>:
  \param [in]      IRQn  Interrupt number.
  \param [in]  priority  Priority to set.
  \note    The priority cannot be set for every processor exception.
 */
__STATIC_INLINE void __NVIC_SetPriority(IRQn_Type IRQn, uint32_t priority)
{
 8001de8:	b480      	push	{r7}
 8001dea:	b083      	sub	sp, #12
 8001dec:	af00      	add	r7, sp, #0
 8001dee:	4603      	mov	r3, r0
 8001df0:	6039      	str	r1, [r7, #0]
 8001df2:	71fb      	strb	r3, [r7, #7]
  if ((int32_t)(IRQn) >= 0)
 8001df4:	f997 3007 	ldrsb.w	r3, [r7, #7]
 8001df8:	2b00      	cmp	r3, #0
 8001dfa:	db0a      	blt.n	8001e12 <__NVIC_SetPriority+0x2a>
  {
    NVIC->IP[((uint32_t)IRQn)]               = (uint8_t)((priority << (8U - __NVIC_PRIO_BITS)) & (uint32_t)0xFFUL);
 8001dfc:	683b      	ldr	r3, [r7, #0]
 8001dfe:	b2da      	uxtb	r2, r3
 8001e00:	490c      	ldr	r1, [pc, #48]	; (8001e34 <__NVIC_SetPriority+0x4c>)
 8001e02:	f997 3007 	ldrsb.w	r3, [r7, #7]
 8001e06:	0112      	lsls	r2, r2, #4
 8001e08:	b2d2      	uxtb	r2, r2
 8001e0a:	440b      	add	r3, r1
 8001e0c:	f883 2300 	strb.w	r2, [r3, #768]	; 0x300
  }
  else
  {
    SCB->SHP[(((uint32_t)IRQn) & 0xFUL)-4UL] = (uint8_t)((priority << (8U - __NVIC_PRIO_BITS)) & (uint32_t)0xFFUL);
  }
}
 8001e10:	e00a      	b.n	8001e28 <__NVIC_SetPriority+0x40>
    SCB->SHP[(((uint32_t)IRQn) & 0xFUL)-4UL] = (uint8_t)((priority << (8U - __NVIC_PRIO_BITS)) & (uint32_t)0xFFUL);
 8001e12:	683b      	ldr	r3, [r7, #0]
 8001e14:	b2da      	uxtb	r2, r3
 8001e16:	4908      	ldr	r1, [pc, #32]	; (8001e38 <__NVIC_SetPriority+0x50>)
 8001e18:	79fb      	ldrb	r3, [r7, #7]
 8001e1a:	f003 030f 	and.w	r3, r3, #15
 8001e1e:	3b04      	subs	r3, #4
 8001e20:	0112      	lsls	r2, r2, #4
 8001e22:	b2d2      	uxtb	r2, r2
 8001e24:	440b      	add	r3, r1
 8001e26:	761a      	strb	r2, [r3, #24]
}
 8001e28:	bf00      	nop
 8001e2a:	370c      	adds	r7, #12
 8001e2c:	46bd      	mov	sp, r7
 8001e2e:	f85d 7b04 	ldr.w	r7, [sp], #4
 8001e32:	4770      	bx	lr
 8001e34:	e000e100 	.word	0xe000e100
 8001e38:	e000ed00 	.word	0xe000ed00

08001e3c <NVIC_EncodePriority>:
  \param [in]   PreemptPriority  Preemptive priority value (starting from 0).
  \param [in]       SubPriority  Subpriority value (starting from 0).
  \return                        Encoded priority. Value can be used in the function \ref NVIC_SetPriority().
 */
__STATIC_INLINE uint32_t NVIC_EncodePriority (uint32_t PriorityGroup, uint32_t PreemptPriority, uint32_t SubPriority)
{
 8001e3c:	b480      	push	{r7}
 8001e3e:	b089      	sub	sp, #36	; 0x24
 8001e40:	af00      	add	r7, sp, #0
 8001e42:	60f8      	str	r0, [r7, #12]
 8001e44:	60b9      	str	r1, [r7, #8]
 8001e46:	607a      	str	r2, [r7, #4]
  uint32_t PriorityGroupTmp = (PriorityGroup & (uint32_t)0x07UL);   /* only values 0..7 are used          */
 8001e48:	68fb      	ldr	r3, [r7, #12]
 8001e4a:	f003 0307 	and.w	r3, r3, #7
 8001e4e:	61fb      	str	r3, [r7, #28]
  uint32_t PreemptPriorityBits;
  uint32_t SubPriorityBits;

  PreemptPriorityBits = ((7UL - PriorityGroupTmp) > (uint32_t)(__NVIC_PRIO_BITS)) ? (uint32_t)(__NVIC_PRIO_BITS) : (uint32_t)(7UL - PriorityGroupTmp);
 8001e50:	69fb      	ldr	r3, [r7, #28]
 8001e52:	f1c3 0307 	rsb	r3, r3, #7
 8001e56:	2b04      	cmp	r3, #4
 8001e58:	bf28      	it	cs
 8001e5a:	2304      	movcs	r3, #4
 8001e5c:	61bb      	str	r3, [r7, #24]
  SubPriorityBits     = ((PriorityGroupTmp + (uint32_t)(__NVIC_PRIO_BITS)) < (uint32_t)7UL) ? (uint32_t)0UL : (uint32_t)((PriorityGroupTmp - 7UL) + (uint32_t)(__NVIC_PRIO_BITS));
 8001e5e:	69fb      	ldr	r3, [r7, #28]
 8001e60:	3304      	adds	r3, #4
 8001e62:	2b06      	cmp	r3, #6
 8001e64:	d902      	bls.n	8001e6c <NVIC_EncodePriority+0x30>
 8001e66:	69fb      	ldr	r3, [r7, #28]
 8001e68:	3b03      	subs	r3, #3
 8001e6a:	e000      	b.n	8001e6e <NVIC_EncodePriority+0x32>
 8001e6c:	2300      	movs	r3, #0
 8001e6e:	617b      	str	r3, [r7, #20]

  return (
           ((PreemptPriority & (uint32_t)((1UL << (PreemptPriorityBits)) - 1UL)) << SubPriorityBits) |
 8001e70:	f04f 32ff 	mov.w	r2, #4294967295
 8001e74:	69bb      	ldr	r3, [r7, #24]
 8001e76:	fa02 f303 	lsl.w	r3, r2, r3
 8001e7a:	43da      	mvns	r2, r3
 8001e7c:	68bb      	ldr	r3, [r7, #8]
 8001e7e:	401a      	ands	r2, r3
 8001e80:	697b      	ldr	r3, [r7, #20]
 8001e82:	409a      	lsls	r2, r3
           ((SubPriority     & (uint32_t)((1UL << (SubPriorityBits    )) - 1UL)))
 8001e84:	f04f 31ff 	mov.w	r1, #4294967295
 8001e88:	697b      	ldr	r3, [r7, #20]
 8001e8a:	fa01 f303 	lsl.w	r3, r1, r3
 8001e8e:	43d9      	mvns	r1, r3
 8001e90:	687b      	ldr	r3, [r7, #4]
 8001e92:	400b      	ands	r3, r1
           ((PreemptPriority & (uint32_t)((1UL << (PreemptPriorityBits)) - 1UL)) << SubPriorityBits) |
 8001e94:	4313      	orrs	r3, r2
         );
}
 8001e96:	4618      	mov	r0, r3
 8001e98:	3724      	adds	r7, #36	; 0x24
 8001e9a:	46bd      	mov	sp, r7
 8001e9c:	f85d 7b04 	ldr.w	r7, [sp], #4
 8001ea0:	4770      	bx	lr
	...

08001ea4 <SysTick_Config>:
  \note    When the variable <b>__Vendor_SysTickConfig</b> is set to 1, then the
           function <b>SysTick_Config</b> is not included. In this case, the file <b><i>device</i>.h</b>
           must contain a vendor-specific implementation of this function.
 */
__STATIC_INLINE uint32_t SysTick_Config(uint32_t ticks)
{
 8001ea4:	b580      	push	{r7, lr}
 8001ea6:	b082      	sub	sp, #8
 8001ea8:	af00      	add	r7, sp, #0
 8001eaa:	6078      	str	r0, [r7, #4]
  if ((ticks - 1UL) > SysTick_LOAD_RELOAD_Msk)
 8001eac:	687b      	ldr	r3, [r7, #4]
 8001eae:	3b01      	subs	r3, #1
 8001eb0:	f1b3 7f80 	cmp.w	r3, #16777216	; 0x1000000
 8001eb4:	d301      	bcc.n	8001eba <SysTick_Config+0x16>
  {
    return (1UL);                                                   /* Reload value impossible */
 8001eb6:	2301      	movs	r3, #1
 8001eb8:	e00f      	b.n	8001eda <SysTick_Config+0x36>
  }

  SysTick->LOAD  = (uint32_t)(ticks - 1UL);                         /* set reload register */
 8001eba:	4a0a      	ldr	r2, [pc, #40]	; (8001ee4 <SysTick_Config+0x40>)
 8001ebc:	687b      	ldr	r3, [r7, #4]
 8001ebe:	3b01      	subs	r3, #1
 8001ec0:	6053      	str	r3, [r2, #4]
  NVIC_SetPriority (SysTick_IRQn, (1UL << __NVIC_PRIO_BITS) - 1UL); /* set Priority for Systick Interrupt */
 8001ec2:	210f      	movs	r1, #15
 8001ec4:	f04f 30ff 	mov.w	r0, #4294967295
 8001ec8:	f7ff ff8e 	bl	8001de8 <__NVIC_SetPriority>
  SysTick->VAL   = 0UL;                                             /* Load the SysTick Counter Value */
 8001ecc:	4b05      	ldr	r3, [pc, #20]	; (8001ee4 <SysTick_Config+0x40>)
 8001ece:	2200      	movs	r2, #0
 8001ed0:	609a      	str	r2, [r3, #8]
  SysTick->CTRL  = SysTick_CTRL_CLKSOURCE_Msk |
 8001ed2:	4b04      	ldr	r3, [pc, #16]	; (8001ee4 <SysTick_Config+0x40>)
 8001ed4:	2207      	movs	r2, #7
 8001ed6:	601a      	str	r2, [r3, #0]
                   SysTick_CTRL_TICKINT_Msk   |
                   SysTick_CTRL_ENABLE_Msk;                         /* Enable SysTick IRQ and SysTick Timer */
  return (0UL);                                                     /* Function successful */
 8001ed8:	2300      	movs	r3, #0
}
 8001eda:	4618      	mov	r0, r3
 8001edc:	3708      	adds	r7, #8
 8001ede:	46bd      	mov	sp, r7
 8001ee0:	bd80      	pop	{r7, pc}
 8001ee2:	bf00      	nop
 8001ee4:	e000e010 	.word	0xe000e010

08001ee8 <HAL_NVIC_SetPriorityGrouping>:
  * @note   When the NVIC_PriorityGroup_0 is selected, IRQ preemption is no more possible. 
  *         The pending IRQ priority will be managed only by the subpriority. 
  * @retval None
  */
void HAL_NVIC_SetPriorityGrouping(uint32_t PriorityGroup)
{
 8001ee8:	b580      	push	{r7, lr}
 8001eea:	b082      	sub	sp, #8
 8001eec:	af00      	add	r7, sp, #0
 8001eee:	6078      	str	r0, [r7, #4]
  /* Check the parameters */
  assert_param(IS_NVIC_PRIORITY_GROUP(PriorityGroup));
  
  /* Set the PRIGROUP[10:8] bits according to the PriorityGroup parameter value */
  NVIC_SetPriorityGrouping(PriorityGroup);
 8001ef0:	6878      	ldr	r0, [r7, #4]
 8001ef2:	f7ff ff29 	bl	8001d48 <__NVIC_SetPriorityGrouping>
}
 8001ef6:	bf00      	nop
 8001ef8:	3708      	adds	r7, #8
 8001efa:	46bd      	mov	sp, r7
 8001efc:	bd80      	pop	{r7, pc}

08001efe <HAL_NVIC_SetPriority>:
  *         This parameter can be a value between 0 and 15
  *         A lower priority value indicates a higher priority.          
  * @retval None
  */
void HAL_NVIC_SetPriority(IRQn_Type IRQn, uint32_t PreemptPriority, uint32_t SubPriority)
{ 
 8001efe:	b580      	push	{r7, lr}
 8001f00:	b086      	sub	sp, #24
 8001f02:	af00      	add	r7, sp, #0
 8001f04:	4603      	mov	r3, r0
 8001f06:	60b9      	str	r1, [r7, #8]
 8001f08:	607a      	str	r2, [r7, #4]
 8001f0a:	73fb      	strb	r3, [r7, #15]
  uint32_t prioritygroup = 0x00U;
 8001f0c:	2300      	movs	r3, #0
 8001f0e:	617b      	str	r3, [r7, #20]
  
  /* Check the parameters */
  assert_param(IS_NVIC_SUB_PRIORITY(SubPriority));
  assert_param(IS_NVIC_PREEMPTION_PRIORITY(PreemptPriority));
  
  prioritygroup = NVIC_GetPriorityGrouping();
 8001f10:	f7ff ff3e 	bl	8001d90 <__NVIC_GetPriorityGrouping>
 8001f14:	6178      	str	r0, [r7, #20]
  
  NVIC_SetPriority(IRQn, NVIC_EncodePriority(prioritygroup, PreemptPriority, SubPriority));
 8001f16:	687a      	ldr	r2, [r7, #4]
 8001f18:	68b9      	ldr	r1, [r7, #8]
 8001f1a:	6978      	ldr	r0, [r7, #20]
 8001f1c:	f7ff ff8e 	bl	8001e3c <NVIC_EncodePriority>
 8001f20:	4602      	mov	r2, r0
 8001f22:	f997 300f 	ldrsb.w	r3, [r7, #15]
 8001f26:	4611      	mov	r1, r2
 8001f28:	4618      	mov	r0, r3
 8001f2a:	f7ff ff5d 	bl	8001de8 <__NVIC_SetPriority>
}
 8001f2e:	bf00      	nop
 8001f30:	3718      	adds	r7, #24
 8001f32:	46bd      	mov	sp, r7
 8001f34:	bd80      	pop	{r7, pc}

08001f36 <HAL_NVIC_EnableIRQ>:
  *         This parameter can be an enumerator of IRQn_Type enumeration
  *         (For the complete STM32 Devices IRQ Channels list, please refer to the appropriate CMSIS device file (stm32f4xxxx.h))
  * @retval None
  */
void HAL_NVIC_EnableIRQ(IRQn_Type IRQn)
{
 8001f36:	b580      	push	{r7, lr}
 8001f38:	b082      	sub	sp, #8
 8001f3a:	af00      	add	r7, sp, #0
 8001f3c:	4603      	mov	r3, r0
 8001f3e:	71fb      	strb	r3, [r7, #7]
  /* Check the parameters */
  assert_param(IS_NVIC_DEVICE_IRQ(IRQn));
  
  /* Enable interrupt */
  NVIC_EnableIRQ(IRQn);
 8001f40:	f997 3007 	ldrsb.w	r3, [r7, #7]
 8001f44:	4618      	mov	r0, r3
 8001f46:	f7ff ff31 	bl	8001dac <__NVIC_EnableIRQ>
}
 8001f4a:	bf00      	nop
 8001f4c:	3708      	adds	r7, #8
 8001f4e:	46bd      	mov	sp, r7
 8001f50:	bd80      	pop	{r7, pc}

08001f52 <HAL_SYSTICK_Config>:
  * @param  TicksNumb Specifies the ticks Number of ticks between two interrupts.
  * @retval status:  - 0  Function succeeded.
  *                  - 1  Function failed.
  */
uint32_t HAL_SYSTICK_Config(uint32_t TicksNumb)
{
 8001f52:	b580      	push	{r7, lr}
 8001f54:	b082      	sub	sp, #8
 8001f56:	af00      	add	r7, sp, #0
 8001f58:	6078      	str	r0, [r7, #4]
   return SysTick_Config(TicksNumb);
 8001f5a:	6878      	ldr	r0, [r7, #4]
 8001f5c:	f7ff ffa2 	bl	8001ea4 <SysTick_Config>
 8001f60:	4603      	mov	r3, r0
}
 8001f62:	4618      	mov	r0, r3
 8001f64:	3708      	adds	r7, #8
 8001f66:	46bd      	mov	sp, r7
 8001f68:	bd80      	pop	{r7, pc}
	...

08001f6c <HAL_GPIO_Init>:
  * @param  GPIO_Init pointer to a GPIO_InitTypeDef structure that contains
  *         the configuration information for the specified GPIO peripheral.
  * @retval None
  */
void HAL_GPIO_Init(GPIO_TypeDef  *GPIOx, GPIO_InitTypeDef *GPIO_Init)
{
 8001f6c:	b480      	push	{r7}
 8001f6e:	b089      	sub	sp, #36	; 0x24
 8001f70:	af00      	add	r7, sp, #0
 8001f72:	6078      	str	r0, [r7, #4]
 8001f74:	6039      	str	r1, [r7, #0]
  uint32_t position;
  uint32_t ioposition = 0x00U;
 8001f76:	2300      	movs	r3, #0
 8001f78:	617b      	str	r3, [r7, #20]
  uint32_t iocurrent = 0x00U;
 8001f7a:	2300      	movs	r3, #0
 8001f7c:	613b      	str	r3, [r7, #16]
  uint32_t temp = 0x00U;
 8001f7e:	2300      	movs	r3, #0
 8001f80:	61bb      	str	r3, [r7, #24]
  assert_param(IS_GPIO_ALL_INSTANCE(GPIOx));
  assert_param(IS_GPIO_PIN(GPIO_Init->Pin));
  assert_param(IS_GPIO_MODE(GPIO_Init->Mode));

  /* Configure the port pins */
  for(position = 0U; position < GPIO_NUMBER; position++)
 8001f82:	2300      	movs	r3, #0
 8001f84:	61fb      	str	r3, [r7, #28]
 8001f86:	e159      	b.n	800223c <HAL_GPIO_Init+0x2d0>
  {
    /* Get the IO position */
    ioposition = 0x01U << position;
 8001f88:	2201      	movs	r2, #1
 8001f8a:	69fb      	ldr	r3, [r7, #28]
 8001f8c:	fa02 f303 	lsl.w	r3, r2, r3
 8001f90:	617b      	str	r3, [r7, #20]
    /* Get the current IO position */
    iocurrent = (uint32_t)(GPIO_Init->Pin) & ioposition;
 8001f92:	683b      	ldr	r3, [r7, #0]
 8001f94:	681b      	ldr	r3, [r3, #0]
 8001f96:	697a      	ldr	r2, [r7, #20]
 8001f98:	4013      	ands	r3, r2
 8001f9a:	613b      	str	r3, [r7, #16]

    if(iocurrent == ioposition)
 8001f9c:	693a      	ldr	r2, [r7, #16]
 8001f9e:	697b      	ldr	r3, [r7, #20]
 8001fa0:	429a      	cmp	r2, r3
 8001fa2:	f040 8148 	bne.w	8002236 <HAL_GPIO_Init+0x2ca>
    {
      /*--------------------- GPIO Mode Configuration ------------------------*/
      /* In case of Output or Alternate function mode selection */
      if(((GPIO_Init->Mode & GPIO_MODE) == MODE_OUTPUT) || \
 8001fa6:	683b      	ldr	r3, [r7, #0]
 8001fa8:	685b      	ldr	r3, [r3, #4]
 8001faa:	f003 0303 	and.w	r3, r3, #3
 8001fae:	2b01      	cmp	r3, #1
 8001fb0:	d005      	beq.n	8001fbe <HAL_GPIO_Init+0x52>
          (GPIO_Init->Mode & GPIO_MODE) == MODE_AF)
 8001fb2:	683b      	ldr	r3, [r7, #0]
 8001fb4:	685b      	ldr	r3, [r3, #4]
 8001fb6:	f003 0303 	and.w	r3, r3, #3
      if(((GPIO_Init->Mode & GPIO_MODE) == MODE_OUTPUT) || \
 8001fba:	2b02      	cmp	r3, #2
 8001fbc:	d130      	bne.n	8002020 <HAL_GPIO_Init+0xb4>
      {
        /* Check the Speed parameter */
        assert_param(IS_GPIO_SPEED(GPIO_Init->Speed));
        /* Configure the IO Speed */
        temp = GPIOx->OSPEEDR; 
 8001fbe:	687b      	ldr	r3, [r7, #4]
 8001fc0:	689b      	ldr	r3, [r3, #8]
 8001fc2:	61bb      	str	r3, [r7, #24]
        temp &= ~(GPIO_OSPEEDER_OSPEEDR0 << (position * 2U));
 8001fc4:	69fb      	ldr	r3, [r7, #28]
 8001fc6:	005b      	lsls	r3, r3, #1
 8001fc8:	2203      	movs	r2, #3
 8001fca:	fa02 f303 	lsl.w	r3, r2, r3
 8001fce:	43db      	mvns	r3, r3
 8001fd0:	69ba      	ldr	r2, [r7, #24]
 8001fd2:	4013      	ands	r3, r2
 8001fd4:	61bb      	str	r3, [r7, #24]
        temp |= (GPIO_Init->Speed << (position * 2U));
 8001fd6:	683b      	ldr	r3, [r7, #0]
 8001fd8:	68da      	ldr	r2, [r3, #12]
 8001fda:	69fb      	ldr	r3, [r7, #28]
 8001fdc:	005b      	lsls	r3, r3, #1
 8001fde:	fa02 f303 	lsl.w	r3, r2, r3
 8001fe2:	69ba      	ldr	r2, [r7, #24]
 8001fe4:	4313      	orrs	r3, r2
 8001fe6:	61bb      	str	r3, [r7, #24]
        GPIOx->OSPEEDR = temp;
 8001fe8:	687b      	ldr	r3, [r7, #4]
 8001fea:	69ba      	ldr	r2, [r7, #24]
 8001fec:	609a      	str	r2, [r3, #8]

        /* Configure the IO Output Type */
        temp = GPIOx->OTYPER;
 8001fee:	687b      	ldr	r3, [r7, #4]
 8001ff0:	685b      	ldr	r3, [r3, #4]
 8001ff2:	61bb      	str	r3, [r7, #24]
        temp &= ~(GPIO_OTYPER_OT_0 << position) ;
 8001ff4:	2201      	movs	r2, #1
 8001ff6:	69fb      	ldr	r3, [r7, #28]
 8001ff8:	fa02 f303 	lsl.w	r3, r2, r3
 8001ffc:	43db      	mvns	r3, r3
 8001ffe:	69ba      	ldr	r2, [r7, #24]
 8002000:	4013      	ands	r3, r2
 8002002:	61bb      	str	r3, [r7, #24]
        temp |= (((GPIO_Init->Mode & OUTPUT_TYPE) >> OUTPUT_TYPE_Pos) << position);
 8002004:	683b      	ldr	r3, [r7, #0]
 8002006:	685b      	ldr	r3, [r3, #4]
 8002008:	091b      	lsrs	r3, r3, #4
 800200a:	f003 0201 	and.w	r2, r3, #1
 800200e:	69fb      	ldr	r3, [r7, #28]
 8002010:	fa02 f303 	lsl.w	r3, r2, r3
 8002014:	69ba      	ldr	r2, [r7, #24]
 8002016:	4313      	orrs	r3, r2
 8002018:	61bb      	str	r3, [r7, #24]
        GPIOx->OTYPER = temp;
 800201a:	687b      	ldr	r3, [r7, #4]
 800201c:	69ba      	ldr	r2, [r7, #24]
 800201e:	605a      	str	r2, [r3, #4]
       }

      if((GPIO_Init->Mode & GPIO_MODE) != MODE_ANALOG)
 8002020:	683b      	ldr	r3, [r7, #0]
 8002022:	685b      	ldr	r3, [r3, #4]
 8002024:	f003 0303 	and.w	r3, r3, #3
 8002028:	2b03      	cmp	r3, #3
 800202a:	d017      	beq.n	800205c <HAL_GPIO_Init+0xf0>
      {
        /* Check the parameters */
        assert_param(IS_GPIO_PULL(GPIO_Init->Pull));
        
        /* Activate the Pull-up or Pull down resistor for the current IO */
        temp = GPIOx->PUPDR;
 800202c:	687b      	ldr	r3, [r7, #4]
 800202e:	68db      	ldr	r3, [r3, #12]
 8002030:	61bb      	str	r3, [r7, #24]
        temp &= ~(GPIO_PUPDR_PUPDR0 << (position * 2U));
 8002032:	69fb      	ldr	r3, [r7, #28]
 8002034:	005b      	lsls	r3, r3, #1
 8002036:	2203      	movs	r2, #3
 8002038:	fa02 f303 	lsl.w	r3, r2, r3
 800203c:	43db      	mvns	r3, r3
 800203e:	69ba      	ldr	r2, [r7, #24]
 8002040:	4013      	ands	r3, r2
 8002042:	61bb      	str	r3, [r7, #24]
        temp |= ((GPIO_Init->Pull) << (position * 2U));
 8002044:	683b      	ldr	r3, [r7, #0]
 8002046:	689a      	ldr	r2, [r3, #8]
 8002048:	69fb      	ldr	r3, [r7, #28]
 800204a:	005b      	lsls	r3, r3, #1
 800204c:	fa02 f303 	lsl.w	r3, r2, r3
 8002050:	69ba      	ldr	r2, [r7, #24]
 8002052:	4313      	orrs	r3, r2
 8002054:	61bb      	str	r3, [r7, #24]
        GPIOx->PUPDR = temp;
 8002056:	687b      	ldr	r3, [r7, #4]
 8002058:	69ba      	ldr	r2, [r7, #24]
 800205a:	60da      	str	r2, [r3, #12]
      }

      /* In case of Alternate function mode selection */
      if((GPIO_Init->Mode & GPIO_MODE) == MODE_AF)
 800205c:	683b      	ldr	r3, [r7, #0]
 800205e:	685b      	ldr	r3, [r3, #4]
 8002060:	f003 0303 	and.w	r3, r3, #3
 8002064:	2b02      	cmp	r3, #2
 8002066:	d123      	bne.n	80020b0 <HAL_GPIO_Init+0x144>
      {
        /* Check the Alternate function parameter */
        assert_param(IS_GPIO_AF(GPIO_Init->Alternate));
        /* Configure Alternate function mapped with the current IO */
        temp = GPIOx->AFR[position >> 3U];
 8002068:	69fb      	ldr	r3, [r7, #28]
 800206a:	08da      	lsrs	r2, r3, #3
 800206c:	687b      	ldr	r3, [r7, #4]
 800206e:	3208      	adds	r2, #8
 8002070:	f853 3022 	ldr.w	r3, [r3, r2, lsl #2]
 8002074:	61bb      	str	r3, [r7, #24]
        temp &= ~(0xFU << ((uint32_t)(position & 0x07U) * 4U)) ;
 8002076:	69fb      	ldr	r3, [r7, #28]
 8002078:	f003 0307 	and.w	r3, r3, #7
 800207c:	009b      	lsls	r3, r3, #2
 800207e:	220f      	movs	r2, #15
 8002080:	fa02 f303 	lsl.w	r3, r2, r3
 8002084:	43db      	mvns	r3, r3
 8002086:	69ba      	ldr	r2, [r7, #24]
 8002088:	4013      	ands	r3, r2
 800208a:	61bb      	str	r3, [r7, #24]
        temp |= ((uint32_t)(GPIO_Init->Alternate) << (((uint32_t)position & 0x07U) * 4U));
 800208c:	683b      	ldr	r3, [r7, #0]
 800208e:	691a      	ldr	r2, [r3, #16]
 8002090:	69fb      	ldr	r3, [r7, #28]
 8002092:	f003 0307 	and.w	r3, r3, #7
 8002096:	009b      	lsls	r3, r3, #2
 8002098:	fa02 f303 	lsl.w	r3, r2, r3
 800209c:	69ba      	ldr	r2, [r7, #24]
 800209e:	4313      	orrs	r3, r2
 80020a0:	61bb      	str	r3, [r7, #24]
        GPIOx->AFR[position >> 3U] = temp;
 80020a2:	69fb      	ldr	r3, [r7, #28]
 80020a4:	08da      	lsrs	r2, r3, #3
 80020a6:	687b      	ldr	r3, [r7, #4]
 80020a8:	3208      	adds	r2, #8
 80020aa:	69b9      	ldr	r1, [r7, #24]
 80020ac:	f843 1022 	str.w	r1, [r3, r2, lsl #2]
      }

      /* Configure IO Direction mode (Input, Output, Alternate or Analog) */
      temp = GPIOx->MODER;
 80020b0:	687b      	ldr	r3, [r7, #4]
 80020b2:	681b      	ldr	r3, [r3, #0]
 80020b4:	61bb      	str	r3, [r7, #24]
      temp &= ~(GPIO_MODER_MODER0 << (position * 2U));
 80020b6:	69fb      	ldr	r3, [r7, #28]
 80020b8:	005b      	lsls	r3, r3, #1
 80020ba:	2203      	movs	r2, #3
 80020bc:	fa02 f303 	lsl.w	r3, r2, r3
 80020c0:	43db      	mvns	r3, r3
 80020c2:	69ba      	ldr	r2, [r7, #24]
 80020c4:	4013      	ands	r3, r2
 80020c6:	61bb      	str	r3, [r7, #24]
      temp |= ((GPIO_Init->Mode & GPIO_MODE) << (position * 2U));
 80020c8:	683b      	ldr	r3, [r7, #0]
 80020ca:	685b      	ldr	r3, [r3, #4]
 80020cc:	f003 0203 	and.w	r2, r3, #3
 80020d0:	69fb      	ldr	r3, [r7, #28]
 80020d2:	005b      	lsls	r3, r3, #1
 80020d4:	fa02 f303 	lsl.w	r3, r2, r3
 80020d8:	69ba      	ldr	r2, [r7, #24]
 80020da:	4313      	orrs	r3, r2
 80020dc:	61bb      	str	r3, [r7, #24]
      GPIOx->MODER = temp;
 80020de:	687b      	ldr	r3, [r7, #4]
 80020e0:	69ba      	ldr	r2, [r7, #24]
 80020e2:	601a      	str	r2, [r3, #0]

      /*--------------------- EXTI Mode Configuration ------------------------*/
      /* Configure the External Interrupt or event for the current IO */
      if((GPIO_Init->Mode & EXTI_MODE) != 0x00U)
 80020e4:	683b      	ldr	r3, [r7, #0]
 80020e6:	685b      	ldr	r3, [r3, #4]
 80020e8:	f403 3340 	and.w	r3, r3, #196608	; 0x30000
 80020ec:	2b00      	cmp	r3, #0
 80020ee:	f000 80a2 	beq.w	8002236 <HAL_GPIO_Init+0x2ca>
      {
        /* Enable SYSCFG Clock */
        __HAL_RCC_SYSCFG_CLK_ENABLE();
 80020f2:	2300      	movs	r3, #0
 80020f4:	60fb      	str	r3, [r7, #12]
 80020f6:	4b57      	ldr	r3, [pc, #348]	; (8002254 <HAL_GPIO_Init+0x2e8>)
 80020f8:	6c5b      	ldr	r3, [r3, #68]	; 0x44
 80020fa:	4a56      	ldr	r2, [pc, #344]	; (8002254 <HAL_GPIO_Init+0x2e8>)
 80020fc:	f443 4380 	orr.w	r3, r3, #16384	; 0x4000
 8002100:	6453      	str	r3, [r2, #68]	; 0x44
 8002102:	4b54      	ldr	r3, [pc, #336]	; (8002254 <HAL_GPIO_Init+0x2e8>)
 8002104:	6c5b      	ldr	r3, [r3, #68]	; 0x44
 8002106:	f403 4380 	and.w	r3, r3, #16384	; 0x4000
 800210a:	60fb      	str	r3, [r7, #12]
 800210c:	68fb      	ldr	r3, [r7, #12]

        temp = SYSCFG->EXTICR[position >> 2U];
 800210e:	4a52      	ldr	r2, [pc, #328]	; (8002258 <HAL_GPIO_Init+0x2ec>)
 8002110:	69fb      	ldr	r3, [r7, #28]
 8002112:	089b      	lsrs	r3, r3, #2
 8002114:	3302      	adds	r3, #2
 8002116:	f852 3023 	ldr.w	r3, [r2, r3, lsl #2]
 800211a:	61bb      	str	r3, [r7, #24]
        temp &= ~(0x0FU << (4U * (position & 0x03U)));
 800211c:	69fb      	ldr	r3, [r7, #28]
 800211e:	f003 0303 	and.w	r3, r3, #3
 8002122:	009b      	lsls	r3, r3, #2
 8002124:	220f      	movs	r2, #15
 8002126:	fa02 f303 	lsl.w	r3, r2, r3
 800212a:	43db      	mvns	r3, r3
 800212c:	69ba      	ldr	r2, [r7, #24]
 800212e:	4013      	ands	r3, r2
 8002130:	61bb      	str	r3, [r7, #24]
        temp |= ((uint32_t)(GPIO_GET_INDEX(GPIOx)) << (4U * (position & 0x03U)));
 8002132:	687b      	ldr	r3, [r7, #4]
 8002134:	4a49      	ldr	r2, [pc, #292]	; (800225c <HAL_GPIO_Init+0x2f0>)
 8002136:	4293      	cmp	r3, r2
 8002138:	d019      	beq.n	800216e <HAL_GPIO_Init+0x202>
 800213a:	687b      	ldr	r3, [r7, #4]
 800213c:	4a48      	ldr	r2, [pc, #288]	; (8002260 <HAL_GPIO_Init+0x2f4>)
 800213e:	4293      	cmp	r3, r2
 8002140:	d013      	beq.n	800216a <HAL_GPIO_Init+0x1fe>
 8002142:	687b      	ldr	r3, [r7, #4]
 8002144:	4a47      	ldr	r2, [pc, #284]	; (8002264 <HAL_GPIO_Init+0x2f8>)
 8002146:	4293      	cmp	r3, r2
 8002148:	d00d      	beq.n	8002166 <HAL_GPIO_Init+0x1fa>
 800214a:	687b      	ldr	r3, [r7, #4]
 800214c:	4a46      	ldr	r2, [pc, #280]	; (8002268 <HAL_GPIO_Init+0x2fc>)
 800214e:	4293      	cmp	r3, r2
 8002150:	d007      	beq.n	8002162 <HAL_GPIO_Init+0x1f6>
 8002152:	687b      	ldr	r3, [r7, #4]
 8002154:	4a45      	ldr	r2, [pc, #276]	; (800226c <HAL_GPIO_Init+0x300>)
 8002156:	4293      	cmp	r3, r2
 8002158:	d101      	bne.n	800215e <HAL_GPIO_Init+0x1f2>
 800215a:	2304      	movs	r3, #4
 800215c:	e008      	b.n	8002170 <HAL_GPIO_Init+0x204>
 800215e:	2307      	movs	r3, #7
 8002160:	e006      	b.n	8002170 <HAL_GPIO_Init+0x204>
 8002162:	2303      	movs	r3, #3
 8002164:	e004      	b.n	8002170 <HAL_GPIO_Init+0x204>
 8002166:	2302      	movs	r3, #2
 8002168:	e002      	b.n	8002170 <HAL_GPIO_Init+0x204>
 800216a:	2301      	movs	r3, #1
 800216c:	e000      	b.n	8002170 <HAL_GPIO_Init+0x204>
 800216e:	2300      	movs	r3, #0
 8002170:	69fa      	ldr	r2, [r7, #28]
 8002172:	f002 0203 	and.w	r2, r2, #3
 8002176:	0092      	lsls	r2, r2, #2
 8002178:	4093      	lsls	r3, r2
 800217a:	69ba      	ldr	r2, [r7, #24]
 800217c:	4313      	orrs	r3, r2
 800217e:	61bb      	str	r3, [r7, #24]
        SYSCFG->EXTICR[position >> 2U] = temp;
 8002180:	4935      	ldr	r1, [pc, #212]	; (8002258 <HAL_GPIO_Init+0x2ec>)
 8002182:	69fb      	ldr	r3, [r7, #28]
 8002184:	089b      	lsrs	r3, r3, #2
 8002186:	3302      	adds	r3, #2
 8002188:	69ba      	ldr	r2, [r7, #24]
 800218a:	f841 2023 	str.w	r2, [r1, r3, lsl #2]

        /* Clear EXTI line configuration */
        temp = EXTI->IMR;
 800218e:	4b38      	ldr	r3, [pc, #224]	; (8002270 <HAL_GPIO_Init+0x304>)
 8002190:	681b      	ldr	r3, [r3, #0]
 8002192:	61bb      	str	r3, [r7, #24]
        temp &= ~((uint32_t)iocurrent);
 8002194:	693b      	ldr	r3, [r7, #16]
 8002196:	43db      	mvns	r3, r3
 8002198:	69ba      	ldr	r2, [r7, #24]
 800219a:	4013      	ands	r3, r2
 800219c:	61bb      	str	r3, [r7, #24]
        if((GPIO_Init->Mode & EXTI_IT) != 0x00U)
 800219e:	683b      	ldr	r3, [r7, #0]
 80021a0:	685b      	ldr	r3, [r3, #4]
 80021a2:	f403 3380 	and.w	r3, r3, #65536	; 0x10000
 80021a6:	2b00      	cmp	r3, #0
 80021a8:	d003      	beq.n	80021b2 <HAL_GPIO_Init+0x246>
        {
          temp |= iocurrent;
 80021aa:	69ba      	ldr	r2, [r7, #24]
 80021ac:	693b      	ldr	r3, [r7, #16]
 80021ae:	4313      	orrs	r3, r2
 80021b0:	61bb      	str	r3, [r7, #24]
        }
        EXTI->IMR = temp;
 80021b2:	4a2f      	ldr	r2, [pc, #188]	; (8002270 <HAL_GPIO_Init+0x304>)
 80021b4:	69bb      	ldr	r3, [r7, #24]
 80021b6:	6013      	str	r3, [r2, #0]

        temp = EXTI->EMR;
 80021b8:	4b2d      	ldr	r3, [pc, #180]	; (8002270 <HAL_GPIO_Init+0x304>)
 80021ba:	685b      	ldr	r3, [r3, #4]
 80021bc:	61bb      	str	r3, [r7, #24]
        temp &= ~((uint32_t)iocurrent);
 80021be:	693b      	ldr	r3, [r7, #16]
 80021c0:	43db      	mvns	r3, r3
 80021c2:	69ba      	ldr	r2, [r7, #24]
 80021c4:	4013      	ands	r3, r2
 80021c6:	61bb      	str	r3, [r7, #24]
        if((GPIO_Init->Mode & EXTI_EVT) != 0x00U)
 80021c8:	683b      	ldr	r3, [r7, #0]
 80021ca:	685b      	ldr	r3, [r3, #4]
 80021cc:	f403 3300 	and.w	r3, r3, #131072	; 0x20000
 80021d0:	2b00      	cmp	r3, #0
 80021d2:	d003      	beq.n	80021dc <HAL_GPIO_Init+0x270>
        {
          temp |= iocurrent;
 80021d4:	69ba      	ldr	r2, [r7, #24]
 80021d6:	693b      	ldr	r3, [r7, #16]
 80021d8:	4313      	orrs	r3, r2
 80021da:	61bb      	str	r3, [r7, #24]
        }
        EXTI->EMR = temp;
 80021dc:	4a24      	ldr	r2, [pc, #144]	; (8002270 <HAL_GPIO_Init+0x304>)
 80021de:	69bb      	ldr	r3, [r7, #24]
 80021e0:	6053      	str	r3, [r2, #4]

        /* Clear Rising Falling edge configuration */
        temp = EXTI->RTSR;
 80021e2:	4b23      	ldr	r3, [pc, #140]	; (8002270 <HAL_GPIO_Init+0x304>)
 80021e4:	689b      	ldr	r3, [r3, #8]
 80021e6:	61bb      	str	r3, [r7, #24]
        temp &= ~((uint32_t)iocurrent);
 80021e8:	693b      	ldr	r3, [r7, #16]
 80021ea:	43db      	mvns	r3, r3
 80021ec:	69ba      	ldr	r2, [r7, #24]
 80021ee:	4013      	ands	r3, r2
 80021f0:	61bb      	str	r3, [r7, #24]
        if((GPIO_Init->Mode & TRIGGER_RISING) != 0x00U)
 80021f2:	683b      	ldr	r3, [r7, #0]
 80021f4:	685b      	ldr	r3, [r3, #4]
 80021f6:	f403 1380 	and.w	r3, r3, #1048576	; 0x100000
 80021fa:	2b00      	cmp	r3, #0
 80021fc:	d003      	beq.n	8002206 <HAL_GPIO_Init+0x29a>
        {
          temp |= iocurrent;
 80021fe:	69ba      	ldr	r2, [r7, #24]
 8002200:	693b      	ldr	r3, [r7, #16]
 8002202:	4313      	orrs	r3, r2
 8002204:	61bb      	str	r3, [r7, #24]
        }
        EXTI->RTSR = temp;
 8002206:	4a1a      	ldr	r2, [pc, #104]	; (8002270 <HAL_GPIO_Init+0x304>)
 8002208:	69bb      	ldr	r3, [r7, #24]
 800220a:	6093      	str	r3, [r2, #8]

        temp = EXTI->FTSR;
 800220c:	4b18      	ldr	r3, [pc, #96]	; (8002270 <HAL_GPIO_Init+0x304>)
 800220e:	68db      	ldr	r3, [r3, #12]
 8002210:	61bb      	str	r3, [r7, #24]
        temp &= ~((uint32_t)iocurrent);
 8002212:	693b      	ldr	r3, [r7, #16]
 8002214:	43db      	mvns	r3, r3
 8002216:	69ba      	ldr	r2, [r7, #24]
 8002218:	4013      	ands	r3, r2
 800221a:	61bb      	str	r3, [r7, #24]
        if((GPIO_Init->Mode & TRIGGER_FALLING) != 0x00U)
 800221c:	683b      	ldr	r3, [r7, #0]
 800221e:	685b      	ldr	r3, [r3, #4]
 8002220:	f403 1300 	and.w	r3, r3, #2097152	; 0x200000
 8002224:	2b00      	cmp	r3, #0
 8002226:	d003      	beq.n	8002230 <HAL_GPIO_Init+0x2c4>
        {
          temp |= iocurrent;
 8002228:	69ba      	ldr	r2, [r7, #24]
 800222a:	693b      	ldr	r3, [r7, #16]
 800222c:	4313      	orrs	r3, r2
 800222e:	61bb      	str	r3, [r7, #24]
        }
        EXTI->FTSR = temp;
 8002230:	4a0f      	ldr	r2, [pc, #60]	; (8002270 <HAL_GPIO_Init+0x304>)
 8002232:	69bb      	ldr	r3, [r7, #24]
 8002234:	60d3      	str	r3, [r2, #12]
  for(position = 0U; position < GPIO_NUMBER; position++)
 8002236:	69fb      	ldr	r3, [r7, #28]
 8002238:	3301      	adds	r3, #1
 800223a:	61fb      	str	r3, [r7, #28]
 800223c:	69fb      	ldr	r3, [r7, #28]
 800223e:	2b0f      	cmp	r3, #15
 8002240:	f67f aea2 	bls.w	8001f88 <HAL_GPIO_Init+0x1c>
      }
    }
  }
}
 8002244:	bf00      	nop
 8002246:	bf00      	nop
 8002248:	3724      	adds	r7, #36	; 0x24
 800224a:	46bd      	mov	sp, r7
 800224c:	f85d 7b04 	ldr.w	r7, [sp], #4
 8002250:	4770      	bx	lr
 8002252:	bf00      	nop
 8002254:	40023800 	.word	0x40023800
 8002258:	40013800 	.word	0x40013800
 800225c:	40020000 	.word	0x40020000
 8002260:	40020400 	.word	0x40020400
 8002264:	40020800 	.word	0x40020800
 8002268:	40020c00 	.word	0x40020c00
 800226c:	40021000 	.word	0x40021000
 8002270:	40013c00 	.word	0x40013c00

08002274 <HAL_GPIO_ReadPin>:
  * @param  GPIO_Pin specifies the port bit to read.
  *         This parameter can be GPIO_PIN_x where x can be (0..15).
  * @retval The input port pin value.
  */
GPIO_PinState HAL_GPIO_ReadPin(GPIO_TypeDef* GPIOx, uint16_t GPIO_Pin)
{
 8002274:	b480      	push	{r7}
 8002276:	b085      	sub	sp, #20
 8002278:	af00      	add	r7, sp, #0
 800227a:	6078      	str	r0, [r7, #4]
 800227c:	460b      	mov	r3, r1
 800227e:	807b      	strh	r3, [r7, #2]
  GPIO_PinState bitstatus;

  /* Check the parameters */
  assert_param(IS_GPIO_PIN(GPIO_Pin));

  if((GPIOx->IDR & GPIO_Pin) != (uint32_t)GPIO_PIN_RESET)
 8002280:	687b      	ldr	r3, [r7, #4]
 8002282:	691a      	ldr	r2, [r3, #16]
 8002284:	887b      	ldrh	r3, [r7, #2]
 8002286:	4013      	ands	r3, r2
 8002288:	2b00      	cmp	r3, #0
 800228a:	d002      	beq.n	8002292 <HAL_GPIO_ReadPin+0x1e>
  {
    bitstatus = GPIO_PIN_SET;
 800228c:	2301      	movs	r3, #1
 800228e:	73fb      	strb	r3, [r7, #15]
 8002290:	e001      	b.n	8002296 <HAL_GPIO_ReadPin+0x22>
  }
  else
  {
    bitstatus = GPIO_PIN_RESET;
 8002292:	2300      	movs	r3, #0
 8002294:	73fb      	strb	r3, [r7, #15]
  }
  return bitstatus;
 8002296:	7bfb      	ldrb	r3, [r7, #15]
}
 8002298:	4618      	mov	r0, r3
 800229a:	3714      	adds	r7, #20
 800229c:	46bd      	mov	sp, r7
 800229e:	f85d 7b04 	ldr.w	r7, [sp], #4
 80022a2:	4770      	bx	lr

080022a4 <HAL_GPIO_WritePin>:
  *            @arg GPIO_PIN_RESET: to clear the port pin
  *            @arg GPIO_PIN_SET: to set the port pin
  * @retval None
  */
void HAL_GPIO_WritePin(GPIO_TypeDef* GPIOx, uint16_t GPIO_Pin, GPIO_PinState PinState)
{
 80022a4:	b480      	push	{r7}
 80022a6:	b083      	sub	sp, #12
 80022a8:	af00      	add	r7, sp, #0
 80022aa:	6078      	str	r0, [r7, #4]
 80022ac:	460b      	mov	r3, r1
 80022ae:	807b      	strh	r3, [r7, #2]
 80022b0:	4613      	mov	r3, r2
 80022b2:	707b      	strb	r3, [r7, #1]
  /* Check the parameters */
  assert_param(IS_GPIO_PIN(GPIO_Pin));
  assert_param(IS_GPIO_PIN_ACTION(PinState));

  if(PinState != GPIO_PIN_RESET)
 80022b4:	787b      	ldrb	r3, [r7, #1]
 80022b6:	2b00      	cmp	r3, #0
 80022b8:	d003      	beq.n	80022c2 <HAL_GPIO_WritePin+0x1e>
  {
    GPIOx->BSRR = GPIO_Pin;
 80022ba:	887a      	ldrh	r2, [r7, #2]
 80022bc:	687b      	ldr	r3, [r7, #4]
 80022be:	619a      	str	r2, [r3, #24]
  }
  else
  {
    GPIOx->BSRR = (uint32_t)GPIO_Pin << 16U;
  }
}
 80022c0:	e003      	b.n	80022ca <HAL_GPIO_WritePin+0x26>
    GPIOx->BSRR = (uint32_t)GPIO_Pin << 16U;
 80022c2:	887b      	ldrh	r3, [r7, #2]
 80022c4:	041a      	lsls	r2, r3, #16
 80022c6:	687b      	ldr	r3, [r7, #4]
 80022c8:	619a      	str	r2, [r3, #24]
}
 80022ca:	bf00      	nop
 80022cc:	370c      	adds	r7, #12
 80022ce:	46bd      	mov	sp, r7
 80022d0:	f85d 7b04 	ldr.w	r7, [sp], #4
 80022d4:	4770      	bx	lr
	...

080022d8 <HAL_RCC_OscConfig>:
  *         supported by this API. User should request a transition to HSE Off
  *         first and then HSE On or HSE Bypass.
  * @retval HAL status
  */
__weak HAL_StatusTypeDef HAL_RCC_OscConfig(RCC_OscInitTypeDef  *RCC_OscInitStruct)
{
 80022d8:	b580      	push	{r7, lr}
 80022da:	b086      	sub	sp, #24
 80022dc:	af00      	add	r7, sp, #0
 80022de:	6078      	str	r0, [r7, #4]
  uint32_t tickstart, pll_config;

  /* Check Null pointer */
  if(RCC_OscInitStruct == NULL)
 80022e0:	687b      	ldr	r3, [r7, #4]
 80022e2:	2b00      	cmp	r3, #0
 80022e4:	d101      	bne.n	80022ea <HAL_RCC_OscConfig+0x12>
  {
    return HAL_ERROR;
 80022e6:	2301      	movs	r3, #1
 80022e8:	e267      	b.n	80027ba <HAL_RCC_OscConfig+0x4e2>
  }

  /* Check the parameters */
  assert_param(IS_RCC_OSCILLATORTYPE(RCC_OscInitStruct->OscillatorType));
  /*------------------------------- HSE Configuration ------------------------*/
  if(((RCC_OscInitStruct->OscillatorType) & RCC_OSCILLATORTYPE_HSE) == RCC_OSCILLATORTYPE_HSE)
 80022ea:	687b      	ldr	r3, [r7, #4]
 80022ec:	681b      	ldr	r3, [r3, #0]
 80022ee:	f003 0301 	and.w	r3, r3, #1
 80022f2:	2b00      	cmp	r3, #0
 80022f4:	d075      	beq.n	80023e2 <HAL_RCC_OscConfig+0x10a>
  {
    /* Check the parameters */
    assert_param(IS_RCC_HSE(RCC_OscInitStruct->HSEState));
    /* When the HSE is used as system clock or clock source for PLL in these cases HSE will not disabled */
    if((__HAL_RCC_GET_SYSCLK_SOURCE() == RCC_CFGR_SWS_HSE) ||\
 80022f6:	4b88      	ldr	r3, [pc, #544]	; (8002518 <HAL_RCC_OscConfig+0x240>)
 80022f8:	689b      	ldr	r3, [r3, #8]
 80022fa:	f003 030c 	and.w	r3, r3, #12
 80022fe:	2b04      	cmp	r3, #4
 8002300:	d00c      	beq.n	800231c <HAL_RCC_OscConfig+0x44>
      ((__HAL_RCC_GET_SYSCLK_SOURCE() == RCC_CFGR_SWS_PLL) && ((RCC->PLLCFGR & RCC_PLLCFGR_PLLSRC) == RCC_PLLCFGR_PLLSRC_HSE)))
 8002302:	4b85      	ldr	r3, [pc, #532]	; (8002518 <HAL_RCC_OscConfig+0x240>)
 8002304:	689b      	ldr	r3, [r3, #8]
 8002306:	f003 030c 	and.w	r3, r3, #12
    if((__HAL_RCC_GET_SYSCLK_SOURCE() == RCC_CFGR_SWS_HSE) ||\
 800230a:	2b08      	cmp	r3, #8
 800230c:	d112      	bne.n	8002334 <HAL_RCC_OscConfig+0x5c>
      ((__HAL_RCC_GET_SYSCLK_SOURCE() == RCC_CFGR_SWS_PLL) && ((RCC->PLLCFGR & RCC_PLLCFGR_PLLSRC) == RCC_PLLCFGR_PLLSRC_HSE)))
 800230e:	4b82      	ldr	r3, [pc, #520]	; (8002518 <HAL_RCC_OscConfig+0x240>)
 8002310:	685b      	ldr	r3, [r3, #4]
 8002312:	f403 0380 	and.w	r3, r3, #4194304	; 0x400000
 8002316:	f5b3 0f80 	cmp.w	r3, #4194304	; 0x400000
 800231a:	d10b      	bne.n	8002334 <HAL_RCC_OscConfig+0x5c>
    {
      if((__HAL_RCC_GET_FLAG(RCC_FLAG_HSERDY) != RESET) && (RCC_OscInitStruct->HSEState == RCC_HSE_OFF))
 800231c:	4b7e      	ldr	r3, [pc, #504]	; (8002518 <HAL_RCC_OscConfig+0x240>)
 800231e:	681b      	ldr	r3, [r3, #0]
 8002320:	f403 3300 	and.w	r3, r3, #131072	; 0x20000
 8002324:	2b00      	cmp	r3, #0
 8002326:	d05b      	beq.n	80023e0 <HAL_RCC_OscConfig+0x108>
 8002328:	687b      	ldr	r3, [r7, #4]
 800232a:	685b      	ldr	r3, [r3, #4]
 800232c:	2b00      	cmp	r3, #0
 800232e:	d157      	bne.n	80023e0 <HAL_RCC_OscConfig+0x108>
      {
        return HAL_ERROR;
 8002330:	2301      	movs	r3, #1
 8002332:	e242      	b.n	80027ba <HAL_RCC_OscConfig+0x4e2>
      }
    }
    else
    {
      /* Set the new HSE configuration ---------------------------------------*/
      __HAL_RCC_HSE_CONFIG(RCC_OscInitStruct->HSEState);
 8002334:	687b      	ldr	r3, [r7, #4]
 8002336:	685b      	ldr	r3, [r3, #4]
 8002338:	f5b3 3f80 	cmp.w	r3, #65536	; 0x10000
 800233c:	d106      	bne.n	800234c <HAL_RCC_OscConfig+0x74>
 800233e:	4b76      	ldr	r3, [pc, #472]	; (8002518 <HAL_RCC_OscConfig+0x240>)
 8002340:	681b      	ldr	r3, [r3, #0]
 8002342:	4a75      	ldr	r2, [pc, #468]	; (8002518 <HAL_RCC_OscConfig+0x240>)
 8002344:	f443 3380 	orr.w	r3, r3, #65536	; 0x10000
 8002348:	6013      	str	r3, [r2, #0]
 800234a:	e01d      	b.n	8002388 <HAL_RCC_OscConfig+0xb0>
 800234c:	687b      	ldr	r3, [r7, #4]
 800234e:	685b      	ldr	r3, [r3, #4]
 8002350:	f5b3 2fa0 	cmp.w	r3, #327680	; 0x50000
 8002354:	d10c      	bne.n	8002370 <HAL_RCC_OscConfig+0x98>
 8002356:	4b70      	ldr	r3, [pc, #448]	; (8002518 <HAL_RCC_OscConfig+0x240>)
 8002358:	681b      	ldr	r3, [r3, #0]
 800235a:	4a6f      	ldr	r2, [pc, #444]	; (8002518 <HAL_RCC_OscConfig+0x240>)
 800235c:	f443 2380 	orr.w	r3, r3, #262144	; 0x40000
 8002360:	6013      	str	r3, [r2, #0]
 8002362:	4b6d      	ldr	r3, [pc, #436]	; (8002518 <HAL_RCC_OscConfig+0x240>)
 8002364:	681b      	ldr	r3, [r3, #0]
 8002366:	4a6c      	ldr	r2, [pc, #432]	; (8002518 <HAL_RCC_OscConfig+0x240>)
 8002368:	f443 3380 	orr.w	r3, r3, #65536	; 0x10000
 800236c:	6013      	str	r3, [r2, #0]
 800236e:	e00b      	b.n	8002388 <HAL_RCC_OscConfig+0xb0>
 8002370:	4b69      	ldr	r3, [pc, #420]	; (8002518 <HAL_RCC_OscConfig+0x240>)
 8002372:	681b      	ldr	r3, [r3, #0]
 8002374:	4a68      	ldr	r2, [pc, #416]	; (8002518 <HAL_RCC_OscConfig+0x240>)
 8002376:	f423 3380 	bic.w	r3, r3, #65536	; 0x10000
 800237a:	6013      	str	r3, [r2, #0]
 800237c:	4b66      	ldr	r3, [pc, #408]	; (8002518 <HAL_RCC_OscConfig+0x240>)
 800237e:	681b      	ldr	r3, [r3, #0]
 8002380:	4a65      	ldr	r2, [pc, #404]	; (8002518 <HAL_RCC_OscConfig+0x240>)
 8002382:	f423 2380 	bic.w	r3, r3, #262144	; 0x40000
 8002386:	6013      	str	r3, [r2, #0]

      /* Check the HSE State */
      if((RCC_OscInitStruct->HSEState) != RCC_HSE_OFF)
 8002388:	687b      	ldr	r3, [r7, #4]
 800238a:	685b      	ldr	r3, [r3, #4]
 800238c:	2b00      	cmp	r3, #0
 800238e:	d013      	beq.n	80023b8 <HAL_RCC_OscConfig+0xe0>
      {
        /* Get Start Tick */
        tickstart = HAL_GetTick();
 8002390:	f7ff fcaa 	bl	8001ce8 <HAL_GetTick>
 8002394:	6138      	str	r0, [r7, #16]

        /* Wait till HSE is ready */
        while(__HAL_RCC_GET_FLAG(RCC_FLAG_HSERDY) == RESET)
 8002396:	e008      	b.n	80023aa <HAL_RCC_OscConfig+0xd2>
        {
          if((HAL_GetTick() - tickstart ) > HSE_TIMEOUT_VALUE)
 8002398:	f7ff fca6 	bl	8001ce8 <HAL_GetTick>
 800239c:	4602      	mov	r2, r0
 800239e:	693b      	ldr	r3, [r7, #16]
 80023a0:	1ad3      	subs	r3, r2, r3
 80023a2:	2b64      	cmp	r3, #100	; 0x64
 80023a4:	d901      	bls.n	80023aa <HAL_RCC_OscConfig+0xd2>
          {
            return HAL_TIMEOUT;
 80023a6:	2303      	movs	r3, #3
 80023a8:	e207      	b.n	80027ba <HAL_RCC_OscConfig+0x4e2>
        while(__HAL_RCC_GET_FLAG(RCC_FLAG_HSERDY) == RESET)
 80023aa:	4b5b      	ldr	r3, [pc, #364]	; (8002518 <HAL_RCC_OscConfig+0x240>)
 80023ac:	681b      	ldr	r3, [r3, #0]
 80023ae:	f403 3300 	and.w	r3, r3, #131072	; 0x20000
 80023b2:	2b00      	cmp	r3, #0
 80023b4:	d0f0      	beq.n	8002398 <HAL_RCC_OscConfig+0xc0>
 80023b6:	e014      	b.n	80023e2 <HAL_RCC_OscConfig+0x10a>
        }
      }
      else
      {
        /* Get Start Tick */
        tickstart = HAL_GetTick();
 80023b8:	f7ff fc96 	bl	8001ce8 <HAL_GetTick>
 80023bc:	6138      	str	r0, [r7, #16]

        /* Wait till HSE is bypassed or disabled */
        while(__HAL_RCC_GET_FLAG(RCC_FLAG_HSERDY) != RESET)
 80023be:	e008      	b.n	80023d2 <HAL_RCC_OscConfig+0xfa>
        {
          if((HAL_GetTick() - tickstart ) > HSE_TIMEOUT_VALUE)
 80023c0:	f7ff fc92 	bl	8001ce8 <HAL_GetTick>
 80023c4:	4602      	mov	r2, r0
 80023c6:	693b      	ldr	r3, [r7, #16]
 80023c8:	1ad3      	subs	r3, r2, r3
 80023ca:	2b64      	cmp	r3, #100	; 0x64
 80023cc:	d901      	bls.n	80023d2 <HAL_RCC_OscConfig+0xfa>
          {
            return HAL_TIMEOUT;
 80023ce:	2303      	movs	r3, #3
 80023d0:	e1f3      	b.n	80027ba <HAL_RCC_OscConfig+0x4e2>
        while(__HAL_RCC_GET_FLAG(RCC_FLAG_HSERDY) != RESET)
 80023d2:	4b51      	ldr	r3, [pc, #324]	; (8002518 <HAL_RCC_OscConfig+0x240>)
 80023d4:	681b      	ldr	r3, [r3, #0]
 80023d6:	f403 3300 	and.w	r3, r3, #131072	; 0x20000
 80023da:	2b00      	cmp	r3, #0
 80023dc:	d1f0      	bne.n	80023c0 <HAL_RCC_OscConfig+0xe8>
 80023de:	e000      	b.n	80023e2 <HAL_RCC_OscConfig+0x10a>
      if((__HAL_RCC_GET_FLAG(RCC_FLAG_HSERDY) != RESET) && (RCC_OscInitStruct->HSEState == RCC_HSE_OFF))
 80023e0:	bf00      	nop
        }
      }
    }
  }
  /*----------------------------- HSI Configuration --------------------------*/
  if(((RCC_OscInitStruct->OscillatorType) & RCC_OSCILLATORTYPE_HSI) == RCC_OSCILLATORTYPE_HSI)
 80023e2:	687b      	ldr	r3, [r7, #4]
 80023e4:	681b      	ldr	r3, [r3, #0]
 80023e6:	f003 0302 	and.w	r3, r3, #2
 80023ea:	2b00      	cmp	r3, #0
 80023ec:	d063      	beq.n	80024b6 <HAL_RCC_OscConfig+0x1de>
    /* Check the parameters */
    assert_param(IS_RCC_HSI(RCC_OscInitStruct->HSIState));
    assert_param(IS_RCC_CALIBRATION_VALUE(RCC_OscInitStruct->HSICalibrationValue));

    /* Check if HSI is used as system clock or as PLL source when PLL is selected as system clock */
    if((__HAL_RCC_GET_SYSCLK_SOURCE() == RCC_CFGR_SWS_HSI) ||\
 80023ee:	4b4a      	ldr	r3, [pc, #296]	; (8002518 <HAL_RCC_OscConfig+0x240>)
 80023f0:	689b      	ldr	r3, [r3, #8]
 80023f2:	f003 030c 	and.w	r3, r3, #12
 80023f6:	2b00      	cmp	r3, #0
 80023f8:	d00b      	beq.n	8002412 <HAL_RCC_OscConfig+0x13a>
      ((__HAL_RCC_GET_SYSCLK_SOURCE() == RCC_CFGR_SWS_PLL) && ((RCC->PLLCFGR & RCC_PLLCFGR_PLLSRC) == RCC_PLLCFGR_PLLSRC_HSI)))
 80023fa:	4b47      	ldr	r3, [pc, #284]	; (8002518 <HAL_RCC_OscConfig+0x240>)
 80023fc:	689b      	ldr	r3, [r3, #8]
 80023fe:	f003 030c 	and.w	r3, r3, #12
    if((__HAL_RCC_GET_SYSCLK_SOURCE() == RCC_CFGR_SWS_HSI) ||\
 8002402:	2b08      	cmp	r3, #8
 8002404:	d11c      	bne.n	8002440 <HAL_RCC_OscConfig+0x168>
      ((__HAL_RCC_GET_SYSCLK_SOURCE() == RCC_CFGR_SWS_PLL) && ((RCC->PLLCFGR & RCC_PLLCFGR_PLLSRC) == RCC_PLLCFGR_PLLSRC_HSI)))
 8002406:	4b44      	ldr	r3, [pc, #272]	; (8002518 <HAL_RCC_OscConfig+0x240>)
 8002408:	685b      	ldr	r3, [r3, #4]
 800240a:	f403 0380 	and.w	r3, r3, #4194304	; 0x400000
 800240e:	2b00      	cmp	r3, #0
 8002410:	d116      	bne.n	8002440 <HAL_RCC_OscConfig+0x168>
    {
      /* When HSI is used as system clock it will not disabled */
      if((__HAL_RCC_GET_FLAG(RCC_FLAG_HSIRDY) != RESET) && (RCC_OscInitStruct->HSIState != RCC_HSI_ON))
 8002412:	4b41      	ldr	r3, [pc, #260]	; (8002518 <HAL_RCC_OscConfig+0x240>)
 8002414:	681b      	ldr	r3, [r3, #0]
 8002416:	f003 0302 	and.w	r3, r3, #2
 800241a:	2b00      	cmp	r3, #0
 800241c:	d005      	beq.n	800242a <HAL_RCC_OscConfig+0x152>
 800241e:	687b      	ldr	r3, [r7, #4]
 8002420:	68db      	ldr	r3, [r3, #12]
 8002422:	2b01      	cmp	r3, #1
 8002424:	d001      	beq.n	800242a <HAL_RCC_OscConfig+0x152>
      {
        return HAL_ERROR;
 8002426:	2301      	movs	r3, #1
 8002428:	e1c7      	b.n	80027ba <HAL_RCC_OscConfig+0x4e2>
      }
      /* Otherwise, just the calibration is allowed */
      else
      {
        /* Adjusts the Internal High Speed oscillator (HSI) calibration value.*/
        __HAL_RCC_HSI_CALIBRATIONVALUE_ADJUST(RCC_OscInitStruct->HSICalibrationValue);
 800242a:	4b3b      	ldr	r3, [pc, #236]	; (8002518 <HAL_RCC_OscConfig+0x240>)
 800242c:	681b      	ldr	r3, [r3, #0]
 800242e:	f023 02f8 	bic.w	r2, r3, #248	; 0xf8
 8002432:	687b      	ldr	r3, [r7, #4]
 8002434:	691b      	ldr	r3, [r3, #16]
 8002436:	00db      	lsls	r3, r3, #3
 8002438:	4937      	ldr	r1, [pc, #220]	; (8002518 <HAL_RCC_OscConfig+0x240>)
 800243a:	4313      	orrs	r3, r2
 800243c:	600b      	str	r3, [r1, #0]
      if((__HAL_RCC_GET_FLAG(RCC_FLAG_HSIRDY) != RESET) && (RCC_OscInitStruct->HSIState != RCC_HSI_ON))
 800243e:	e03a      	b.n	80024b6 <HAL_RCC_OscConfig+0x1de>
      }
    }
    else
    {
      /* Check the HSI State */
      if((RCC_OscInitStruct->HSIState)!= RCC_HSI_OFF)
 8002440:	687b      	ldr	r3, [r7, #4]
 8002442:	68db      	ldr	r3, [r3, #12]
 8002444:	2b00      	cmp	r3, #0
 8002446:	d020      	beq.n	800248a <HAL_RCC_OscConfig+0x1b2>
      {
        /* Enable the Internal High Speed oscillator (HSI). */
        __HAL_RCC_HSI_ENABLE();
 8002448:	4b34      	ldr	r3, [pc, #208]	; (800251c <HAL_RCC_OscConfig+0x244>)
 800244a:	2201      	movs	r2, #1
 800244c:	601a      	str	r2, [r3, #0]

        /* Get Start Tick*/
        tickstart = HAL_GetTick();
 800244e:	f7ff fc4b 	bl	8001ce8 <HAL_GetTick>
 8002452:	6138      	str	r0, [r7, #16]

        /* Wait till HSI is ready */
        while(__HAL_RCC_GET_FLAG(RCC_FLAG_HSIRDY) == RESET)
 8002454:	e008      	b.n	8002468 <HAL_RCC_OscConfig+0x190>
        {
          if((HAL_GetTick() - tickstart ) > HSI_TIMEOUT_VALUE)
 8002456:	f7ff fc47 	bl	8001ce8 <HAL_GetTick>
 800245a:	4602      	mov	r2, r0
 800245c:	693b      	ldr	r3, [r7, #16]
 800245e:	1ad3      	subs	r3, r2, r3
 8002460:	2b02      	cmp	r3, #2
 8002462:	d901      	bls.n	8002468 <HAL_RCC_OscConfig+0x190>
          {
            return HAL_TIMEOUT;
 8002464:	2303      	movs	r3, #3
 8002466:	e1a8      	b.n	80027ba <HAL_RCC_OscConfig+0x4e2>
        while(__HAL_RCC_GET_FLAG(RCC_FLAG_HSIRDY) == RESET)
 8002468:	4b2b      	ldr	r3, [pc, #172]	; (8002518 <HAL_RCC_OscConfig+0x240>)
 800246a:	681b      	ldr	r3, [r3, #0]
 800246c:	f003 0302 	and.w	r3, r3, #2
 8002470:	2b00      	cmp	r3, #0
 8002472:	d0f0      	beq.n	8002456 <HAL_RCC_OscConfig+0x17e>
          }
        }

        /* Adjusts the Internal High Speed oscillator (HSI) calibration value. */
        __HAL_RCC_HSI_CALIBRATIONVALUE_ADJUST(RCC_OscInitStruct->HSICalibrationValue);
 8002474:	4b28      	ldr	r3, [pc, #160]	; (8002518 <HAL_RCC_OscConfig+0x240>)
 8002476:	681b      	ldr	r3, [r3, #0]
 8002478:	f023 02f8 	bic.w	r2, r3, #248	; 0xf8
 800247c:	687b      	ldr	r3, [r7, #4]
 800247e:	691b      	ldr	r3, [r3, #16]
 8002480:	00db      	lsls	r3, r3, #3
 8002482:	4925      	ldr	r1, [pc, #148]	; (8002518 <HAL_RCC_OscConfig+0x240>)
 8002484:	4313      	orrs	r3, r2
 8002486:	600b      	str	r3, [r1, #0]
 8002488:	e015      	b.n	80024b6 <HAL_RCC_OscConfig+0x1de>
      }
      else
      {
        /* Disable the Internal High Speed oscillator (HSI). */
        __HAL_RCC_HSI_DISABLE();
 800248a:	4b24      	ldr	r3, [pc, #144]	; (800251c <HAL_RCC_OscConfig+0x244>)
 800248c:	2200      	movs	r2, #0
 800248e:	601a      	str	r2, [r3, #0]

        /* Get Start Tick*/
        tickstart = HAL_GetTick();
 8002490:	f7ff fc2a 	bl	8001ce8 <HAL_GetTick>
 8002494:	6138      	str	r0, [r7, #16]

        /* Wait till HSI is ready */
        while(__HAL_RCC_GET_FLAG(RCC_FLAG_HSIRDY) != RESET)
 8002496:	e008      	b.n	80024aa <HAL_RCC_OscConfig+0x1d2>
        {
          if((HAL_GetTick() - tickstart ) > HSI_TIMEOUT_VALUE)
 8002498:	f7ff fc26 	bl	8001ce8 <HAL_GetTick>
 800249c:	4602      	mov	r2, r0
 800249e:	693b      	ldr	r3, [r7, #16]
 80024a0:	1ad3      	subs	r3, r2, r3
 80024a2:	2b02      	cmp	r3, #2
 80024a4:	d901      	bls.n	80024aa <HAL_RCC_OscConfig+0x1d2>
          {
            return HAL_TIMEOUT;
 80024a6:	2303      	movs	r3, #3
 80024a8:	e187      	b.n	80027ba <HAL_RCC_OscConfig+0x4e2>
        while(__HAL_RCC_GET_FLAG(RCC_FLAG_HSIRDY) != RESET)
 80024aa:	4b1b      	ldr	r3, [pc, #108]	; (8002518 <HAL_RCC_OscConfig+0x240>)
 80024ac:	681b      	ldr	r3, [r3, #0]
 80024ae:	f003 0302 	and.w	r3, r3, #2
 80024b2:	2b00      	cmp	r3, #0
 80024b4:	d1f0      	bne.n	8002498 <HAL_RCC_OscConfig+0x1c0>
        }
      }
    }
  }
  /*------------------------------ LSI Configuration -------------------------*/
  if(((RCC_OscInitStruct->OscillatorType) & RCC_OSCILLATORTYPE_LSI) == RCC_OSCILLATORTYPE_LSI)
 80024b6:	687b      	ldr	r3, [r7, #4]
 80024b8:	681b      	ldr	r3, [r3, #0]
 80024ba:	f003 0308 	and.w	r3, r3, #8
 80024be:	2b00      	cmp	r3, #0
 80024c0:	d036      	beq.n	8002530 <HAL_RCC_OscConfig+0x258>
  {
    /* Check the parameters */
    assert_param(IS_RCC_LSI(RCC_OscInitStruct->LSIState));

    /* Check the LSI State */
    if((RCC_OscInitStruct->LSIState)!= RCC_LSI_OFF)
 80024c2:	687b      	ldr	r3, [r7, #4]
 80024c4:	695b      	ldr	r3, [r3, #20]
 80024c6:	2b00      	cmp	r3, #0
 80024c8:	d016      	beq.n	80024f8 <HAL_RCC_OscConfig+0x220>
    {
      /* Enable the Internal Low Speed oscillator (LSI). */
      __HAL_RCC_LSI_ENABLE();
 80024ca:	4b15      	ldr	r3, [pc, #84]	; (8002520 <HAL_RCC_OscConfig+0x248>)
 80024cc:	2201      	movs	r2, #1
 80024ce:	601a      	str	r2, [r3, #0]

      /* Get Start Tick*/
      tickstart = HAL_GetTick();
 80024d0:	f7ff fc0a 	bl	8001ce8 <HAL_GetTick>
 80024d4:	6138      	str	r0, [r7, #16]

      /* Wait till LSI is ready */
      while(__HAL_RCC_GET_FLAG(RCC_FLAG_LSIRDY) == RESET)
 80024d6:	e008      	b.n	80024ea <HAL_RCC_OscConfig+0x212>
      {
        if((HAL_GetTick() - tickstart ) > LSI_TIMEOUT_VALUE)
 80024d8:	f7ff fc06 	bl	8001ce8 <HAL_GetTick>
 80024dc:	4602      	mov	r2, r0
 80024de:	693b      	ldr	r3, [r7, #16]
 80024e0:	1ad3      	subs	r3, r2, r3
 80024e2:	2b02      	cmp	r3, #2
 80024e4:	d901      	bls.n	80024ea <HAL_RCC_OscConfig+0x212>
        {
          return HAL_TIMEOUT;
 80024e6:	2303      	movs	r3, #3
 80024e8:	e167      	b.n	80027ba <HAL_RCC_OscConfig+0x4e2>
      while(__HAL_RCC_GET_FLAG(RCC_FLAG_LSIRDY) == RESET)
 80024ea:	4b0b      	ldr	r3, [pc, #44]	; (8002518 <HAL_RCC_OscConfig+0x240>)
 80024ec:	6f5b      	ldr	r3, [r3, #116]	; 0x74
 80024ee:	f003 0302 	and.w	r3, r3, #2
 80024f2:	2b00      	cmp	r3, #0
 80024f4:	d0f0      	beq.n	80024d8 <HAL_RCC_OscConfig+0x200>
 80024f6:	e01b      	b.n	8002530 <HAL_RCC_OscConfig+0x258>
      }
    }
    else
    {
      /* Disable the Internal Low Speed oscillator (LSI). */
      __HAL_RCC_LSI_DISABLE();
 80024f8:	4b09      	ldr	r3, [pc, #36]	; (8002520 <HAL_RCC_OscConfig+0x248>)
 80024fa:	2200      	movs	r2, #0
 80024fc:	601a      	str	r2, [r3, #0]

      /* Get Start Tick */
      tickstart = HAL_GetTick();
 80024fe:	f7ff fbf3 	bl	8001ce8 <HAL_GetTick>
 8002502:	6138      	str	r0, [r7, #16]

      /* Wait till LSI is ready */
      while(__HAL_RCC_GET_FLAG(RCC_FLAG_LSIRDY) != RESET)
 8002504:	e00e      	b.n	8002524 <HAL_RCC_OscConfig+0x24c>
      {
        if((HAL_GetTick() - tickstart ) > LSI_TIMEOUT_VALUE)
 8002506:	f7ff fbef 	bl	8001ce8 <HAL_GetTick>
 800250a:	4602      	mov	r2, r0
 800250c:	693b      	ldr	r3, [r7, #16]
 800250e:	1ad3      	subs	r3, r2, r3
 8002510:	2b02      	cmp	r3, #2
 8002512:	d907      	bls.n	8002524 <HAL_RCC_OscConfig+0x24c>
        {
          return HAL_TIMEOUT;
 8002514:	2303      	movs	r3, #3
 8002516:	e150      	b.n	80027ba <HAL_RCC_OscConfig+0x4e2>
 8002518:	40023800 	.word	0x40023800
 800251c:	42470000 	.word	0x42470000
 8002520:	42470e80 	.word	0x42470e80
      while(__HAL_RCC_GET_FLAG(RCC_FLAG_LSIRDY) != RESET)
 8002524:	4b88      	ldr	r3, [pc, #544]	; (8002748 <HAL_RCC_OscConfig+0x470>)
 8002526:	6f5b      	ldr	r3, [r3, #116]	; 0x74
 8002528:	f003 0302 	and.w	r3, r3, #2
 800252c:	2b00      	cmp	r3, #0
 800252e:	d1ea      	bne.n	8002506 <HAL_RCC_OscConfig+0x22e>
        }
      }
    }
  }
  /*------------------------------ LSE Configuration -------------------------*/
  if(((RCC_OscInitStruct->OscillatorType) & RCC_OSCILLATORTYPE_LSE) == RCC_OSCILLATORTYPE_LSE)
 8002530:	687b      	ldr	r3, [r7, #4]
 8002532:	681b      	ldr	r3, [r3, #0]
 8002534:	f003 0304 	and.w	r3, r3, #4
 8002538:	2b00      	cmp	r3, #0
 800253a:	f000 8097 	beq.w	800266c <HAL_RCC_OscConfig+0x394>
  {
    FlagStatus       pwrclkchanged = RESET;
 800253e:	2300      	movs	r3, #0
 8002540:	75fb      	strb	r3, [r7, #23]
    /* Check the parameters */
    assert_param(IS_RCC_LSE(RCC_OscInitStruct->LSEState));

    /* Update LSE configuration in Backup Domain control register    */
    /* Requires to enable write access to Backup Domain of necessary */
    if(__HAL_RCC_PWR_IS_CLK_DISABLED())
 8002542:	4b81      	ldr	r3, [pc, #516]	; (8002748 <HAL_RCC_OscConfig+0x470>)
 8002544:	6c1b      	ldr	r3, [r3, #64]	; 0x40
 8002546:	f003 5380 	and.w	r3, r3, #268435456	; 0x10000000
 800254a:	2b00      	cmp	r3, #0
 800254c:	d10f      	bne.n	800256e <HAL_RCC_OscConfig+0x296>
    {
      __HAL_RCC_PWR_CLK_ENABLE();
 800254e:	2300      	movs	r3, #0
 8002550:	60bb      	str	r3, [r7, #8]
 8002552:	4b7d      	ldr	r3, [pc, #500]	; (8002748 <HAL_RCC_OscConfig+0x470>)
 8002554:	6c1b      	ldr	r3, [r3, #64]	; 0x40
 8002556:	4a7c      	ldr	r2, [pc, #496]	; (8002748 <HAL_RCC_OscConfig+0x470>)
 8002558:	f043 5380 	orr.w	r3, r3, #268435456	; 0x10000000
 800255c:	6413      	str	r3, [r2, #64]	; 0x40
 800255e:	4b7a      	ldr	r3, [pc, #488]	; (8002748 <HAL_RCC_OscConfig+0x470>)
 8002560:	6c1b      	ldr	r3, [r3, #64]	; 0x40
 8002562:	f003 5380 	and.w	r3, r3, #268435456	; 0x10000000
 8002566:	60bb      	str	r3, [r7, #8]
 8002568:	68bb      	ldr	r3, [r7, #8]
      pwrclkchanged = SET;
 800256a:	2301      	movs	r3, #1
 800256c:	75fb      	strb	r3, [r7, #23]
    }

    if(HAL_IS_BIT_CLR(PWR->CR, PWR_CR_DBP))
 800256e:	4b77      	ldr	r3, [pc, #476]	; (800274c <HAL_RCC_OscConfig+0x474>)
 8002570:	681b      	ldr	r3, [r3, #0]
 8002572:	f403 7380 	and.w	r3, r3, #256	; 0x100
 8002576:	2b00      	cmp	r3, #0
 8002578:	d118      	bne.n	80025ac <HAL_RCC_OscConfig+0x2d4>
    {
      /* Enable write access to Backup domain */
      SET_BIT(PWR->CR, PWR_CR_DBP);
 800257a:	4b74      	ldr	r3, [pc, #464]	; (800274c <HAL_RCC_OscConfig+0x474>)
 800257c:	681b      	ldr	r3, [r3, #0]
 800257e:	4a73      	ldr	r2, [pc, #460]	; (800274c <HAL_RCC_OscConfig+0x474>)
 8002580:	f443 7380 	orr.w	r3, r3, #256	; 0x100
 8002584:	6013      	str	r3, [r2, #0]

      /* Wait for Backup domain Write protection disable */
      tickstart = HAL_GetTick();
 8002586:	f7ff fbaf 	bl	8001ce8 <HAL_GetTick>
 800258a:	6138      	str	r0, [r7, #16]

      while(HAL_IS_BIT_CLR(PWR->CR, PWR_CR_DBP))
 800258c:	e008      	b.n	80025a0 <HAL_RCC_OscConfig+0x2c8>
      {
        if((HAL_GetTick() - tickstart) > RCC_DBP_TIMEOUT_VALUE)
 800258e:	f7ff fbab 	bl	8001ce8 <HAL_GetTick>
 8002592:	4602      	mov	r2, r0
 8002594:	693b      	ldr	r3, [r7, #16]
 8002596:	1ad3      	subs	r3, r2, r3
 8002598:	2b02      	cmp	r3, #2
 800259a:	d901      	bls.n	80025a0 <HAL_RCC_OscConfig+0x2c8>
        {
          return HAL_TIMEOUT;
 800259c:	2303      	movs	r3, #3
 800259e:	e10c      	b.n	80027ba <HAL_RCC_OscConfig+0x4e2>
      while(HAL_IS_BIT_CLR(PWR->CR, PWR_CR_DBP))
 80025a0:	4b6a      	ldr	r3, [pc, #424]	; (800274c <HAL_RCC_OscConfig+0x474>)
 80025a2:	681b      	ldr	r3, [r3, #0]
 80025a4:	f403 7380 	and.w	r3, r3, #256	; 0x100
 80025a8:	2b00      	cmp	r3, #0
 80025aa:	d0f0      	beq.n	800258e <HAL_RCC_OscConfig+0x2b6>
        }
      }
    }

    /* Set the new LSE configuration -----------------------------------------*/
    __HAL_RCC_LSE_CONFIG(RCC_OscInitStruct->LSEState);
 80025ac:	687b      	ldr	r3, [r7, #4]
 80025ae:	689b      	ldr	r3, [r3, #8]
 80025b0:	2b01      	cmp	r3, #1
 80025b2:	d106      	bne.n	80025c2 <HAL_RCC_OscConfig+0x2ea>
 80025b4:	4b64      	ldr	r3, [pc, #400]	; (8002748 <HAL_RCC_OscConfig+0x470>)
 80025b6:	6f1b      	ldr	r3, [r3, #112]	; 0x70
 80025b8:	4a63      	ldr	r2, [pc, #396]	; (8002748 <HAL_RCC_OscConfig+0x470>)
 80025ba:	f043 0301 	orr.w	r3, r3, #1
 80025be:	6713      	str	r3, [r2, #112]	; 0x70
 80025c0:	e01c      	b.n	80025fc <HAL_RCC_OscConfig+0x324>
 80025c2:	687b      	ldr	r3, [r7, #4]
 80025c4:	689b      	ldr	r3, [r3, #8]
 80025c6:	2b05      	cmp	r3, #5
 80025c8:	d10c      	bne.n	80025e4 <HAL_RCC_OscConfig+0x30c>
 80025ca:	4b5f      	ldr	r3, [pc, #380]	; (8002748 <HAL_RCC_OscConfig+0x470>)
 80025cc:	6f1b      	ldr	r3, [r3, #112]	; 0x70
 80025ce:	4a5e      	ldr	r2, [pc, #376]	; (8002748 <HAL_RCC_OscConfig+0x470>)
 80025d0:	f043 0304 	orr.w	r3, r3, #4
 80025d4:	6713      	str	r3, [r2, #112]	; 0x70
 80025d6:	4b5c      	ldr	r3, [pc, #368]	; (8002748 <HAL_RCC_OscConfig+0x470>)
 80025d8:	6f1b      	ldr	r3, [r3, #112]	; 0x70
 80025da:	4a5b      	ldr	r2, [pc, #364]	; (8002748 <HAL_RCC_OscConfig+0x470>)
 80025dc:	f043 0301 	orr.w	r3, r3, #1
 80025e0:	6713      	str	r3, [r2, #112]	; 0x70
 80025e2:	e00b      	b.n	80025fc <HAL_RCC_OscConfig+0x324>
 80025e4:	4b58      	ldr	r3, [pc, #352]	; (8002748 <HAL_RCC_OscConfig+0x470>)
 80025e6:	6f1b      	ldr	r3, [r3, #112]	; 0x70
 80025e8:	4a57      	ldr	r2, [pc, #348]	; (8002748 <HAL_RCC_OscConfig+0x470>)
 80025ea:	f023 0301 	bic.w	r3, r3, #1
 80025ee:	6713      	str	r3, [r2, #112]	; 0x70
 80025f0:	4b55      	ldr	r3, [pc, #340]	; (8002748 <HAL_RCC_OscConfig+0x470>)
 80025f2:	6f1b      	ldr	r3, [r3, #112]	; 0x70
 80025f4:	4a54      	ldr	r2, [pc, #336]	; (8002748 <HAL_RCC_OscConfig+0x470>)
 80025f6:	f023 0304 	bic.w	r3, r3, #4
 80025fa:	6713      	str	r3, [r2, #112]	; 0x70
    /* Check the LSE State */
    if((RCC_OscInitStruct->LSEState) != RCC_LSE_OFF)
 80025fc:	687b      	ldr	r3, [r7, #4]
 80025fe:	689b      	ldr	r3, [r3, #8]
 8002600:	2b00      	cmp	r3, #0
 8002602:	d015      	beq.n	8002630 <HAL_RCC_OscConfig+0x358>
    {
      /* Get Start Tick*/
      tickstart = HAL_GetTick();
 8002604:	f7ff fb70 	bl	8001ce8 <HAL_GetTick>
 8002608:	6138      	str	r0, [r7, #16]

      /* Wait till LSE is ready */
      while(__HAL_RCC_GET_FLAG(RCC_FLAG_LSERDY) == RESET)
 800260a:	e00a      	b.n	8002622 <HAL_RCC_OscConfig+0x34a>
      {
        if((HAL_GetTick() - tickstart ) > RCC_LSE_TIMEOUT_VALUE)
 800260c:	f7ff fb6c 	bl	8001ce8 <HAL_GetTick>
 8002610:	4602      	mov	r2, r0
 8002612:	693b      	ldr	r3, [r7, #16]
 8002614:	1ad3      	subs	r3, r2, r3
 8002616:	f241 3288 	movw	r2, #5000	; 0x1388
 800261a:	4293      	cmp	r3, r2
 800261c:	d901      	bls.n	8002622 <HAL_RCC_OscConfig+0x34a>
        {
          return HAL_TIMEOUT;
 800261e:	2303      	movs	r3, #3
 8002620:	e0cb      	b.n	80027ba <HAL_RCC_OscConfig+0x4e2>
      while(__HAL_RCC_GET_FLAG(RCC_FLAG_LSERDY) == RESET)
 8002622:	4b49      	ldr	r3, [pc, #292]	; (8002748 <HAL_RCC_OscConfig+0x470>)
 8002624:	6f1b      	ldr	r3, [r3, #112]	; 0x70
 8002626:	f003 0302 	and.w	r3, r3, #2
 800262a:	2b00      	cmp	r3, #0
 800262c:	d0ee      	beq.n	800260c <HAL_RCC_OscConfig+0x334>
 800262e:	e014      	b.n	800265a <HAL_RCC_OscConfig+0x382>
      }
    }
    else
    {
      /* Get Start Tick */
      tickstart = HAL_GetTick();
 8002630:	f7ff fb5a 	bl	8001ce8 <HAL_GetTick>
 8002634:	6138      	str	r0, [r7, #16]

      /* Wait till LSE is ready */
      while(__HAL_RCC_GET_FLAG(RCC_FLAG_LSERDY) != RESET)
 8002636:	e00a      	b.n	800264e <HAL_RCC_OscConfig+0x376>
      {
        if((HAL_GetTick() - tickstart ) > RCC_LSE_TIMEOUT_VALUE)
 8002638:	f7ff fb56 	bl	8001ce8 <HAL_GetTick>
 800263c:	4602      	mov	r2, r0
 800263e:	693b      	ldr	r3, [r7, #16]
 8002640:	1ad3      	subs	r3, r2, r3
 8002642:	f241 3288 	movw	r2, #5000	; 0x1388
 8002646:	4293      	cmp	r3, r2
 8002648:	d901      	bls.n	800264e <HAL_RCC_OscConfig+0x376>
        {
          return HAL_TIMEOUT;
 800264a:	2303      	movs	r3, #3
 800264c:	e0b5      	b.n	80027ba <HAL_RCC_OscConfig+0x4e2>
      while(__HAL_RCC_GET_FLAG(RCC_FLAG_LSERDY) != RESET)
 800264e:	4b3e      	ldr	r3, [pc, #248]	; (8002748 <HAL_RCC_OscConfig+0x470>)
 8002650:	6f1b      	ldr	r3, [r3, #112]	; 0x70
 8002652:	f003 0302 	and.w	r3, r3, #2
 8002656:	2b00      	cmp	r3, #0
 8002658:	d1ee      	bne.n	8002638 <HAL_RCC_OscConfig+0x360>
        }
      }
    }

    /* Restore clock configuration if changed */
    if(pwrclkchanged == SET)
 800265a:	7dfb      	ldrb	r3, [r7, #23]
 800265c:	2b01      	cmp	r3, #1
 800265e:	d105      	bne.n	800266c <HAL_RCC_OscConfig+0x394>
    {
      __HAL_RCC_PWR_CLK_DISABLE();
 8002660:	4b39      	ldr	r3, [pc, #228]	; (8002748 <HAL_RCC_OscConfig+0x470>)
 8002662:	6c1b      	ldr	r3, [r3, #64]	; 0x40
 8002664:	4a38      	ldr	r2, [pc, #224]	; (8002748 <HAL_RCC_OscConfig+0x470>)
 8002666:	f023 5380 	bic.w	r3, r3, #268435456	; 0x10000000
 800266a:	6413      	str	r3, [r2, #64]	; 0x40
    }
  }
  /*-------------------------------- PLL Configuration -----------------------*/
  /* Check the parameters */
  assert_param(IS_RCC_PLL(RCC_OscInitStruct->PLL.PLLState));
  if ((RCC_OscInitStruct->PLL.PLLState) != RCC_PLL_NONE)
 800266c:	687b      	ldr	r3, [r7, #4]
 800266e:	699b      	ldr	r3, [r3, #24]
 8002670:	2b00      	cmp	r3, #0
 8002672:	f000 80a1 	beq.w	80027b8 <HAL_RCC_OscConfig+0x4e0>
  {
    /* Check if the PLL is used as system clock or not */
    if(__HAL_RCC_GET_SYSCLK_SOURCE() != RCC_CFGR_SWS_PLL)
 8002676:	4b34      	ldr	r3, [pc, #208]	; (8002748 <HAL_RCC_OscConfig+0x470>)
 8002678:	689b      	ldr	r3, [r3, #8]
 800267a:	f003 030c 	and.w	r3, r3, #12
 800267e:	2b08      	cmp	r3, #8
 8002680:	d05c      	beq.n	800273c <HAL_RCC_OscConfig+0x464>
    {
      if((RCC_OscInitStruct->PLL.PLLState) == RCC_PLL_ON)
 8002682:	687b      	ldr	r3, [r7, #4]
 8002684:	699b      	ldr	r3, [r3, #24]
 8002686:	2b02      	cmp	r3, #2
 8002688:	d141      	bne.n	800270e <HAL_RCC_OscConfig+0x436>
        assert_param(IS_RCC_PLLN_VALUE(RCC_OscInitStruct->PLL.PLLN));
        assert_param(IS_RCC_PLLP_VALUE(RCC_OscInitStruct->PLL.PLLP));
        assert_param(IS_RCC_PLLQ_VALUE(RCC_OscInitStruct->PLL.PLLQ));

        /* Disable the main PLL. */
        __HAL_RCC_PLL_DISABLE();
 800268a:	4b31      	ldr	r3, [pc, #196]	; (8002750 <HAL_RCC_OscConfig+0x478>)
 800268c:	2200      	movs	r2, #0
 800268e:	601a      	str	r2, [r3, #0]

        /* Get Start Tick */
        tickstart = HAL_GetTick();
 8002690:	f7ff fb2a 	bl	8001ce8 <HAL_GetTick>
 8002694:	6138      	str	r0, [r7, #16]

        /* Wait till PLL is ready */
        while(__HAL_RCC_GET_FLAG(RCC_FLAG_PLLRDY) != RESET)
 8002696:	e008      	b.n	80026aa <HAL_RCC_OscConfig+0x3d2>
        {
          if((HAL_GetTick() - tickstart ) > PLL_TIMEOUT_VALUE)
 8002698:	f7ff fb26 	bl	8001ce8 <HAL_GetTick>
 800269c:	4602      	mov	r2, r0
 800269e:	693b      	ldr	r3, [r7, #16]
 80026a0:	1ad3      	subs	r3, r2, r3
 80026a2:	2b02      	cmp	r3, #2
 80026a4:	d901      	bls.n	80026aa <HAL_RCC_OscConfig+0x3d2>
          {
            return HAL_TIMEOUT;
 80026a6:	2303      	movs	r3, #3
 80026a8:	e087      	b.n	80027ba <HAL_RCC_OscConfig+0x4e2>
        while(__HAL_RCC_GET_FLAG(RCC_FLAG_PLLRDY) != RESET)
 80026aa:	4b27      	ldr	r3, [pc, #156]	; (8002748 <HAL_RCC_OscConfig+0x470>)
 80026ac:	681b      	ldr	r3, [r3, #0]
 80026ae:	f003 7300 	and.w	r3, r3, #33554432	; 0x2000000
 80026b2:	2b00      	cmp	r3, #0
 80026b4:	d1f0      	bne.n	8002698 <HAL_RCC_OscConfig+0x3c0>
          }
        }

        /* Configure the main PLL clock source, multiplication and division factors. */
        WRITE_REG(RCC->PLLCFGR, (RCC_OscInitStruct->PLL.PLLSource                                            | \
 80026b6:	687b      	ldr	r3, [r7, #4]
 80026b8:	69da      	ldr	r2, [r3, #28]
 80026ba:	687b      	ldr	r3, [r7, #4]
 80026bc:	6a1b      	ldr	r3, [r3, #32]
 80026be:	431a      	orrs	r2, r3
 80026c0:	687b      	ldr	r3, [r7, #4]
 80026c2:	6a5b      	ldr	r3, [r3, #36]	; 0x24
 80026c4:	019b      	lsls	r3, r3, #6
 80026c6:	431a      	orrs	r2, r3
 80026c8:	687b      	ldr	r3, [r7, #4]
 80026ca:	6a9b      	ldr	r3, [r3, #40]	; 0x28
 80026cc:	085b      	lsrs	r3, r3, #1
 80026ce:	3b01      	subs	r3, #1
 80026d0:	041b      	lsls	r3, r3, #16
 80026d2:	431a      	orrs	r2, r3
 80026d4:	687b      	ldr	r3, [r7, #4]
 80026d6:	6adb      	ldr	r3, [r3, #44]	; 0x2c
 80026d8:	061b      	lsls	r3, r3, #24
 80026da:	491b      	ldr	r1, [pc, #108]	; (8002748 <HAL_RCC_OscConfig+0x470>)
 80026dc:	4313      	orrs	r3, r2
 80026de:	604b      	str	r3, [r1, #4]
                                 RCC_OscInitStruct->PLL.PLLM                                                 | \
                                 (RCC_OscInitStruct->PLL.PLLN << RCC_PLLCFGR_PLLN_Pos)             | \
                                 (((RCC_OscInitStruct->PLL.PLLP >> 1U) - 1U) << RCC_PLLCFGR_PLLP_Pos) | \
                                 (RCC_OscInitStruct->PLL.PLLQ << RCC_PLLCFGR_PLLQ_Pos)));
        /* Enable the main PLL. */
        __HAL_RCC_PLL_ENABLE();
 80026e0:	4b1b      	ldr	r3, [pc, #108]	; (8002750 <HAL_RCC_OscConfig+0x478>)
 80026e2:	2201      	movs	r2, #1
 80026e4:	601a      	str	r2, [r3, #0]

        /* Get Start Tick */
        tickstart = HAL_GetTick();
 80026e6:	f7ff faff 	bl	8001ce8 <HAL_GetTick>
 80026ea:	6138      	str	r0, [r7, #16]

        /* Wait till PLL is ready */
        while(__HAL_RCC_GET_FLAG(RCC_FLAG_PLLRDY) == RESET)
 80026ec:	e008      	b.n	8002700 <HAL_RCC_OscConfig+0x428>
        {
          if((HAL_GetTick() - tickstart ) > PLL_TIMEOUT_VALUE)
 80026ee:	f7ff fafb 	bl	8001ce8 <HAL_GetTick>
 80026f2:	4602      	mov	r2, r0
 80026f4:	693b      	ldr	r3, [r7, #16]
 80026f6:	1ad3      	subs	r3, r2, r3
 80026f8:	2b02      	cmp	r3, #2
 80026fa:	d901      	bls.n	8002700 <HAL_RCC_OscConfig+0x428>
          {
            return HAL_TIMEOUT;
 80026fc:	2303      	movs	r3, #3
 80026fe:	e05c      	b.n	80027ba <HAL_RCC_OscConfig+0x4e2>
        while(__HAL_RCC_GET_FLAG(RCC_FLAG_PLLRDY) == RESET)
 8002700:	4b11      	ldr	r3, [pc, #68]	; (8002748 <HAL_RCC_OscConfig+0x470>)
 8002702:	681b      	ldr	r3, [r3, #0]
 8002704:	f003 7300 	and.w	r3, r3, #33554432	; 0x2000000
 8002708:	2b00      	cmp	r3, #0
 800270a:	d0f0      	beq.n	80026ee <HAL_RCC_OscConfig+0x416>
 800270c:	e054      	b.n	80027b8 <HAL_RCC_OscConfig+0x4e0>
        }
      }
      else
      {
        /* Disable the main PLL. */
        __HAL_RCC_PLL_DISABLE();
 800270e:	4b10      	ldr	r3, [pc, #64]	; (8002750 <HAL_RCC_OscConfig+0x478>)
 8002710:	2200      	movs	r2, #0
 8002712:	601a      	str	r2, [r3, #0]

        /* Get Start Tick */
        tickstart = HAL_GetTick();
 8002714:	f7ff fae8 	bl	8001ce8 <HAL_GetTick>
 8002718:	6138      	str	r0, [r7, #16]

        /* Wait till PLL is ready */
        while(__HAL_RCC_GET_FLAG(RCC_FLAG_PLLRDY) != RESET)
 800271a:	e008      	b.n	800272e <HAL_RCC_OscConfig+0x456>
        {
          if((HAL_GetTick() - tickstart ) > PLL_TIMEOUT_VALUE)
 800271c:	f7ff fae4 	bl	8001ce8 <HAL_GetTick>
 8002720:	4602      	mov	r2, r0
 8002722:	693b      	ldr	r3, [r7, #16]
 8002724:	1ad3      	subs	r3, r2, r3
 8002726:	2b02      	cmp	r3, #2
 8002728:	d901      	bls.n	800272e <HAL_RCC_OscConfig+0x456>
          {
            return HAL_TIMEOUT;
 800272a:	2303      	movs	r3, #3
 800272c:	e045      	b.n	80027ba <HAL_RCC_OscConfig+0x4e2>
        while(__HAL_RCC_GET_FLAG(RCC_FLAG_PLLRDY) != RESET)
 800272e:	4b06      	ldr	r3, [pc, #24]	; (8002748 <HAL_RCC_OscConfig+0x470>)
 8002730:	681b      	ldr	r3, [r3, #0]
 8002732:	f003 7300 	and.w	r3, r3, #33554432	; 0x2000000
 8002736:	2b00      	cmp	r3, #0
 8002738:	d1f0      	bne.n	800271c <HAL_RCC_OscConfig+0x444>
 800273a:	e03d      	b.n	80027b8 <HAL_RCC_OscConfig+0x4e0>
      }
    }
    else
    {
      /* Check if there is a request to disable the PLL used as System clock source */
      if((RCC_OscInitStruct->PLL.PLLState) == RCC_PLL_OFF)
 800273c:	687b      	ldr	r3, [r7, #4]
 800273e:	699b      	ldr	r3, [r3, #24]
 8002740:	2b01      	cmp	r3, #1
 8002742:	d107      	bne.n	8002754 <HAL_RCC_OscConfig+0x47c>
      {
        return HAL_ERROR;
 8002744:	2301      	movs	r3, #1
 8002746:	e038      	b.n	80027ba <HAL_RCC_OscConfig+0x4e2>
 8002748:	40023800 	.word	0x40023800
 800274c:	40007000 	.word	0x40007000
 8002750:	42470060 	.word	0x42470060
      }
      else
      {
        /* Do not return HAL_ERROR if request repeats the current configuration */
        pll_config = RCC->PLLCFGR;
 8002754:	4b1b      	ldr	r3, [pc, #108]	; (80027c4 <HAL_RCC_OscConfig+0x4ec>)
 8002756:	685b      	ldr	r3, [r3, #4]
 8002758:	60fb      	str	r3, [r7, #12]
            (READ_BIT(pll_config, RCC_PLLCFGR_PLLN) != (RCC_OscInitStruct->PLL.PLLN) << RCC_PLLCFGR_PLLN_Pos) ||
            (READ_BIT(pll_config, RCC_PLLCFGR_PLLP) != (((RCC_OscInitStruct->PLL.PLLP >> 1U) - 1U)) << RCC_PLLCFGR_PLLP_Pos) ||
            (READ_BIT(pll_config, RCC_PLLCFGR_PLLQ) != (RCC_OscInitStruct->PLL.PLLQ << RCC_PLLCFGR_PLLQ_Pos)) ||
            (READ_BIT(pll_config, RCC_PLLCFGR_PLLR) != (RCC_OscInitStruct->PLL.PLLR << RCC_PLLCFGR_PLLR_Pos)))
#else
        if (((RCC_OscInitStruct->PLL.PLLState) == RCC_PLL_OFF) ||
 800275a:	687b      	ldr	r3, [r7, #4]
 800275c:	699b      	ldr	r3, [r3, #24]
 800275e:	2b01      	cmp	r3, #1
 8002760:	d028      	beq.n	80027b4 <HAL_RCC_OscConfig+0x4dc>
            (READ_BIT(pll_config, RCC_PLLCFGR_PLLSRC) != RCC_OscInitStruct->PLL.PLLSource) ||
 8002762:	68fb      	ldr	r3, [r7, #12]
 8002764:	f403 0280 	and.w	r2, r3, #4194304	; 0x400000
 8002768:	687b      	ldr	r3, [r7, #4]
 800276a:	69db      	ldr	r3, [r3, #28]
        if (((RCC_OscInitStruct->PLL.PLLState) == RCC_PLL_OFF) ||
 800276c:	429a      	cmp	r2, r3
 800276e:	d121      	bne.n	80027b4 <HAL_RCC_OscConfig+0x4dc>
            (READ_BIT(pll_config, RCC_PLLCFGR_PLLM) != (RCC_OscInitStruct->PLL.PLLM) << RCC_PLLCFGR_PLLM_Pos) ||
 8002770:	68fb      	ldr	r3, [r7, #12]
 8002772:	f003 023f 	and.w	r2, r3, #63	; 0x3f
 8002776:	687b      	ldr	r3, [r7, #4]
 8002778:	6a1b      	ldr	r3, [r3, #32]
            (READ_BIT(pll_config, RCC_PLLCFGR_PLLSRC) != RCC_OscInitStruct->PLL.PLLSource) ||
 800277a:	429a      	cmp	r2, r3
 800277c:	d11a      	bne.n	80027b4 <HAL_RCC_OscConfig+0x4dc>
            (READ_BIT(pll_config, RCC_PLLCFGR_PLLN) != (RCC_OscInitStruct->PLL.PLLN) << RCC_PLLCFGR_PLLN_Pos) ||
 800277e:	68fa      	ldr	r2, [r7, #12]
 8002780:	f647 73c0 	movw	r3, #32704	; 0x7fc0
 8002784:	4013      	ands	r3, r2
 8002786:	687a      	ldr	r2, [r7, #4]
 8002788:	6a52      	ldr	r2, [r2, #36]	; 0x24
 800278a:	0192      	lsls	r2, r2, #6
            (READ_BIT(pll_config, RCC_PLLCFGR_PLLM) != (RCC_OscInitStruct->PLL.PLLM) << RCC_PLLCFGR_PLLM_Pos) ||
 800278c:	4293      	cmp	r3, r2
 800278e:	d111      	bne.n	80027b4 <HAL_RCC_OscConfig+0x4dc>
            (READ_BIT(pll_config, RCC_PLLCFGR_PLLP) != (((RCC_OscInitStruct->PLL.PLLP >> 1U) - 1U)) << RCC_PLLCFGR_PLLP_Pos) ||
 8002790:	68fb      	ldr	r3, [r7, #12]
 8002792:	f403 3240 	and.w	r2, r3, #196608	; 0x30000
 8002796:	687b      	ldr	r3, [r7, #4]
 8002798:	6a9b      	ldr	r3, [r3, #40]	; 0x28
 800279a:	085b      	lsrs	r3, r3, #1
 800279c:	3b01      	subs	r3, #1
 800279e:	041b      	lsls	r3, r3, #16
            (READ_BIT(pll_config, RCC_PLLCFGR_PLLN) != (RCC_OscInitStruct->PLL.PLLN) << RCC_PLLCFGR_PLLN_Pos) ||
 80027a0:	429a      	cmp	r2, r3
 80027a2:	d107      	bne.n	80027b4 <HAL_RCC_OscConfig+0x4dc>
            (READ_BIT(pll_config, RCC_PLLCFGR_PLLQ) != (RCC_OscInitStruct->PLL.PLLQ << RCC_PLLCFGR_PLLQ_Pos)))
 80027a4:	68fb      	ldr	r3, [r7, #12]
 80027a6:	f003 6270 	and.w	r2, r3, #251658240	; 0xf000000
 80027aa:	687b      	ldr	r3, [r7, #4]
 80027ac:	6adb      	ldr	r3, [r3, #44]	; 0x2c
 80027ae:	061b      	lsls	r3, r3, #24
            (READ_BIT(pll_config, RCC_PLLCFGR_PLLP) != (((RCC_OscInitStruct->PLL.PLLP >> 1U) - 1U)) << RCC_PLLCFGR_PLLP_Pos) ||
 80027b0:	429a      	cmp	r2, r3
 80027b2:	d001      	beq.n	80027b8 <HAL_RCC_OscConfig+0x4e0>
#endif
        {
          return HAL_ERROR;
 80027b4:	2301      	movs	r3, #1
 80027b6:	e000      	b.n	80027ba <HAL_RCC_OscConfig+0x4e2>
        }
      }
    }
  }
  return HAL_OK;
 80027b8:	2300      	movs	r3, #0
}
 80027ba:	4618      	mov	r0, r3
 80027bc:	3718      	adds	r7, #24
 80027be:	46bd      	mov	sp, r7
 80027c0:	bd80      	pop	{r7, pc}
 80027c2:	bf00      	nop
 80027c4:	40023800 	.word	0x40023800

080027c8 <HAL_RCC_ClockConfig>:
  *         HPRE[3:0] bits to ensure that HCLK not exceed the maximum allowed frequency
  *         (for more details refer to section above "Initialization/de-initialization functions")
  * @retval None
  */
HAL_StatusTypeDef HAL_RCC_ClockConfig(RCC_ClkInitTypeDef  *RCC_ClkInitStruct, uint32_t FLatency)
{
 80027c8:	b580      	push	{r7, lr}
 80027ca:	b084      	sub	sp, #16
 80027cc:	af00      	add	r7, sp, #0
 80027ce:	6078      	str	r0, [r7, #4]
 80027d0:	6039      	str	r1, [r7, #0]
  uint32_t tickstart;

  /* Check Null pointer */
  if(RCC_ClkInitStruct == NULL)
 80027d2:	687b      	ldr	r3, [r7, #4]
 80027d4:	2b00      	cmp	r3, #0
 80027d6:	d101      	bne.n	80027dc <HAL_RCC_ClockConfig+0x14>
  {
    return HAL_ERROR;
 80027d8:	2301      	movs	r3, #1
 80027da:	e0cc      	b.n	8002976 <HAL_RCC_ClockConfig+0x1ae>
  /* To correctly read data from FLASH memory, the number of wait states (LATENCY)
    must be correctly programmed according to the frequency of the CPU clock
    (HCLK) and the supply voltage of the device. */

  /* Increasing the number of wait states because of higher CPU frequency */
  if(FLatency > __HAL_FLASH_GET_LATENCY())
 80027dc:	4b68      	ldr	r3, [pc, #416]	; (8002980 <HAL_RCC_ClockConfig+0x1b8>)
 80027de:	681b      	ldr	r3, [r3, #0]
 80027e0:	f003 0307 	and.w	r3, r3, #7
 80027e4:	683a      	ldr	r2, [r7, #0]
 80027e6:	429a      	cmp	r2, r3
 80027e8:	d90c      	bls.n	8002804 <HAL_RCC_ClockConfig+0x3c>
  {
    /* Program the new number of wait states to the LATENCY bits in the FLASH_ACR register */
    __HAL_FLASH_SET_LATENCY(FLatency);
 80027ea:	4b65      	ldr	r3, [pc, #404]	; (8002980 <HAL_RCC_ClockConfig+0x1b8>)
 80027ec:	683a      	ldr	r2, [r7, #0]
 80027ee:	b2d2      	uxtb	r2, r2
 80027f0:	701a      	strb	r2, [r3, #0]

    /* Check that the new number of wait states is taken into account to access the Flash
    memory by reading the FLASH_ACR register */
    if(__HAL_FLASH_GET_LATENCY() != FLatency)
 80027f2:	4b63      	ldr	r3, [pc, #396]	; (8002980 <HAL_RCC_ClockConfig+0x1b8>)
 80027f4:	681b      	ldr	r3, [r3, #0]
 80027f6:	f003 0307 	and.w	r3, r3, #7
 80027fa:	683a      	ldr	r2, [r7, #0]
 80027fc:	429a      	cmp	r2, r3
 80027fe:	d001      	beq.n	8002804 <HAL_RCC_ClockConfig+0x3c>
    {
      return HAL_ERROR;
 8002800:	2301      	movs	r3, #1
 8002802:	e0b8      	b.n	8002976 <HAL_RCC_ClockConfig+0x1ae>
    }
  }

  /*-------------------------- HCLK Configuration --------------------------*/
  if(((RCC_ClkInitStruct->ClockType) & RCC_CLOCKTYPE_HCLK) == RCC_CLOCKTYPE_HCLK)
 8002804:	687b      	ldr	r3, [r7, #4]
 8002806:	681b      	ldr	r3, [r3, #0]
 8002808:	f003 0302 	and.w	r3, r3, #2
 800280c:	2b00      	cmp	r3, #0
 800280e:	d020      	beq.n	8002852 <HAL_RCC_ClockConfig+0x8a>
  {
    /* Set the highest APBx dividers in order to ensure that we do not go through
       a non-spec phase whatever we decrease or increase HCLK. */
    if(((RCC_ClkInitStruct->ClockType) & RCC_CLOCKTYPE_PCLK1) == RCC_CLOCKTYPE_PCLK1)
 8002810:	687b      	ldr	r3, [r7, #4]
 8002812:	681b      	ldr	r3, [r3, #0]
 8002814:	f003 0304 	and.w	r3, r3, #4
 8002818:	2b00      	cmp	r3, #0
 800281a:	d005      	beq.n	8002828 <HAL_RCC_ClockConfig+0x60>
    {
      MODIFY_REG(RCC->CFGR, RCC_CFGR_PPRE1, RCC_HCLK_DIV16);
 800281c:	4b59      	ldr	r3, [pc, #356]	; (8002984 <HAL_RCC_ClockConfig+0x1bc>)
 800281e:	689b      	ldr	r3, [r3, #8]
 8002820:	4a58      	ldr	r2, [pc, #352]	; (8002984 <HAL_RCC_ClockConfig+0x1bc>)
 8002822:	f443 53e0 	orr.w	r3, r3, #7168	; 0x1c00
 8002826:	6093      	str	r3, [r2, #8]
    }

    if(((RCC_ClkInitStruct->ClockType) & RCC_CLOCKTYPE_PCLK2) == RCC_CLOCKTYPE_PCLK2)
 8002828:	687b      	ldr	r3, [r7, #4]
 800282a:	681b      	ldr	r3, [r3, #0]
 800282c:	f003 0308 	and.w	r3, r3, #8
 8002830:	2b00      	cmp	r3, #0
 8002832:	d005      	beq.n	8002840 <HAL_RCC_ClockConfig+0x78>
    {
      MODIFY_REG(RCC->CFGR, RCC_CFGR_PPRE2, (RCC_HCLK_DIV16 << 3));
 8002834:	4b53      	ldr	r3, [pc, #332]	; (8002984 <HAL_RCC_ClockConfig+0x1bc>)
 8002836:	689b      	ldr	r3, [r3, #8]
 8002838:	4a52      	ldr	r2, [pc, #328]	; (8002984 <HAL_RCC_ClockConfig+0x1bc>)
 800283a:	f443 4360 	orr.w	r3, r3, #57344	; 0xe000
 800283e:	6093      	str	r3, [r2, #8]
    }

    assert_param(IS_RCC_HCLK(RCC_ClkInitStruct->AHBCLKDivider));
    MODIFY_REG(RCC->CFGR, RCC_CFGR_HPRE, RCC_ClkInitStruct->AHBCLKDivider);
 8002840:	4b50      	ldr	r3, [pc, #320]	; (8002984 <HAL_RCC_ClockConfig+0x1bc>)
 8002842:	689b      	ldr	r3, [r3, #8]
 8002844:	f023 02f0 	bic.w	r2, r3, #240	; 0xf0
 8002848:	687b      	ldr	r3, [r7, #4]
 800284a:	689b      	ldr	r3, [r3, #8]
 800284c:	494d      	ldr	r1, [pc, #308]	; (8002984 <HAL_RCC_ClockConfig+0x1bc>)
 800284e:	4313      	orrs	r3, r2
 8002850:	608b      	str	r3, [r1, #8]
  }

  /*------------------------- SYSCLK Configuration ---------------------------*/
  if(((RCC_ClkInitStruct->ClockType) & RCC_CLOCKTYPE_SYSCLK) == RCC_CLOCKTYPE_SYSCLK)
 8002852:	687b      	ldr	r3, [r7, #4]
 8002854:	681b      	ldr	r3, [r3, #0]
 8002856:	f003 0301 	and.w	r3, r3, #1
 800285a:	2b00      	cmp	r3, #0
 800285c:	d044      	beq.n	80028e8 <HAL_RCC_ClockConfig+0x120>
  {
    assert_param(IS_RCC_SYSCLKSOURCE(RCC_ClkInitStruct->SYSCLKSource));

    /* HSE is selected as System Clock Source */
    if(RCC_ClkInitStruct->SYSCLKSource == RCC_SYSCLKSOURCE_HSE)
 800285e:	687b      	ldr	r3, [r7, #4]
 8002860:	685b      	ldr	r3, [r3, #4]
 8002862:	2b01      	cmp	r3, #1
 8002864:	d107      	bne.n	8002876 <HAL_RCC_ClockConfig+0xae>
    {
      /* Check the HSE ready flag */
      if(__HAL_RCC_GET_FLAG(RCC_FLAG_HSERDY) == RESET)
 8002866:	4b47      	ldr	r3, [pc, #284]	; (8002984 <HAL_RCC_ClockConfig+0x1bc>)
 8002868:	681b      	ldr	r3, [r3, #0]
 800286a:	f403 3300 	and.w	r3, r3, #131072	; 0x20000
 800286e:	2b00      	cmp	r3, #0
 8002870:	d119      	bne.n	80028a6 <HAL_RCC_ClockConfig+0xde>
      {
        return HAL_ERROR;
 8002872:	2301      	movs	r3, #1
 8002874:	e07f      	b.n	8002976 <HAL_RCC_ClockConfig+0x1ae>
      }
    }
    /* PLL is selected as System Clock Source */
    else if((RCC_ClkInitStruct->SYSCLKSource == RCC_SYSCLKSOURCE_PLLCLK)   ||
 8002876:	687b      	ldr	r3, [r7, #4]
 8002878:	685b      	ldr	r3, [r3, #4]
 800287a:	2b02      	cmp	r3, #2
 800287c:	d003      	beq.n	8002886 <HAL_RCC_ClockConfig+0xbe>
            (RCC_ClkInitStruct->SYSCLKSource == RCC_SYSCLKSOURCE_PLLRCLK))
 800287e:	687b      	ldr	r3, [r7, #4]
 8002880:	685b      	ldr	r3, [r3, #4]
    else if((RCC_ClkInitStruct->SYSCLKSource == RCC_SYSCLKSOURCE_PLLCLK)   ||
 8002882:	2b03      	cmp	r3, #3
 8002884:	d107      	bne.n	8002896 <HAL_RCC_ClockConfig+0xce>
    {
      /* Check the PLL ready flag */
      if(__HAL_RCC_GET_FLAG(RCC_FLAG_PLLRDY) == RESET)
 8002886:	4b3f      	ldr	r3, [pc, #252]	; (8002984 <HAL_RCC_ClockConfig+0x1bc>)
 8002888:	681b      	ldr	r3, [r3, #0]
 800288a:	f003 7300 	and.w	r3, r3, #33554432	; 0x2000000
 800288e:	2b00      	cmp	r3, #0
 8002890:	d109      	bne.n	80028a6 <HAL_RCC_ClockConfig+0xde>
      {
        return HAL_ERROR;
 8002892:	2301      	movs	r3, #1
 8002894:	e06f      	b.n	8002976 <HAL_RCC_ClockConfig+0x1ae>
    }
    /* HSI is selected as System Clock Source */
    else
    {
      /* Check the HSI ready flag */
      if(__HAL_RCC_GET_FLAG(RCC_FLAG_HSIRDY) == RESET)
 8002896:	4b3b      	ldr	r3, [pc, #236]	; (8002984 <HAL_RCC_ClockConfig+0x1bc>)
 8002898:	681b      	ldr	r3, [r3, #0]
 800289a:	f003 0302 	and.w	r3, r3, #2
 800289e:	2b00      	cmp	r3, #0
 80028a0:	d101      	bne.n	80028a6 <HAL_RCC_ClockConfig+0xde>
      {
        return HAL_ERROR;
 80028a2:	2301      	movs	r3, #1
 80028a4:	e067      	b.n	8002976 <HAL_RCC_ClockConfig+0x1ae>
      }
    }

    __HAL_RCC_SYSCLK_CONFIG(RCC_ClkInitStruct->SYSCLKSource);
 80028a6:	4b37      	ldr	r3, [pc, #220]	; (8002984 <HAL_RCC_ClockConfig+0x1bc>)
 80028a8:	689b      	ldr	r3, [r3, #8]
 80028aa:	f023 0203 	bic.w	r2, r3, #3
 80028ae:	687b      	ldr	r3, [r7, #4]
 80028b0:	685b      	ldr	r3, [r3, #4]
 80028b2:	4934      	ldr	r1, [pc, #208]	; (8002984 <HAL_RCC_ClockConfig+0x1bc>)
 80028b4:	4313      	orrs	r3, r2
 80028b6:	608b      	str	r3, [r1, #8]

    /* Get Start Tick */
    tickstart = HAL_GetTick();
 80028b8:	f7ff fa16 	bl	8001ce8 <HAL_GetTick>
 80028bc:	60f8      	str	r0, [r7, #12]

    while (__HAL_RCC_GET_SYSCLK_SOURCE() != (RCC_ClkInitStruct->SYSCLKSource << RCC_CFGR_SWS_Pos))
 80028be:	e00a      	b.n	80028d6 <HAL_RCC_ClockConfig+0x10e>
    {
      if ((HAL_GetTick() - tickstart) > CLOCKSWITCH_TIMEOUT_VALUE)
 80028c0:	f7ff fa12 	bl	8001ce8 <HAL_GetTick>
 80028c4:	4602      	mov	r2, r0
 80028c6:	68fb      	ldr	r3, [r7, #12]
 80028c8:	1ad3      	subs	r3, r2, r3
 80028ca:	f241 3288 	movw	r2, #5000	; 0x1388
 80028ce:	4293      	cmp	r3, r2
 80028d0:	d901      	bls.n	80028d6 <HAL_RCC_ClockConfig+0x10e>
      {
        return HAL_TIMEOUT;
 80028d2:	2303      	movs	r3, #3
 80028d4:	e04f      	b.n	8002976 <HAL_RCC_ClockConfig+0x1ae>
    while (__HAL_RCC_GET_SYSCLK_SOURCE() != (RCC_ClkInitStruct->SYSCLKSource << RCC_CFGR_SWS_Pos))
 80028d6:	4b2b      	ldr	r3, [pc, #172]	; (8002984 <HAL_RCC_ClockConfig+0x1bc>)
 80028d8:	689b      	ldr	r3, [r3, #8]
 80028da:	f003 020c 	and.w	r2, r3, #12
 80028de:	687b      	ldr	r3, [r7, #4]
 80028e0:	685b      	ldr	r3, [r3, #4]
 80028e2:	009b      	lsls	r3, r3, #2
 80028e4:	429a      	cmp	r2, r3
 80028e6:	d1eb      	bne.n	80028c0 <HAL_RCC_ClockConfig+0xf8>
      }
    }
  }

  /* Decreasing the number of wait states because of lower CPU frequency */
  if(FLatency < __HAL_FLASH_GET_LATENCY())
 80028e8:	4b25      	ldr	r3, [pc, #148]	; (8002980 <HAL_RCC_ClockConfig+0x1b8>)
 80028ea:	681b      	ldr	r3, [r3, #0]
 80028ec:	f003 0307 	and.w	r3, r3, #7
 80028f0:	683a      	ldr	r2, [r7, #0]
 80028f2:	429a      	cmp	r2, r3
 80028f4:	d20c      	bcs.n	8002910 <HAL_RCC_ClockConfig+0x148>
  {
     /* Program the new number of wait states to the LATENCY bits in the FLASH_ACR register */
    __HAL_FLASH_SET_LATENCY(FLatency);
 80028f6:	4b22      	ldr	r3, [pc, #136]	; (8002980 <HAL_RCC_ClockConfig+0x1b8>)
 80028f8:	683a      	ldr	r2, [r7, #0]
 80028fa:	b2d2      	uxtb	r2, r2
 80028fc:	701a      	strb	r2, [r3, #0]

    /* Check that the new number of wait states is taken into account to access the Flash
    memory by reading the FLASH_ACR register */
    if(__HAL_FLASH_GET_LATENCY() != FLatency)
 80028fe:	4b20      	ldr	r3, [pc, #128]	; (8002980 <HAL_RCC_ClockConfig+0x1b8>)
 8002900:	681b      	ldr	r3, [r3, #0]
 8002902:	f003 0307 	and.w	r3, r3, #7
 8002906:	683a      	ldr	r2, [r7, #0]
 8002908:	429a      	cmp	r2, r3
 800290a:	d001      	beq.n	8002910 <HAL_RCC_ClockConfig+0x148>
    {
      return HAL_ERROR;
 800290c:	2301      	movs	r3, #1
 800290e:	e032      	b.n	8002976 <HAL_RCC_ClockConfig+0x1ae>
    }
  }

  /*-------------------------- PCLK1 Configuration ---------------------------*/
  if(((RCC_ClkInitStruct->ClockType) & RCC_CLOCKTYPE_PCLK1) == RCC_CLOCKTYPE_PCLK1)
 8002910:	687b      	ldr	r3, [r7, #4]
 8002912:	681b      	ldr	r3, [r3, #0]
 8002914:	f003 0304 	and.w	r3, r3, #4
 8002918:	2b00      	cmp	r3, #0
 800291a:	d008      	beq.n	800292e <HAL_RCC_ClockConfig+0x166>
  {
    assert_param(IS_RCC_PCLK(RCC_ClkInitStruct->APB1CLKDivider));
    MODIFY_REG(RCC->CFGR, RCC_CFGR_PPRE1, RCC_ClkInitStruct->APB1CLKDivider);
 800291c:	4b19      	ldr	r3, [pc, #100]	; (8002984 <HAL_RCC_ClockConfig+0x1bc>)
 800291e:	689b      	ldr	r3, [r3, #8]
 8002920:	f423 52e0 	bic.w	r2, r3, #7168	; 0x1c00
 8002924:	687b      	ldr	r3, [r7, #4]
 8002926:	68db      	ldr	r3, [r3, #12]
 8002928:	4916      	ldr	r1, [pc, #88]	; (8002984 <HAL_RCC_ClockConfig+0x1bc>)
 800292a:	4313      	orrs	r3, r2
 800292c:	608b      	str	r3, [r1, #8]
  }

  /*-------------------------- PCLK2 Configuration ---------------------------*/
  if(((RCC_ClkInitStruct->ClockType) & RCC_CLOCKTYPE_PCLK2) == RCC_CLOCKTYPE_PCLK2)
 800292e:	687b      	ldr	r3, [r7, #4]
 8002930:	681b      	ldr	r3, [r3, #0]
 8002932:	f003 0308 	and.w	r3, r3, #8
 8002936:	2b00      	cmp	r3, #0
 8002938:	d009      	beq.n	800294e <HAL_RCC_ClockConfig+0x186>
  {
    assert_param(IS_RCC_PCLK(RCC_ClkInitStruct->APB2CLKDivider));
    MODIFY_REG(RCC->CFGR, RCC_CFGR_PPRE2, ((RCC_ClkInitStruct->APB2CLKDivider) << 3U));
 800293a:	4b12      	ldr	r3, [pc, #72]	; (8002984 <HAL_RCC_ClockConfig+0x1bc>)
 800293c:	689b      	ldr	r3, [r3, #8]
 800293e:	f423 4260 	bic.w	r2, r3, #57344	; 0xe000
 8002942:	687b      	ldr	r3, [r7, #4]
 8002944:	691b      	ldr	r3, [r3, #16]
 8002946:	00db      	lsls	r3, r3, #3
 8002948:	490e      	ldr	r1, [pc, #56]	; (8002984 <HAL_RCC_ClockConfig+0x1bc>)
 800294a:	4313      	orrs	r3, r2
 800294c:	608b      	str	r3, [r1, #8]
  }

  /* Update the SystemCoreClock global variable */
  SystemCoreClock = HAL_RCC_GetSysClockFreq() >> AHBPrescTable[(RCC->CFGR & RCC_CFGR_HPRE)>> RCC_CFGR_HPRE_Pos];
 800294e:	f000 f821 	bl	8002994 <HAL_RCC_GetSysClockFreq>
 8002952:	4602      	mov	r2, r0
 8002954:	4b0b      	ldr	r3, [pc, #44]	; (8002984 <HAL_RCC_ClockConfig+0x1bc>)
 8002956:	689b      	ldr	r3, [r3, #8]
 8002958:	091b      	lsrs	r3, r3, #4
 800295a:	f003 030f 	and.w	r3, r3, #15
 800295e:	490a      	ldr	r1, [pc, #40]	; (8002988 <HAL_RCC_ClockConfig+0x1c0>)
 8002960:	5ccb      	ldrb	r3, [r1, r3]
 8002962:	fa22 f303 	lsr.w	r3, r2, r3
 8002966:	4a09      	ldr	r2, [pc, #36]	; (800298c <HAL_RCC_ClockConfig+0x1c4>)
 8002968:	6013      	str	r3, [r2, #0]

  /* Configure the source of time base considering new system clocks settings */
  HAL_InitTick (uwTickPrio);
 800296a:	4b09      	ldr	r3, [pc, #36]	; (8002990 <HAL_RCC_ClockConfig+0x1c8>)
 800296c:	681b      	ldr	r3, [r3, #0]
 800296e:	4618      	mov	r0, r3
 8002970:	f7ff f976 	bl	8001c60 <HAL_InitTick>

  return HAL_OK;
 8002974:	2300      	movs	r3, #0
}
 8002976:	4618      	mov	r0, r3
 8002978:	3710      	adds	r7, #16
 800297a:	46bd      	mov	sp, r7
 800297c:	bd80      	pop	{r7, pc}
 800297e:	bf00      	nop
 8002980:	40023c00 	.word	0x40023c00
 8002984:	40023800 	.word	0x40023800
 8002988:	0800a218 	.word	0x0800a218
 800298c:	20000000 	.word	0x20000000
 8002990:	20000004 	.word	0x20000004

08002994 <HAL_RCC_GetSysClockFreq>:
  *
  *
  * @retval SYSCLK frequency
  */
__weak uint32_t HAL_RCC_GetSysClockFreq(void)
{
 8002994:	e92d 4fb0 	stmdb	sp!, {r4, r5, r7, r8, r9, sl, fp, lr}
 8002998:	b090      	sub	sp, #64	; 0x40
 800299a:	af00      	add	r7, sp, #0
  uint32_t pllm = 0U, pllvco = 0U, pllp = 0U;
 800299c:	2300      	movs	r3, #0
 800299e:	637b      	str	r3, [r7, #52]	; 0x34
 80029a0:	2300      	movs	r3, #0
 80029a2:	63fb      	str	r3, [r7, #60]	; 0x3c
 80029a4:	2300      	movs	r3, #0
 80029a6:	633b      	str	r3, [r7, #48]	; 0x30
  uint32_t sysclockfreq = 0U;
 80029a8:	2300      	movs	r3, #0
 80029aa:	63bb      	str	r3, [r7, #56]	; 0x38

  /* Get SYSCLK source -------------------------------------------------------*/
  switch (RCC->CFGR & RCC_CFGR_SWS)
 80029ac:	4b59      	ldr	r3, [pc, #356]	; (8002b14 <HAL_RCC_GetSysClockFreq+0x180>)
 80029ae:	689b      	ldr	r3, [r3, #8]
 80029b0:	f003 030c 	and.w	r3, r3, #12
 80029b4:	2b08      	cmp	r3, #8
 80029b6:	d00d      	beq.n	80029d4 <HAL_RCC_GetSysClockFreq+0x40>
 80029b8:	2b08      	cmp	r3, #8
 80029ba:	f200 80a1 	bhi.w	8002b00 <HAL_RCC_GetSysClockFreq+0x16c>
 80029be:	2b00      	cmp	r3, #0
 80029c0:	d002      	beq.n	80029c8 <HAL_RCC_GetSysClockFreq+0x34>
 80029c2:	2b04      	cmp	r3, #4
 80029c4:	d003      	beq.n	80029ce <HAL_RCC_GetSysClockFreq+0x3a>
 80029c6:	e09b      	b.n	8002b00 <HAL_RCC_GetSysClockFreq+0x16c>
  {
    case RCC_CFGR_SWS_HSI:  /* HSI used as system clock source */
    {
      sysclockfreq = HSI_VALUE;
 80029c8:	4b53      	ldr	r3, [pc, #332]	; (8002b18 <HAL_RCC_GetSysClockFreq+0x184>)
 80029ca:	63bb      	str	r3, [r7, #56]	; 0x38
       break;
 80029cc:	e09b      	b.n	8002b06 <HAL_RCC_GetSysClockFreq+0x172>
    }
    case RCC_CFGR_SWS_HSE:  /* HSE used as system clock  source */
    {
      sysclockfreq = HSE_VALUE;
 80029ce:	4b53      	ldr	r3, [pc, #332]	; (8002b1c <HAL_RCC_GetSysClockFreq+0x188>)
 80029d0:	63bb      	str	r3, [r7, #56]	; 0x38
      break;
 80029d2:	e098      	b.n	8002b06 <HAL_RCC_GetSysClockFreq+0x172>
    }
    case RCC_CFGR_SWS_PLL:  /* PLL used as system clock  source */
    {
      /* PLL_VCO = (HSE_VALUE or HSI_VALUE / PLLM) * PLLN
      SYSCLK = PLL_VCO / PLLP */
      pllm = RCC->PLLCFGR & RCC_PLLCFGR_PLLM;
 80029d4:	4b4f      	ldr	r3, [pc, #316]	; (8002b14 <HAL_RCC_GetSysClockFreq+0x180>)
 80029d6:	685b      	ldr	r3, [r3, #4]
 80029d8:	f003 033f 	and.w	r3, r3, #63	; 0x3f
 80029dc:	637b      	str	r3, [r7, #52]	; 0x34
      if(__HAL_RCC_GET_PLL_OSCSOURCE() != RCC_PLLSOURCE_HSI)
 80029de:	4b4d      	ldr	r3, [pc, #308]	; (8002b14 <HAL_RCC_GetSysClockFreq+0x180>)
 80029e0:	685b      	ldr	r3, [r3, #4]
 80029e2:	f403 0380 	and.w	r3, r3, #4194304	; 0x400000
 80029e6:	2b00      	cmp	r3, #0
 80029e8:	d028      	beq.n	8002a3c <HAL_RCC_GetSysClockFreq+0xa8>
      {
        /* HSE used as PLL clock source */
        pllvco = (uint32_t) ((((uint64_t) HSE_VALUE * ((uint64_t) ((RCC->PLLCFGR & RCC_PLLCFGR_PLLN) >> RCC_PLLCFGR_PLLN_Pos)))) / (uint64_t)pllm);
 80029ea:	4b4a      	ldr	r3, [pc, #296]	; (8002b14 <HAL_RCC_GetSysClockFreq+0x180>)
 80029ec:	685b      	ldr	r3, [r3, #4]
 80029ee:	099b      	lsrs	r3, r3, #6
 80029f0:	2200      	movs	r2, #0
 80029f2:	623b      	str	r3, [r7, #32]
 80029f4:	627a      	str	r2, [r7, #36]	; 0x24
 80029f6:	6a3b      	ldr	r3, [r7, #32]
 80029f8:	f3c3 0008 	ubfx	r0, r3, #0, #9
 80029fc:	2100      	movs	r1, #0
 80029fe:	4b47      	ldr	r3, [pc, #284]	; (8002b1c <HAL_RCC_GetSysClockFreq+0x188>)
 8002a00:	fb03 f201 	mul.w	r2, r3, r1
 8002a04:	2300      	movs	r3, #0
 8002a06:	fb00 f303 	mul.w	r3, r0, r3
 8002a0a:	4413      	add	r3, r2
 8002a0c:	4a43      	ldr	r2, [pc, #268]	; (8002b1c <HAL_RCC_GetSysClockFreq+0x188>)
 8002a0e:	fba0 1202 	umull	r1, r2, r0, r2
 8002a12:	62fa      	str	r2, [r7, #44]	; 0x2c
 8002a14:	460a      	mov	r2, r1
 8002a16:	62ba      	str	r2, [r7, #40]	; 0x28
 8002a18:	6afa      	ldr	r2, [r7, #44]	; 0x2c
 8002a1a:	4413      	add	r3, r2
 8002a1c:	62fb      	str	r3, [r7, #44]	; 0x2c
 8002a1e:	6b7b      	ldr	r3, [r7, #52]	; 0x34
 8002a20:	2200      	movs	r2, #0
 8002a22:	61bb      	str	r3, [r7, #24]
 8002a24:	61fa      	str	r2, [r7, #28]
 8002a26:	e9d7 2306 	ldrd	r2, r3, [r7, #24]
 8002a2a:	e9d7 010a 	ldrd	r0, r1, [r7, #40]	; 0x28
 8002a2e:	f7fe f8c3 	bl	8000bb8 <__aeabi_uldivmod>
 8002a32:	4602      	mov	r2, r0
 8002a34:	460b      	mov	r3, r1
 8002a36:	4613      	mov	r3, r2
 8002a38:	63fb      	str	r3, [r7, #60]	; 0x3c
 8002a3a:	e053      	b.n	8002ae4 <HAL_RCC_GetSysClockFreq+0x150>
      }
      else
      {
        /* HSI used as PLL clock source */
        pllvco = (uint32_t) ((((uint64_t) HSI_VALUE * ((uint64_t) ((RCC->PLLCFGR & RCC_PLLCFGR_PLLN) >> RCC_PLLCFGR_PLLN_Pos)))) / (uint64_t)pllm);
 8002a3c:	4b35      	ldr	r3, [pc, #212]	; (8002b14 <HAL_RCC_GetSysClockFreq+0x180>)
 8002a3e:	685b      	ldr	r3, [r3, #4]
 8002a40:	099b      	lsrs	r3, r3, #6
 8002a42:	2200      	movs	r2, #0
 8002a44:	613b      	str	r3, [r7, #16]
 8002a46:	617a      	str	r2, [r7, #20]
 8002a48:	693b      	ldr	r3, [r7, #16]
 8002a4a:	f3c3 0a08 	ubfx	sl, r3, #0, #9
 8002a4e:	f04f 0b00 	mov.w	fp, #0
 8002a52:	4652      	mov	r2, sl
 8002a54:	465b      	mov	r3, fp
 8002a56:	f04f 0000 	mov.w	r0, #0
 8002a5a:	f04f 0100 	mov.w	r1, #0
 8002a5e:	0159      	lsls	r1, r3, #5
 8002a60:	ea41 61d2 	orr.w	r1, r1, r2, lsr #27
 8002a64:	0150      	lsls	r0, r2, #5
 8002a66:	4602      	mov	r2, r0
 8002a68:	460b      	mov	r3, r1
 8002a6a:	ebb2 080a 	subs.w	r8, r2, sl
 8002a6e:	eb63 090b 	sbc.w	r9, r3, fp
 8002a72:	f04f 0200 	mov.w	r2, #0
 8002a76:	f04f 0300 	mov.w	r3, #0
 8002a7a:	ea4f 1389 	mov.w	r3, r9, lsl #6
 8002a7e:	ea43 6398 	orr.w	r3, r3, r8, lsr #26
 8002a82:	ea4f 1288 	mov.w	r2, r8, lsl #6
 8002a86:	ebb2 0408 	subs.w	r4, r2, r8
 8002a8a:	eb63 0509 	sbc.w	r5, r3, r9
 8002a8e:	f04f 0200 	mov.w	r2, #0
 8002a92:	f04f 0300 	mov.w	r3, #0
 8002a96:	00eb      	lsls	r3, r5, #3
 8002a98:	ea43 7354 	orr.w	r3, r3, r4, lsr #29
 8002a9c:	00e2      	lsls	r2, r4, #3
 8002a9e:	4614      	mov	r4, r2
 8002aa0:	461d      	mov	r5, r3
 8002aa2:	eb14 030a 	adds.w	r3, r4, sl
 8002aa6:	603b      	str	r3, [r7, #0]
 8002aa8:	eb45 030b 	adc.w	r3, r5, fp
 8002aac:	607b      	str	r3, [r7, #4]
 8002aae:	f04f 0200 	mov.w	r2, #0
 8002ab2:	f04f 0300 	mov.w	r3, #0
 8002ab6:	e9d7 4500 	ldrd	r4, r5, [r7]
 8002aba:	4629      	mov	r1, r5
 8002abc:	028b      	lsls	r3, r1, #10
 8002abe:	4621      	mov	r1, r4
 8002ac0:	ea43 5391 	orr.w	r3, r3, r1, lsr #22
 8002ac4:	4621      	mov	r1, r4
 8002ac6:	028a      	lsls	r2, r1, #10
 8002ac8:	4610      	mov	r0, r2
 8002aca:	4619      	mov	r1, r3
 8002acc:	6b7b      	ldr	r3, [r7, #52]	; 0x34
 8002ace:	2200      	movs	r2, #0
 8002ad0:	60bb      	str	r3, [r7, #8]
 8002ad2:	60fa      	str	r2, [r7, #12]
 8002ad4:	e9d7 2302 	ldrd	r2, r3, [r7, #8]
 8002ad8:	f7fe f86e 	bl	8000bb8 <__aeabi_uldivmod>
 8002adc:	4602      	mov	r2, r0
 8002ade:	460b      	mov	r3, r1
 8002ae0:	4613      	mov	r3, r2
 8002ae2:	63fb      	str	r3, [r7, #60]	; 0x3c
      }
      pllp = ((((RCC->PLLCFGR & RCC_PLLCFGR_PLLP) >> RCC_PLLCFGR_PLLP_Pos) + 1U) *2U);
 8002ae4:	4b0b      	ldr	r3, [pc, #44]	; (8002b14 <HAL_RCC_GetSysClockFreq+0x180>)
 8002ae6:	685b      	ldr	r3, [r3, #4]
 8002ae8:	0c1b      	lsrs	r3, r3, #16
 8002aea:	f003 0303 	and.w	r3, r3, #3
 8002aee:	3301      	adds	r3, #1
 8002af0:	005b      	lsls	r3, r3, #1
 8002af2:	633b      	str	r3, [r7, #48]	; 0x30

      sysclockfreq = pllvco/pllp;
 8002af4:	6bfa      	ldr	r2, [r7, #60]	; 0x3c
 8002af6:	6b3b      	ldr	r3, [r7, #48]	; 0x30
 8002af8:	fbb2 f3f3 	udiv	r3, r2, r3
 8002afc:	63bb      	str	r3, [r7, #56]	; 0x38
      break;
 8002afe:	e002      	b.n	8002b06 <HAL_RCC_GetSysClockFreq+0x172>
    }
    default:
    {
      sysclockfreq = HSI_VALUE;
 8002b00:	4b05      	ldr	r3, [pc, #20]	; (8002b18 <HAL_RCC_GetSysClockFreq+0x184>)
 8002b02:	63bb      	str	r3, [r7, #56]	; 0x38
      break;
 8002b04:	bf00      	nop
    }
  }
  return sysclockfreq;
 8002b06:	6bbb      	ldr	r3, [r7, #56]	; 0x38
}
 8002b08:	4618      	mov	r0, r3
 8002b0a:	3740      	adds	r7, #64	; 0x40
 8002b0c:	46bd      	mov	sp, r7
 8002b0e:	e8bd 8fb0 	ldmia.w	sp!, {r4, r5, r7, r8, r9, sl, fp, pc}
 8002b12:	bf00      	nop
 8002b14:	40023800 	.word	0x40023800
 8002b18:	00f42400 	.word	0x00f42400
 8002b1c:	017d7840 	.word	0x017d7840

08002b20 <HAL_RCC_GetHCLKFreq>:
  * @note   The SystemCoreClock CMSIS variable is used to store System Clock Frequency
  *         and updated within this function
  * @retval HCLK frequency
  */
uint32_t HAL_RCC_GetHCLKFreq(void)
{
 8002b20:	b480      	push	{r7}
 8002b22:	af00      	add	r7, sp, #0
  return SystemCoreClock;
 8002b24:	4b03      	ldr	r3, [pc, #12]	; (8002b34 <HAL_RCC_GetHCLKFreq+0x14>)
 8002b26:	681b      	ldr	r3, [r3, #0]
}
 8002b28:	4618      	mov	r0, r3
 8002b2a:	46bd      	mov	sp, r7
 8002b2c:	f85d 7b04 	ldr.w	r7, [sp], #4
 8002b30:	4770      	bx	lr
 8002b32:	bf00      	nop
 8002b34:	20000000 	.word	0x20000000

08002b38 <HAL_RCC_GetPCLK1Freq>:
  * @note   Each time PCLK1 changes, this function must be called to update the
  *         right PCLK1 value. Otherwise, any configuration based on this function will be incorrect.
  * @retval PCLK1 frequency
  */
uint32_t HAL_RCC_GetPCLK1Freq(void)
{
 8002b38:	b580      	push	{r7, lr}
 8002b3a:	af00      	add	r7, sp, #0
  /* Get HCLK source and Compute PCLK1 frequency ---------------------------*/
  return (HAL_RCC_GetHCLKFreq() >> APBPrescTable[(RCC->CFGR & RCC_CFGR_PPRE1)>> RCC_CFGR_PPRE1_Pos]);
 8002b3c:	f7ff fff0 	bl	8002b20 <HAL_RCC_GetHCLKFreq>
 8002b40:	4602      	mov	r2, r0
 8002b42:	4b05      	ldr	r3, [pc, #20]	; (8002b58 <HAL_RCC_GetPCLK1Freq+0x20>)
 8002b44:	689b      	ldr	r3, [r3, #8]
 8002b46:	0a9b      	lsrs	r3, r3, #10
 8002b48:	f003 0307 	and.w	r3, r3, #7
 8002b4c:	4903      	ldr	r1, [pc, #12]	; (8002b5c <HAL_RCC_GetPCLK1Freq+0x24>)
 8002b4e:	5ccb      	ldrb	r3, [r1, r3]
 8002b50:	fa22 f303 	lsr.w	r3, r2, r3
}
 8002b54:	4618      	mov	r0, r3
 8002b56:	bd80      	pop	{r7, pc}
 8002b58:	40023800 	.word	0x40023800
 8002b5c:	0800a228 	.word	0x0800a228

08002b60 <HAL_RCC_GetPCLK2Freq>:
  * @note   Each time PCLK2 changes, this function must be called to update the
  *         right PCLK2 value. Otherwise, any configuration based on this function will be incorrect.
  * @retval PCLK2 frequency
  */
uint32_t HAL_RCC_GetPCLK2Freq(void)
{
 8002b60:	b580      	push	{r7, lr}
 8002b62:	af00      	add	r7, sp, #0
  /* Get HCLK source and Compute PCLK2 frequency ---------------------------*/
  return (HAL_RCC_GetHCLKFreq()>> APBPrescTable[(RCC->CFGR & RCC_CFGR_PPRE2)>> RCC_CFGR_PPRE2_Pos]);
 8002b64:	f7ff ffdc 	bl	8002b20 <HAL_RCC_GetHCLKFreq>
 8002b68:	4602      	mov	r2, r0
 8002b6a:	4b05      	ldr	r3, [pc, #20]	; (8002b80 <HAL_RCC_GetPCLK2Freq+0x20>)
 8002b6c:	689b      	ldr	r3, [r3, #8]
 8002b6e:	0b5b      	lsrs	r3, r3, #13
 8002b70:	f003 0307 	and.w	r3, r3, #7
 8002b74:	4903      	ldr	r1, [pc, #12]	; (8002b84 <HAL_RCC_GetPCLK2Freq+0x24>)
 8002b76:	5ccb      	ldrb	r3, [r1, r3]
 8002b78:	fa22 f303 	lsr.w	r3, r2, r3
}
 8002b7c:	4618      	mov	r0, r3
 8002b7e:	bd80      	pop	{r7, pc}
 8002b80:	40023800 	.word	0x40023800
 8002b84:	0800a228 	.word	0x0800a228

08002b88 <HAL_SPI_Init>:
  * @param  hspi pointer to a SPI_HandleTypeDef structure that contains
  *               the configuration information for SPI module.
  * @retval HAL status
  */
HAL_StatusTypeDef HAL_SPI_Init(SPI_HandleTypeDef *hspi)
{
 8002b88:	b580      	push	{r7, lr}
 8002b8a:	b082      	sub	sp, #8
 8002b8c:	af00      	add	r7, sp, #0
 8002b8e:	6078      	str	r0, [r7, #4]
  /* Check the SPI handle allocation */
  if (hspi == NULL)
 8002b90:	687b      	ldr	r3, [r7, #4]
 8002b92:	2b00      	cmp	r3, #0
 8002b94:	d101      	bne.n	8002b9a <HAL_SPI_Init+0x12>
  {
    return HAL_ERROR;
 8002b96:	2301      	movs	r3, #1
 8002b98:	e07b      	b.n	8002c92 <HAL_SPI_Init+0x10a>
  assert_param(IS_SPI_DATASIZE(hspi->Init.DataSize));
  assert_param(IS_SPI_NSS(hspi->Init.NSS));
  assert_param(IS_SPI_BAUDRATE_PRESCALER(hspi->Init.BaudRatePrescaler));
  assert_param(IS_SPI_FIRST_BIT(hspi->Init.FirstBit));
  assert_param(IS_SPI_TIMODE(hspi->Init.TIMode));
  if (hspi->Init.TIMode == SPI_TIMODE_DISABLE)
 8002b9a:	687b      	ldr	r3, [r7, #4]
 8002b9c:	6a5b      	ldr	r3, [r3, #36]	; 0x24
 8002b9e:	2b00      	cmp	r3, #0
 8002ba0:	d108      	bne.n	8002bb4 <HAL_SPI_Init+0x2c>
  {
    assert_param(IS_SPI_CPOL(hspi->Init.CLKPolarity));
    assert_param(IS_SPI_CPHA(hspi->Init.CLKPhase));

    if (hspi->Init.Mode == SPI_MODE_MASTER)
 8002ba2:	687b      	ldr	r3, [r7, #4]
 8002ba4:	685b      	ldr	r3, [r3, #4]
 8002ba6:	f5b3 7f82 	cmp.w	r3, #260	; 0x104
 8002baa:	d009      	beq.n	8002bc0 <HAL_SPI_Init+0x38>
      assert_param(IS_SPI_BAUDRATE_PRESCALER(hspi->Init.BaudRatePrescaler));
    }
    else
    {
      /* Baudrate prescaler not use in Motoraola Slave mode. force to default value */
      hspi->Init.BaudRatePrescaler = SPI_BAUDRATEPRESCALER_2;
 8002bac:	687b      	ldr	r3, [r7, #4]
 8002bae:	2200      	movs	r2, #0
 8002bb0:	61da      	str	r2, [r3, #28]
 8002bb2:	e005      	b.n	8002bc0 <HAL_SPI_Init+0x38>
  else
  {
    assert_param(IS_SPI_BAUDRATE_PRESCALER(hspi->Init.BaudRatePrescaler));

    /* Force polarity and phase to TI protocaol requirements */
    hspi->Init.CLKPolarity = SPI_POLARITY_LOW;
 8002bb4:	687b      	ldr	r3, [r7, #4]
 8002bb6:	2200      	movs	r2, #0
 8002bb8:	611a      	str	r2, [r3, #16]
    hspi->Init.CLKPhase    = SPI_PHASE_1EDGE;
 8002bba:	687b      	ldr	r3, [r7, #4]
 8002bbc:	2200      	movs	r2, #0
 8002bbe:	615a      	str	r2, [r3, #20]
  if (hspi->Init.CRCCalculation == SPI_CRCCALCULATION_ENABLE)
  {
    assert_param(IS_SPI_CRC_POLYNOMIAL(hspi->Init.CRCPolynomial));
  }
#else
  hspi->Init.CRCCalculation = SPI_CRCCALCULATION_DISABLE;
 8002bc0:	687b      	ldr	r3, [r7, #4]
 8002bc2:	2200      	movs	r2, #0
 8002bc4:	629a      	str	r2, [r3, #40]	; 0x28
#endif /* USE_SPI_CRC */

  if (hspi->State == HAL_SPI_STATE_RESET)
 8002bc6:	687b      	ldr	r3, [r7, #4]
 8002bc8:	f893 3051 	ldrb.w	r3, [r3, #81]	; 0x51
 8002bcc:	b2db      	uxtb	r3, r3
 8002bce:	2b00      	cmp	r3, #0
 8002bd0:	d106      	bne.n	8002be0 <HAL_SPI_Init+0x58>
  {
    /* Allocate lock resource and initialize it */
    hspi->Lock = HAL_UNLOCKED;
 8002bd2:	687b      	ldr	r3, [r7, #4]
 8002bd4:	2200      	movs	r2, #0
 8002bd6:	f883 2050 	strb.w	r2, [r3, #80]	; 0x50

    /* Init the low level hardware : GPIO, CLOCK, NVIC... */
    hspi->MspInitCallback(hspi);
#else
    /* Init the low level hardware : GPIO, CLOCK, NVIC... */
    HAL_SPI_MspInit(hspi);
 8002bda:	6878      	ldr	r0, [r7, #4]
 8002bdc:	f7fe fd24 	bl	8001628 <HAL_SPI_MspInit>
#endif /* USE_HAL_SPI_REGISTER_CALLBACKS */
  }

  hspi->State = HAL_SPI_STATE_BUSY;
 8002be0:	687b      	ldr	r3, [r7, #4]
 8002be2:	2202      	movs	r2, #2
 8002be4:	f883 2051 	strb.w	r2, [r3, #81]	; 0x51

  /* Disable the selected SPI peripheral */
  __HAL_SPI_DISABLE(hspi);
 8002be8:	687b      	ldr	r3, [r7, #4]
 8002bea:	681b      	ldr	r3, [r3, #0]
 8002bec:	681a      	ldr	r2, [r3, #0]
 8002bee:	687b      	ldr	r3, [r7, #4]
 8002bf0:	681b      	ldr	r3, [r3, #0]
 8002bf2:	f022 0240 	bic.w	r2, r2, #64	; 0x40
 8002bf6:	601a      	str	r2, [r3, #0]

  /*----------------------- SPIx CR1 & CR2 Configuration ---------------------*/
  /* Configure : SPI Mode, Communication Mode, Data size, Clock polarity and phase, NSS management,
  Communication speed, First bit and CRC calculation state */
  WRITE_REG(hspi->Instance->CR1, ((hspi->Init.Mode & (SPI_CR1_MSTR | SPI_CR1_SSI)) |
 8002bf8:	687b      	ldr	r3, [r7, #4]
 8002bfa:	685b      	ldr	r3, [r3, #4]
 8002bfc:	f403 7282 	and.w	r2, r3, #260	; 0x104
 8002c00:	687b      	ldr	r3, [r7, #4]
 8002c02:	689b      	ldr	r3, [r3, #8]
 8002c04:	f403 4304 	and.w	r3, r3, #33792	; 0x8400
 8002c08:	431a      	orrs	r2, r3
 8002c0a:	687b      	ldr	r3, [r7, #4]
 8002c0c:	68db      	ldr	r3, [r3, #12]
 8002c0e:	f403 6300 	and.w	r3, r3, #2048	; 0x800
 8002c12:	431a      	orrs	r2, r3
 8002c14:	687b      	ldr	r3, [r7, #4]
 8002c16:	691b      	ldr	r3, [r3, #16]
 8002c18:	f003 0302 	and.w	r3, r3, #2
 8002c1c:	431a      	orrs	r2, r3
 8002c1e:	687b      	ldr	r3, [r7, #4]
 8002c20:	695b      	ldr	r3, [r3, #20]
 8002c22:	f003 0301 	and.w	r3, r3, #1
 8002c26:	431a      	orrs	r2, r3
 8002c28:	687b      	ldr	r3, [r7, #4]
 8002c2a:	699b      	ldr	r3, [r3, #24]
 8002c2c:	f403 7300 	and.w	r3, r3, #512	; 0x200
 8002c30:	431a      	orrs	r2, r3
 8002c32:	687b      	ldr	r3, [r7, #4]
 8002c34:	69db      	ldr	r3, [r3, #28]
 8002c36:	f003 0338 	and.w	r3, r3, #56	; 0x38
 8002c3a:	431a      	orrs	r2, r3
 8002c3c:	687b      	ldr	r3, [r7, #4]
 8002c3e:	6a1b      	ldr	r3, [r3, #32]
 8002c40:	f003 0380 	and.w	r3, r3, #128	; 0x80
 8002c44:	ea42 0103 	orr.w	r1, r2, r3
 8002c48:	687b      	ldr	r3, [r7, #4]
 8002c4a:	6a9b      	ldr	r3, [r3, #40]	; 0x28
 8002c4c:	f403 5200 	and.w	r2, r3, #8192	; 0x2000
 8002c50:	687b      	ldr	r3, [r7, #4]
 8002c52:	681b      	ldr	r3, [r3, #0]
 8002c54:	430a      	orrs	r2, r1
 8002c56:	601a      	str	r2, [r3, #0]
                                  (hspi->Init.BaudRatePrescaler & SPI_CR1_BR_Msk) |
                                  (hspi->Init.FirstBit  & SPI_CR1_LSBFIRST) |
                                  (hspi->Init.CRCCalculation & SPI_CR1_CRCEN)));

  /* Configure : NSS management, TI Mode */
  WRITE_REG(hspi->Instance->CR2, (((hspi->Init.NSS >> 16U) & SPI_CR2_SSOE) | (hspi->Init.TIMode & SPI_CR2_FRF)));
 8002c58:	687b      	ldr	r3, [r7, #4]
 8002c5a:	699b      	ldr	r3, [r3, #24]
 8002c5c:	0c1b      	lsrs	r3, r3, #16
 8002c5e:	f003 0104 	and.w	r1, r3, #4
 8002c62:	687b      	ldr	r3, [r7, #4]
 8002c64:	6a5b      	ldr	r3, [r3, #36]	; 0x24
 8002c66:	f003 0210 	and.w	r2, r3, #16
 8002c6a:	687b      	ldr	r3, [r7, #4]
 8002c6c:	681b      	ldr	r3, [r3, #0]
 8002c6e:	430a      	orrs	r2, r1
 8002c70:	605a      	str	r2, [r3, #4]
  }
#endif /* USE_SPI_CRC */

#if defined(SPI_I2SCFGR_I2SMOD)
  /* Activate the SPI mode (Make sure that I2SMOD bit in I2SCFGR register is reset) */
  CLEAR_BIT(hspi->Instance->I2SCFGR, SPI_I2SCFGR_I2SMOD);
 8002c72:	687b      	ldr	r3, [r7, #4]
 8002c74:	681b      	ldr	r3, [r3, #0]
 8002c76:	69da      	ldr	r2, [r3, #28]
 8002c78:	687b      	ldr	r3, [r7, #4]
 8002c7a:	681b      	ldr	r3, [r3, #0]
 8002c7c:	f422 6200 	bic.w	r2, r2, #2048	; 0x800
 8002c80:	61da      	str	r2, [r3, #28]
#endif /* SPI_I2SCFGR_I2SMOD */

  hspi->ErrorCode = HAL_SPI_ERROR_NONE;
 8002c82:	687b      	ldr	r3, [r7, #4]
 8002c84:	2200      	movs	r2, #0
 8002c86:	655a      	str	r2, [r3, #84]	; 0x54
  hspi->State     = HAL_SPI_STATE_READY;
 8002c88:	687b      	ldr	r3, [r7, #4]
 8002c8a:	2201      	movs	r2, #1
 8002c8c:	f883 2051 	strb.w	r2, [r3, #81]	; 0x51

  return HAL_OK;
 8002c90:	2300      	movs	r3, #0
}
 8002c92:	4618      	mov	r0, r3
 8002c94:	3708      	adds	r7, #8
 8002c96:	46bd      	mov	sp, r7
 8002c98:	bd80      	pop	{r7, pc}

08002c9a <HAL_SPI_Transmit>:
  * @param  Size amount of data to be sent
  * @param  Timeout Timeout duration
  * @retval HAL status
  */
HAL_StatusTypeDef HAL_SPI_Transmit(SPI_HandleTypeDef *hspi, uint8_t *pData, uint16_t Size, uint32_t Timeout)
{
 8002c9a:	b580      	push	{r7, lr}
 8002c9c:	b088      	sub	sp, #32
 8002c9e:	af00      	add	r7, sp, #0
 8002ca0:	60f8      	str	r0, [r7, #12]
 8002ca2:	60b9      	str	r1, [r7, #8]
 8002ca4:	603b      	str	r3, [r7, #0]
 8002ca6:	4613      	mov	r3, r2
 8002ca8:	80fb      	strh	r3, [r7, #6]
  uint32_t tickstart;
  HAL_StatusTypeDef errorcode = HAL_OK;
 8002caa:	2300      	movs	r3, #0
 8002cac:	77fb      	strb	r3, [r7, #31]

  /* Check Direction parameter */
  assert_param(IS_SPI_DIRECTION_2LINES_OR_1LINE(hspi->Init.Direction));

  /* Process Locked */
  __HAL_LOCK(hspi);
 8002cae:	68fb      	ldr	r3, [r7, #12]
 8002cb0:	f893 3050 	ldrb.w	r3, [r3, #80]	; 0x50
 8002cb4:	2b01      	cmp	r3, #1
 8002cb6:	d101      	bne.n	8002cbc <HAL_SPI_Transmit+0x22>
 8002cb8:	2302      	movs	r3, #2
 8002cba:	e126      	b.n	8002f0a <HAL_SPI_Transmit+0x270>
 8002cbc:	68fb      	ldr	r3, [r7, #12]
 8002cbe:	2201      	movs	r2, #1
 8002cc0:	f883 2050 	strb.w	r2, [r3, #80]	; 0x50

  /* Init tickstart for timeout management*/
  tickstart = HAL_GetTick();
 8002cc4:	f7ff f810 	bl	8001ce8 <HAL_GetTick>
 8002cc8:	61b8      	str	r0, [r7, #24]
  initial_TxXferCount = Size;
 8002cca:	88fb      	ldrh	r3, [r7, #6]
 8002ccc:	82fb      	strh	r3, [r7, #22]

  if (hspi->State != HAL_SPI_STATE_READY)
 8002cce:	68fb      	ldr	r3, [r7, #12]
 8002cd0:	f893 3051 	ldrb.w	r3, [r3, #81]	; 0x51
 8002cd4:	b2db      	uxtb	r3, r3
 8002cd6:	2b01      	cmp	r3, #1
 8002cd8:	d002      	beq.n	8002ce0 <HAL_SPI_Transmit+0x46>
  {
    errorcode = HAL_BUSY;
 8002cda:	2302      	movs	r3, #2
 8002cdc:	77fb      	strb	r3, [r7, #31]
    goto error;
 8002cde:	e10b      	b.n	8002ef8 <HAL_SPI_Transmit+0x25e>
  }

  if ((pData == NULL) || (Size == 0U))
 8002ce0:	68bb      	ldr	r3, [r7, #8]
 8002ce2:	2b00      	cmp	r3, #0
 8002ce4:	d002      	beq.n	8002cec <HAL_SPI_Transmit+0x52>
 8002ce6:	88fb      	ldrh	r3, [r7, #6]
 8002ce8:	2b00      	cmp	r3, #0
 8002cea:	d102      	bne.n	8002cf2 <HAL_SPI_Transmit+0x58>
  {
    errorcode = HAL_ERROR;
 8002cec:	2301      	movs	r3, #1
 8002cee:	77fb      	strb	r3, [r7, #31]
    goto error;
 8002cf0:	e102      	b.n	8002ef8 <HAL_SPI_Transmit+0x25e>
  }

  /* Set the transaction information */
  hspi->State       = HAL_SPI_STATE_BUSY_TX;
 8002cf2:	68fb      	ldr	r3, [r7, #12]
 8002cf4:	2203      	movs	r2, #3
 8002cf6:	f883 2051 	strb.w	r2, [r3, #81]	; 0x51
  hspi->ErrorCode   = HAL_SPI_ERROR_NONE;
 8002cfa:	68fb      	ldr	r3, [r7, #12]
 8002cfc:	2200      	movs	r2, #0
 8002cfe:	655a      	str	r2, [r3, #84]	; 0x54
  hspi->pTxBuffPtr  = (uint8_t *)pData;
 8002d00:	68fb      	ldr	r3, [r7, #12]
 8002d02:	68ba      	ldr	r2, [r7, #8]
 8002d04:	631a      	str	r2, [r3, #48]	; 0x30
  hspi->TxXferSize  = Size;
 8002d06:	68fb      	ldr	r3, [r7, #12]
 8002d08:	88fa      	ldrh	r2, [r7, #6]
 8002d0a:	869a      	strh	r2, [r3, #52]	; 0x34
  hspi->TxXferCount = Size;
 8002d0c:	68fb      	ldr	r3, [r7, #12]
 8002d0e:	88fa      	ldrh	r2, [r7, #6]
 8002d10:	86da      	strh	r2, [r3, #54]	; 0x36

  /*Init field not used in handle to zero */
  hspi->pRxBuffPtr  = (uint8_t *)NULL;
 8002d12:	68fb      	ldr	r3, [r7, #12]
 8002d14:	2200      	movs	r2, #0
 8002d16:	639a      	str	r2, [r3, #56]	; 0x38
  hspi->RxXferSize  = 0U;
 8002d18:	68fb      	ldr	r3, [r7, #12]
 8002d1a:	2200      	movs	r2, #0
 8002d1c:	879a      	strh	r2, [r3, #60]	; 0x3c
  hspi->RxXferCount = 0U;
 8002d1e:	68fb      	ldr	r3, [r7, #12]
 8002d20:	2200      	movs	r2, #0
 8002d22:	87da      	strh	r2, [r3, #62]	; 0x3e
  hspi->TxISR       = NULL;
 8002d24:	68fb      	ldr	r3, [r7, #12]
 8002d26:	2200      	movs	r2, #0
 8002d28:	645a      	str	r2, [r3, #68]	; 0x44
  hspi->RxISR       = NULL;
 8002d2a:	68fb      	ldr	r3, [r7, #12]
 8002d2c:	2200      	movs	r2, #0
 8002d2e:	641a      	str	r2, [r3, #64]	; 0x40

  /* Configure communication direction : 1Line */
  if (hspi->Init.Direction == SPI_DIRECTION_1LINE)
 8002d30:	68fb      	ldr	r3, [r7, #12]
 8002d32:	689b      	ldr	r3, [r3, #8]
 8002d34:	f5b3 4f00 	cmp.w	r3, #32768	; 0x8000
 8002d38:	d10f      	bne.n	8002d5a <HAL_SPI_Transmit+0xc0>
  {
    /* Disable SPI Peripheral before set 1Line direction (BIDIOE bit) */
    __HAL_SPI_DISABLE(hspi);
 8002d3a:	68fb      	ldr	r3, [r7, #12]
 8002d3c:	681b      	ldr	r3, [r3, #0]
 8002d3e:	681a      	ldr	r2, [r3, #0]
 8002d40:	68fb      	ldr	r3, [r7, #12]
 8002d42:	681b      	ldr	r3, [r3, #0]
 8002d44:	f022 0240 	bic.w	r2, r2, #64	; 0x40
 8002d48:	601a      	str	r2, [r3, #0]
    SPI_1LINE_TX(hspi);
 8002d4a:	68fb      	ldr	r3, [r7, #12]
 8002d4c:	681b      	ldr	r3, [r3, #0]
 8002d4e:	681a      	ldr	r2, [r3, #0]
 8002d50:	68fb      	ldr	r3, [r7, #12]
 8002d52:	681b      	ldr	r3, [r3, #0]
 8002d54:	f442 4280 	orr.w	r2, r2, #16384	; 0x4000
 8002d58:	601a      	str	r2, [r3, #0]
    SPI_RESET_CRC(hspi);
  }
#endif /* USE_SPI_CRC */

  /* Check if the SPI is already enabled */
  if ((hspi->Instance->CR1 & SPI_CR1_SPE) != SPI_CR1_SPE)
 8002d5a:	68fb      	ldr	r3, [r7, #12]
 8002d5c:	681b      	ldr	r3, [r3, #0]
 8002d5e:	681b      	ldr	r3, [r3, #0]
 8002d60:	f003 0340 	and.w	r3, r3, #64	; 0x40
 8002d64:	2b40      	cmp	r3, #64	; 0x40
 8002d66:	d007      	beq.n	8002d78 <HAL_SPI_Transmit+0xde>
  {
    /* Enable SPI peripheral */
    __HAL_SPI_ENABLE(hspi);
 8002d68:	68fb      	ldr	r3, [r7, #12]
 8002d6a:	681b      	ldr	r3, [r3, #0]
 8002d6c:	681a      	ldr	r2, [r3, #0]
 8002d6e:	68fb      	ldr	r3, [r7, #12]
 8002d70:	681b      	ldr	r3, [r3, #0]
 8002d72:	f042 0240 	orr.w	r2, r2, #64	; 0x40
 8002d76:	601a      	str	r2, [r3, #0]
  }

  /* Transmit data in 16 Bit mode */
  if (hspi->Init.DataSize == SPI_DATASIZE_16BIT)
 8002d78:	68fb      	ldr	r3, [r7, #12]
 8002d7a:	68db      	ldr	r3, [r3, #12]
 8002d7c:	f5b3 6f00 	cmp.w	r3, #2048	; 0x800
 8002d80:	d14b      	bne.n	8002e1a <HAL_SPI_Transmit+0x180>
  {
    if ((hspi->Init.Mode == SPI_MODE_SLAVE) || (initial_TxXferCount == 0x01U))
 8002d82:	68fb      	ldr	r3, [r7, #12]
 8002d84:	685b      	ldr	r3, [r3, #4]
 8002d86:	2b00      	cmp	r3, #0
 8002d88:	d002      	beq.n	8002d90 <HAL_SPI_Transmit+0xf6>
 8002d8a:	8afb      	ldrh	r3, [r7, #22]
 8002d8c:	2b01      	cmp	r3, #1
 8002d8e:	d13e      	bne.n	8002e0e <HAL_SPI_Transmit+0x174>
    {
      hspi->Instance->DR = *((uint16_t *)hspi->pTxBuffPtr);
 8002d90:	68fb      	ldr	r3, [r7, #12]
 8002d92:	6b1b      	ldr	r3, [r3, #48]	; 0x30
 8002d94:	881a      	ldrh	r2, [r3, #0]
 8002d96:	68fb      	ldr	r3, [r7, #12]
 8002d98:	681b      	ldr	r3, [r3, #0]
 8002d9a:	60da      	str	r2, [r3, #12]
      hspi->pTxBuffPtr += sizeof(uint16_t);
 8002d9c:	68fb      	ldr	r3, [r7, #12]
 8002d9e:	6b1b      	ldr	r3, [r3, #48]	; 0x30
 8002da0:	1c9a      	adds	r2, r3, #2
 8002da2:	68fb      	ldr	r3, [r7, #12]
 8002da4:	631a      	str	r2, [r3, #48]	; 0x30
      hspi->TxXferCount--;
 8002da6:	68fb      	ldr	r3, [r7, #12]
 8002da8:	8edb      	ldrh	r3, [r3, #54]	; 0x36
 8002daa:	b29b      	uxth	r3, r3
 8002dac:	3b01      	subs	r3, #1
 8002dae:	b29a      	uxth	r2, r3
 8002db0:	68fb      	ldr	r3, [r7, #12]
 8002db2:	86da      	strh	r2, [r3, #54]	; 0x36
    }
    /* Transmit data in 16 Bit mode */
    while (hspi->TxXferCount > 0U)
 8002db4:	e02b      	b.n	8002e0e <HAL_SPI_Transmit+0x174>
    {
      /* Wait until TXE flag is set to send data */
      if (__HAL_SPI_GET_FLAG(hspi, SPI_FLAG_TXE))
 8002db6:	68fb      	ldr	r3, [r7, #12]
 8002db8:	681b      	ldr	r3, [r3, #0]
 8002dba:	689b      	ldr	r3, [r3, #8]
 8002dbc:	f003 0302 	and.w	r3, r3, #2
 8002dc0:	2b02      	cmp	r3, #2
 8002dc2:	d112      	bne.n	8002dea <HAL_SPI_Transmit+0x150>
      {
        hspi->Instance->DR = *((uint16_t *)hspi->pTxBuffPtr);
 8002dc4:	68fb      	ldr	r3, [r7, #12]
 8002dc6:	6b1b      	ldr	r3, [r3, #48]	; 0x30
 8002dc8:	881a      	ldrh	r2, [r3, #0]
 8002dca:	68fb      	ldr	r3, [r7, #12]
 8002dcc:	681b      	ldr	r3, [r3, #0]
 8002dce:	60da      	str	r2, [r3, #12]
        hspi->pTxBuffPtr += sizeof(uint16_t);
 8002dd0:	68fb      	ldr	r3, [r7, #12]
 8002dd2:	6b1b      	ldr	r3, [r3, #48]	; 0x30
 8002dd4:	1c9a      	adds	r2, r3, #2
 8002dd6:	68fb      	ldr	r3, [r7, #12]
 8002dd8:	631a      	str	r2, [r3, #48]	; 0x30
        hspi->TxXferCount--;
 8002dda:	68fb      	ldr	r3, [r7, #12]
 8002ddc:	8edb      	ldrh	r3, [r3, #54]	; 0x36
 8002dde:	b29b      	uxth	r3, r3
 8002de0:	3b01      	subs	r3, #1
 8002de2:	b29a      	uxth	r2, r3
 8002de4:	68fb      	ldr	r3, [r7, #12]
 8002de6:	86da      	strh	r2, [r3, #54]	; 0x36
 8002de8:	e011      	b.n	8002e0e <HAL_SPI_Transmit+0x174>
      }
      else
      {
        /* Timeout management */
        if ((((HAL_GetTick() - tickstart) >=  Timeout) && (Timeout != HAL_MAX_DELAY)) || (Timeout == 0U))
 8002dea:	f7fe ff7d 	bl	8001ce8 <HAL_GetTick>
 8002dee:	4602      	mov	r2, r0
 8002df0:	69bb      	ldr	r3, [r7, #24]
 8002df2:	1ad3      	subs	r3, r2, r3
 8002df4:	683a      	ldr	r2, [r7, #0]
 8002df6:	429a      	cmp	r2, r3
 8002df8:	d803      	bhi.n	8002e02 <HAL_SPI_Transmit+0x168>
 8002dfa:	683b      	ldr	r3, [r7, #0]
 8002dfc:	f1b3 3fff 	cmp.w	r3, #4294967295
 8002e00:	d102      	bne.n	8002e08 <HAL_SPI_Transmit+0x16e>
 8002e02:	683b      	ldr	r3, [r7, #0]
 8002e04:	2b00      	cmp	r3, #0
 8002e06:	d102      	bne.n	8002e0e <HAL_SPI_Transmit+0x174>
        {
          errorcode = HAL_TIMEOUT;
 8002e08:	2303      	movs	r3, #3
 8002e0a:	77fb      	strb	r3, [r7, #31]
          goto error;
 8002e0c:	e074      	b.n	8002ef8 <HAL_SPI_Transmit+0x25e>
    while (hspi->TxXferCount > 0U)
 8002e0e:	68fb      	ldr	r3, [r7, #12]
 8002e10:	8edb      	ldrh	r3, [r3, #54]	; 0x36
 8002e12:	b29b      	uxth	r3, r3
 8002e14:	2b00      	cmp	r3, #0
 8002e16:	d1ce      	bne.n	8002db6 <HAL_SPI_Transmit+0x11c>
 8002e18:	e04c      	b.n	8002eb4 <HAL_SPI_Transmit+0x21a>
    }
  }
  /* Transmit data in 8 Bit mode */
  else
  {
    if ((hspi->Init.Mode == SPI_MODE_SLAVE) || (initial_TxXferCount == 0x01U))
 8002e1a:	68fb      	ldr	r3, [r7, #12]
 8002e1c:	685b      	ldr	r3, [r3, #4]
 8002e1e:	2b00      	cmp	r3, #0
 8002e20:	d002      	beq.n	8002e28 <HAL_SPI_Transmit+0x18e>
 8002e22:	8afb      	ldrh	r3, [r7, #22]
 8002e24:	2b01      	cmp	r3, #1
 8002e26:	d140      	bne.n	8002eaa <HAL_SPI_Transmit+0x210>
    {
      *((__IO uint8_t *)&hspi->Instance->DR) = (*hspi->pTxBuffPtr);
 8002e28:	68fb      	ldr	r3, [r7, #12]
 8002e2a:	6b1a      	ldr	r2, [r3, #48]	; 0x30
 8002e2c:	68fb      	ldr	r3, [r7, #12]
 8002e2e:	681b      	ldr	r3, [r3, #0]
 8002e30:	330c      	adds	r3, #12
 8002e32:	7812      	ldrb	r2, [r2, #0]
 8002e34:	701a      	strb	r2, [r3, #0]
      hspi->pTxBuffPtr += sizeof(uint8_t);
 8002e36:	68fb      	ldr	r3, [r7, #12]
 8002e38:	6b1b      	ldr	r3, [r3, #48]	; 0x30
 8002e3a:	1c5a      	adds	r2, r3, #1
 8002e3c:	68fb      	ldr	r3, [r7, #12]
 8002e3e:	631a      	str	r2, [r3, #48]	; 0x30
      hspi->TxXferCount--;
 8002e40:	68fb      	ldr	r3, [r7, #12]
 8002e42:	8edb      	ldrh	r3, [r3, #54]	; 0x36
 8002e44:	b29b      	uxth	r3, r3
 8002e46:	3b01      	subs	r3, #1
 8002e48:	b29a      	uxth	r2, r3
 8002e4a:	68fb      	ldr	r3, [r7, #12]
 8002e4c:	86da      	strh	r2, [r3, #54]	; 0x36
    }
    while (hspi->TxXferCount > 0U)
 8002e4e:	e02c      	b.n	8002eaa <HAL_SPI_Transmit+0x210>
    {
      /* Wait until TXE flag is set to send data */
      if (__HAL_SPI_GET_FLAG(hspi, SPI_FLAG_TXE))
 8002e50:	68fb      	ldr	r3, [r7, #12]
 8002e52:	681b      	ldr	r3, [r3, #0]
 8002e54:	689b      	ldr	r3, [r3, #8]
 8002e56:	f003 0302 	and.w	r3, r3, #2
 8002e5a:	2b02      	cmp	r3, #2
 8002e5c:	d113      	bne.n	8002e86 <HAL_SPI_Transmit+0x1ec>
      {
        *((__IO uint8_t *)&hspi->Instance->DR) = (*hspi->pTxBuffPtr);
 8002e5e:	68fb      	ldr	r3, [r7, #12]
 8002e60:	6b1a      	ldr	r2, [r3, #48]	; 0x30
 8002e62:	68fb      	ldr	r3, [r7, #12]
 8002e64:	681b      	ldr	r3, [r3, #0]
 8002e66:	330c      	adds	r3, #12
 8002e68:	7812      	ldrb	r2, [r2, #0]
 8002e6a:	701a      	strb	r2, [r3, #0]
        hspi->pTxBuffPtr += sizeof(uint8_t);
 8002e6c:	68fb      	ldr	r3, [r7, #12]
 8002e6e:	6b1b      	ldr	r3, [r3, #48]	; 0x30
 8002e70:	1c5a      	adds	r2, r3, #1
 8002e72:	68fb      	ldr	r3, [r7, #12]
 8002e74:	631a      	str	r2, [r3, #48]	; 0x30
        hspi->TxXferCount--;
 8002e76:	68fb      	ldr	r3, [r7, #12]
 8002e78:	8edb      	ldrh	r3, [r3, #54]	; 0x36
 8002e7a:	b29b      	uxth	r3, r3
 8002e7c:	3b01      	subs	r3, #1
 8002e7e:	b29a      	uxth	r2, r3
 8002e80:	68fb      	ldr	r3, [r7, #12]
 8002e82:	86da      	strh	r2, [r3, #54]	; 0x36
 8002e84:	e011      	b.n	8002eaa <HAL_SPI_Transmit+0x210>
      }
      else
      {
        /* Timeout management */
        if ((((HAL_GetTick() - tickstart) >=  Timeout) && (Timeout != HAL_MAX_DELAY)) || (Timeout == 0U))
 8002e86:	f7fe ff2f 	bl	8001ce8 <HAL_GetTick>
 8002e8a:	4602      	mov	r2, r0
 8002e8c:	69bb      	ldr	r3, [r7, #24]
 8002e8e:	1ad3      	subs	r3, r2, r3
 8002e90:	683a      	ldr	r2, [r7, #0]
 8002e92:	429a      	cmp	r2, r3
 8002e94:	d803      	bhi.n	8002e9e <HAL_SPI_Transmit+0x204>
 8002e96:	683b      	ldr	r3, [r7, #0]
 8002e98:	f1b3 3fff 	cmp.w	r3, #4294967295
 8002e9c:	d102      	bne.n	8002ea4 <HAL_SPI_Transmit+0x20a>
 8002e9e:	683b      	ldr	r3, [r7, #0]
 8002ea0:	2b00      	cmp	r3, #0
 8002ea2:	d102      	bne.n	8002eaa <HAL_SPI_Transmit+0x210>
        {
          errorcode = HAL_TIMEOUT;
 8002ea4:	2303      	movs	r3, #3
 8002ea6:	77fb      	strb	r3, [r7, #31]
          goto error;
 8002ea8:	e026      	b.n	8002ef8 <HAL_SPI_Transmit+0x25e>
    while (hspi->TxXferCount > 0U)
 8002eaa:	68fb      	ldr	r3, [r7, #12]
 8002eac:	8edb      	ldrh	r3, [r3, #54]	; 0x36
 8002eae:	b29b      	uxth	r3, r3
 8002eb0:	2b00      	cmp	r3, #0
 8002eb2:	d1cd      	bne.n	8002e50 <HAL_SPI_Transmit+0x1b6>
    SET_BIT(hspi->Instance->CR1, SPI_CR1_CRCNEXT);
  }
#endif /* USE_SPI_CRC */

  /* Check the end of the transaction */
  if (SPI_EndRxTxTransaction(hspi, Timeout, tickstart) != HAL_OK)
 8002eb4:	69ba      	ldr	r2, [r7, #24]
 8002eb6:	6839      	ldr	r1, [r7, #0]
 8002eb8:	68f8      	ldr	r0, [r7, #12]
 8002eba:	f000 fbcb 	bl	8003654 <SPI_EndRxTxTransaction>
 8002ebe:	4603      	mov	r3, r0
 8002ec0:	2b00      	cmp	r3, #0
 8002ec2:	d002      	beq.n	8002eca <HAL_SPI_Transmit+0x230>
  {
    hspi->ErrorCode = HAL_SPI_ERROR_FLAG;
 8002ec4:	68fb      	ldr	r3, [r7, #12]
 8002ec6:	2220      	movs	r2, #32
 8002ec8:	655a      	str	r2, [r3, #84]	; 0x54
  }

  /* Clear overrun flag in 2 Lines communication mode because received is not read */
  if (hspi->Init.Direction == SPI_DIRECTION_2LINES)
 8002eca:	68fb      	ldr	r3, [r7, #12]
 8002ecc:	689b      	ldr	r3, [r3, #8]
 8002ece:	2b00      	cmp	r3, #0
 8002ed0:	d10a      	bne.n	8002ee8 <HAL_SPI_Transmit+0x24e>
  {
    __HAL_SPI_CLEAR_OVRFLAG(hspi);
 8002ed2:	2300      	movs	r3, #0
 8002ed4:	613b      	str	r3, [r7, #16]
 8002ed6:	68fb      	ldr	r3, [r7, #12]
 8002ed8:	681b      	ldr	r3, [r3, #0]
 8002eda:	68db      	ldr	r3, [r3, #12]
 8002edc:	613b      	str	r3, [r7, #16]
 8002ede:	68fb      	ldr	r3, [r7, #12]
 8002ee0:	681b      	ldr	r3, [r3, #0]
 8002ee2:	689b      	ldr	r3, [r3, #8]
 8002ee4:	613b      	str	r3, [r7, #16]
 8002ee6:	693b      	ldr	r3, [r7, #16]
  }

  if (hspi->ErrorCode != HAL_SPI_ERROR_NONE)
 8002ee8:	68fb      	ldr	r3, [r7, #12]
 8002eea:	6d5b      	ldr	r3, [r3, #84]	; 0x54
 8002eec:	2b00      	cmp	r3, #0
 8002eee:	d002      	beq.n	8002ef6 <HAL_SPI_Transmit+0x25c>
  {
    errorcode = HAL_ERROR;
 8002ef0:	2301      	movs	r3, #1
 8002ef2:	77fb      	strb	r3, [r7, #31]
 8002ef4:	e000      	b.n	8002ef8 <HAL_SPI_Transmit+0x25e>
  }

error:
 8002ef6:	bf00      	nop
  hspi->State = HAL_SPI_STATE_READY;
 8002ef8:	68fb      	ldr	r3, [r7, #12]
 8002efa:	2201      	movs	r2, #1
 8002efc:	f883 2051 	strb.w	r2, [r3, #81]	; 0x51
  /* Process Unlocked */
  __HAL_UNLOCK(hspi);
 8002f00:	68fb      	ldr	r3, [r7, #12]
 8002f02:	2200      	movs	r2, #0
 8002f04:	f883 2050 	strb.w	r2, [r3, #80]	; 0x50
  return errorcode;
 8002f08:	7ffb      	ldrb	r3, [r7, #31]
}
 8002f0a:	4618      	mov	r0, r3
 8002f0c:	3720      	adds	r7, #32
 8002f0e:	46bd      	mov	sp, r7
 8002f10:	bd80      	pop	{r7, pc}

08002f12 <HAL_SPI_Receive>:
  * @param  Size amount of data to be received
  * @param  Timeout Timeout duration
  * @retval HAL status
  */
HAL_StatusTypeDef HAL_SPI_Receive(SPI_HandleTypeDef *hspi, uint8_t *pData, uint16_t Size, uint32_t Timeout)
{
 8002f12:	b580      	push	{r7, lr}
 8002f14:	b088      	sub	sp, #32
 8002f16:	af02      	add	r7, sp, #8
 8002f18:	60f8      	str	r0, [r7, #12]
 8002f1a:	60b9      	str	r1, [r7, #8]
 8002f1c:	603b      	str	r3, [r7, #0]
 8002f1e:	4613      	mov	r3, r2
 8002f20:	80fb      	strh	r3, [r7, #6]
#if (USE_SPI_CRC != 0U)
  __IO uint32_t tmpreg = 0U;
#endif /* USE_SPI_CRC */
  uint32_t tickstart;
  HAL_StatusTypeDef errorcode = HAL_OK;
 8002f22:	2300      	movs	r3, #0
 8002f24:	75fb      	strb	r3, [r7, #23]

  if ((hspi->Init.Mode == SPI_MODE_MASTER) && (hspi->Init.Direction == SPI_DIRECTION_2LINES))
 8002f26:	68fb      	ldr	r3, [r7, #12]
 8002f28:	685b      	ldr	r3, [r3, #4]
 8002f2a:	f5b3 7f82 	cmp.w	r3, #260	; 0x104
 8002f2e:	d112      	bne.n	8002f56 <HAL_SPI_Receive+0x44>
 8002f30:	68fb      	ldr	r3, [r7, #12]
 8002f32:	689b      	ldr	r3, [r3, #8]
 8002f34:	2b00      	cmp	r3, #0
 8002f36:	d10e      	bne.n	8002f56 <HAL_SPI_Receive+0x44>
  {
    hspi->State = HAL_SPI_STATE_BUSY_RX;
 8002f38:	68fb      	ldr	r3, [r7, #12]
 8002f3a:	2204      	movs	r2, #4
 8002f3c:	f883 2051 	strb.w	r2, [r3, #81]	; 0x51
    /* Call transmit-receive function to send Dummy data on Tx line and generate clock on CLK line */
    return HAL_SPI_TransmitReceive(hspi, pData, pData, Size, Timeout);
 8002f40:	88fa      	ldrh	r2, [r7, #6]
 8002f42:	683b      	ldr	r3, [r7, #0]
 8002f44:	9300      	str	r3, [sp, #0]
 8002f46:	4613      	mov	r3, r2
 8002f48:	68ba      	ldr	r2, [r7, #8]
 8002f4a:	68b9      	ldr	r1, [r7, #8]
 8002f4c:	68f8      	ldr	r0, [r7, #12]
 8002f4e:	f000 f8f1 	bl	8003134 <HAL_SPI_TransmitReceive>
 8002f52:	4603      	mov	r3, r0
 8002f54:	e0ea      	b.n	800312c <HAL_SPI_Receive+0x21a>
  }

  /* Process Locked */
  __HAL_LOCK(hspi);
 8002f56:	68fb      	ldr	r3, [r7, #12]
 8002f58:	f893 3050 	ldrb.w	r3, [r3, #80]	; 0x50
 8002f5c:	2b01      	cmp	r3, #1
 8002f5e:	d101      	bne.n	8002f64 <HAL_SPI_Receive+0x52>
 8002f60:	2302      	movs	r3, #2
 8002f62:	e0e3      	b.n	800312c <HAL_SPI_Receive+0x21a>
 8002f64:	68fb      	ldr	r3, [r7, #12]
 8002f66:	2201      	movs	r2, #1
 8002f68:	f883 2050 	strb.w	r2, [r3, #80]	; 0x50

  /* Init tickstart for timeout management*/
  tickstart = HAL_GetTick();
 8002f6c:	f7fe febc 	bl	8001ce8 <HAL_GetTick>
 8002f70:	6138      	str	r0, [r7, #16]

  if (hspi->State != HAL_SPI_STATE_READY)
 8002f72:	68fb      	ldr	r3, [r7, #12]
 8002f74:	f893 3051 	ldrb.w	r3, [r3, #81]	; 0x51
 8002f78:	b2db      	uxtb	r3, r3
 8002f7a:	2b01      	cmp	r3, #1
 8002f7c:	d002      	beq.n	8002f84 <HAL_SPI_Receive+0x72>
  {
    errorcode = HAL_BUSY;
 8002f7e:	2302      	movs	r3, #2
 8002f80:	75fb      	strb	r3, [r7, #23]
    goto error;
 8002f82:	e0ca      	b.n	800311a <HAL_SPI_Receive+0x208>
  }

  if ((pData == NULL) || (Size == 0U))
 8002f84:	68bb      	ldr	r3, [r7, #8]
 8002f86:	2b00      	cmp	r3, #0
 8002f88:	d002      	beq.n	8002f90 <HAL_SPI_Receive+0x7e>
 8002f8a:	88fb      	ldrh	r3, [r7, #6]
 8002f8c:	2b00      	cmp	r3, #0
 8002f8e:	d102      	bne.n	8002f96 <HAL_SPI_Receive+0x84>
  {
    errorcode = HAL_ERROR;
 8002f90:	2301      	movs	r3, #1
 8002f92:	75fb      	strb	r3, [r7, #23]
    goto error;
 8002f94:	e0c1      	b.n	800311a <HAL_SPI_Receive+0x208>
  }

  /* Set the transaction information */
  hspi->State       = HAL_SPI_STATE_BUSY_RX;
 8002f96:	68fb      	ldr	r3, [r7, #12]
 8002f98:	2204      	movs	r2, #4
 8002f9a:	f883 2051 	strb.w	r2, [r3, #81]	; 0x51
  hspi->ErrorCode   = HAL_SPI_ERROR_NONE;
 8002f9e:	68fb      	ldr	r3, [r7, #12]
 8002fa0:	2200      	movs	r2, #0
 8002fa2:	655a      	str	r2, [r3, #84]	; 0x54
  hspi->pRxBuffPtr  = (uint8_t *)pData;
 8002fa4:	68fb      	ldr	r3, [r7, #12]
 8002fa6:	68ba      	ldr	r2, [r7, #8]
 8002fa8:	639a      	str	r2, [r3, #56]	; 0x38
  hspi->RxXferSize  = Size;
 8002faa:	68fb      	ldr	r3, [r7, #12]
 8002fac:	88fa      	ldrh	r2, [r7, #6]
 8002fae:	879a      	strh	r2, [r3, #60]	; 0x3c
  hspi->RxXferCount = Size;
 8002fb0:	68fb      	ldr	r3, [r7, #12]
 8002fb2:	88fa      	ldrh	r2, [r7, #6]
 8002fb4:	87da      	strh	r2, [r3, #62]	; 0x3e

  /*Init field not used in handle to zero */
  hspi->pTxBuffPtr  = (uint8_t *)NULL;
 8002fb6:	68fb      	ldr	r3, [r7, #12]
 8002fb8:	2200      	movs	r2, #0
 8002fba:	631a      	str	r2, [r3, #48]	; 0x30
  hspi->TxXferSize  = 0U;
 8002fbc:	68fb      	ldr	r3, [r7, #12]
 8002fbe:	2200      	movs	r2, #0
 8002fc0:	869a      	strh	r2, [r3, #52]	; 0x34
  hspi->TxXferCount = 0U;
 8002fc2:	68fb      	ldr	r3, [r7, #12]
 8002fc4:	2200      	movs	r2, #0
 8002fc6:	86da      	strh	r2, [r3, #54]	; 0x36
  hspi->RxISR       = NULL;
 8002fc8:	68fb      	ldr	r3, [r7, #12]
 8002fca:	2200      	movs	r2, #0
 8002fcc:	641a      	str	r2, [r3, #64]	; 0x40
  hspi->TxISR       = NULL;
 8002fce:	68fb      	ldr	r3, [r7, #12]
 8002fd0:	2200      	movs	r2, #0
 8002fd2:	645a      	str	r2, [r3, #68]	; 0x44
    hspi->RxXferCount--;
  }
#endif /* USE_SPI_CRC */

  /* Configure communication direction: 1Line */
  if (hspi->Init.Direction == SPI_DIRECTION_1LINE)
 8002fd4:	68fb      	ldr	r3, [r7, #12]
 8002fd6:	689b      	ldr	r3, [r3, #8]
 8002fd8:	f5b3 4f00 	cmp.w	r3, #32768	; 0x8000
 8002fdc:	d10f      	bne.n	8002ffe <HAL_SPI_Receive+0xec>
  {
    /* Disable SPI Peripheral before set 1Line direction (BIDIOE bit) */
    __HAL_SPI_DISABLE(hspi);
 8002fde:	68fb      	ldr	r3, [r7, #12]
 8002fe0:	681b      	ldr	r3, [r3, #0]
 8002fe2:	681a      	ldr	r2, [r3, #0]
 8002fe4:	68fb      	ldr	r3, [r7, #12]
 8002fe6:	681b      	ldr	r3, [r3, #0]
 8002fe8:	f022 0240 	bic.w	r2, r2, #64	; 0x40
 8002fec:	601a      	str	r2, [r3, #0]
    SPI_1LINE_RX(hspi);
 8002fee:	68fb      	ldr	r3, [r7, #12]
 8002ff0:	681b      	ldr	r3, [r3, #0]
 8002ff2:	681a      	ldr	r2, [r3, #0]
 8002ff4:	68fb      	ldr	r3, [r7, #12]
 8002ff6:	681b      	ldr	r3, [r3, #0]
 8002ff8:	f422 4280 	bic.w	r2, r2, #16384	; 0x4000
 8002ffc:	601a      	str	r2, [r3, #0]
  }

  /* Check if the SPI is already enabled */
  if ((hspi->Instance->CR1 & SPI_CR1_SPE) != SPI_CR1_SPE)
 8002ffe:	68fb      	ldr	r3, [r7, #12]
 8003000:	681b      	ldr	r3, [r3, #0]
 8003002:	681b      	ldr	r3, [r3, #0]
 8003004:	f003 0340 	and.w	r3, r3, #64	; 0x40
 8003008:	2b40      	cmp	r3, #64	; 0x40
 800300a:	d007      	beq.n	800301c <HAL_SPI_Receive+0x10a>
  {
    /* Enable SPI peripheral */
    __HAL_SPI_ENABLE(hspi);
 800300c:	68fb      	ldr	r3, [r7, #12]
 800300e:	681b      	ldr	r3, [r3, #0]
 8003010:	681a      	ldr	r2, [r3, #0]
 8003012:	68fb      	ldr	r3, [r7, #12]
 8003014:	681b      	ldr	r3, [r3, #0]
 8003016:	f042 0240 	orr.w	r2, r2, #64	; 0x40
 800301a:	601a      	str	r2, [r3, #0]
  }

  /* Receive data in 8 Bit mode */
  if (hspi->Init.DataSize == SPI_DATASIZE_8BIT)
 800301c:	68fb      	ldr	r3, [r7, #12]
 800301e:	68db      	ldr	r3, [r3, #12]
 8003020:	2b00      	cmp	r3, #0
 8003022:	d162      	bne.n	80030ea <HAL_SPI_Receive+0x1d8>
  {
    /* Transfer loop */
    while (hspi->RxXferCount > 0U)
 8003024:	e02e      	b.n	8003084 <HAL_SPI_Receive+0x172>
    {
      /* Check the RXNE flag */
      if (__HAL_SPI_GET_FLAG(hspi, SPI_FLAG_RXNE))
 8003026:	68fb      	ldr	r3, [r7, #12]
 8003028:	681b      	ldr	r3, [r3, #0]
 800302a:	689b      	ldr	r3, [r3, #8]
 800302c:	f003 0301 	and.w	r3, r3, #1
 8003030:	2b01      	cmp	r3, #1
 8003032:	d115      	bne.n	8003060 <HAL_SPI_Receive+0x14e>
      {
        /* read the received data */
        (* (uint8_t *)hspi->pRxBuffPtr) = *(__IO uint8_t *)&hspi->Instance->DR;
 8003034:	68fb      	ldr	r3, [r7, #12]
 8003036:	681b      	ldr	r3, [r3, #0]
 8003038:	f103 020c 	add.w	r2, r3, #12
 800303c:	68fb      	ldr	r3, [r7, #12]
 800303e:	6b9b      	ldr	r3, [r3, #56]	; 0x38
 8003040:	7812      	ldrb	r2, [r2, #0]
 8003042:	b2d2      	uxtb	r2, r2
 8003044:	701a      	strb	r2, [r3, #0]
        hspi->pRxBuffPtr += sizeof(uint8_t);
 8003046:	68fb      	ldr	r3, [r7, #12]
 8003048:	6b9b      	ldr	r3, [r3, #56]	; 0x38
 800304a:	1c5a      	adds	r2, r3, #1
 800304c:	68fb      	ldr	r3, [r7, #12]
 800304e:	639a      	str	r2, [r3, #56]	; 0x38
        hspi->RxXferCount--;
 8003050:	68fb      	ldr	r3, [r7, #12]
 8003052:	8fdb      	ldrh	r3, [r3, #62]	; 0x3e
 8003054:	b29b      	uxth	r3, r3
 8003056:	3b01      	subs	r3, #1
 8003058:	b29a      	uxth	r2, r3
 800305a:	68fb      	ldr	r3, [r7, #12]
 800305c:	87da      	strh	r2, [r3, #62]	; 0x3e
 800305e:	e011      	b.n	8003084 <HAL_SPI_Receive+0x172>
      }
      else
      {
        /* Timeout management */
        if ((((HAL_GetTick() - tickstart) >=  Timeout) && (Timeout != HAL_MAX_DELAY)) || (Timeout == 0U))
 8003060:	f7fe fe42 	bl	8001ce8 <HAL_GetTick>
 8003064:	4602      	mov	r2, r0
 8003066:	693b      	ldr	r3, [r7, #16]
 8003068:	1ad3      	subs	r3, r2, r3
 800306a:	683a      	ldr	r2, [r7, #0]
 800306c:	429a      	cmp	r2, r3
 800306e:	d803      	bhi.n	8003078 <HAL_SPI_Receive+0x166>
 8003070:	683b      	ldr	r3, [r7, #0]
 8003072:	f1b3 3fff 	cmp.w	r3, #4294967295
 8003076:	d102      	bne.n	800307e <HAL_SPI_Receive+0x16c>
 8003078:	683b      	ldr	r3, [r7, #0]
 800307a:	2b00      	cmp	r3, #0
 800307c:	d102      	bne.n	8003084 <HAL_SPI_Receive+0x172>
        {
          errorcode = HAL_TIMEOUT;
 800307e:	2303      	movs	r3, #3
 8003080:	75fb      	strb	r3, [r7, #23]
          goto error;
 8003082:	e04a      	b.n	800311a <HAL_SPI_Receive+0x208>
    while (hspi->RxXferCount > 0U)
 8003084:	68fb      	ldr	r3, [r7, #12]
 8003086:	8fdb      	ldrh	r3, [r3, #62]	; 0x3e
 8003088:	b29b      	uxth	r3, r3
 800308a:	2b00      	cmp	r3, #0
 800308c:	d1cb      	bne.n	8003026 <HAL_SPI_Receive+0x114>
 800308e:	e031      	b.n	80030f4 <HAL_SPI_Receive+0x1e2>
  {
    /* Transfer loop */
    while (hspi->RxXferCount > 0U)
    {
      /* Check the RXNE flag */
      if (__HAL_SPI_GET_FLAG(hspi, SPI_FLAG_RXNE))
 8003090:	68fb      	ldr	r3, [r7, #12]
 8003092:	681b      	ldr	r3, [r3, #0]
 8003094:	689b      	ldr	r3, [r3, #8]
 8003096:	f003 0301 	and.w	r3, r3, #1
 800309a:	2b01      	cmp	r3, #1
 800309c:	d113      	bne.n	80030c6 <HAL_SPI_Receive+0x1b4>
      {
        *((uint16_t *)hspi->pRxBuffPtr) = (uint16_t)hspi->Instance->DR;
 800309e:	68fb      	ldr	r3, [r7, #12]
 80030a0:	681b      	ldr	r3, [r3, #0]
 80030a2:	68da      	ldr	r2, [r3, #12]
 80030a4:	68fb      	ldr	r3, [r7, #12]
 80030a6:	6b9b      	ldr	r3, [r3, #56]	; 0x38
 80030a8:	b292      	uxth	r2, r2
 80030aa:	801a      	strh	r2, [r3, #0]
        hspi->pRxBuffPtr += sizeof(uint16_t);
 80030ac:	68fb      	ldr	r3, [r7, #12]
 80030ae:	6b9b      	ldr	r3, [r3, #56]	; 0x38
 80030b0:	1c9a      	adds	r2, r3, #2
 80030b2:	68fb      	ldr	r3, [r7, #12]
 80030b4:	639a      	str	r2, [r3, #56]	; 0x38
        hspi->RxXferCount--;
 80030b6:	68fb      	ldr	r3, [r7, #12]
 80030b8:	8fdb      	ldrh	r3, [r3, #62]	; 0x3e
 80030ba:	b29b      	uxth	r3, r3
 80030bc:	3b01      	subs	r3, #1
 80030be:	b29a      	uxth	r2, r3
 80030c0:	68fb      	ldr	r3, [r7, #12]
 80030c2:	87da      	strh	r2, [r3, #62]	; 0x3e
 80030c4:	e011      	b.n	80030ea <HAL_SPI_Receive+0x1d8>
      }
      else
      {
        /* Timeout management */
        if ((((HAL_GetTick() - tickstart) >=  Timeout) && (Timeout != HAL_MAX_DELAY)) || (Timeout == 0U))
 80030c6:	f7fe fe0f 	bl	8001ce8 <HAL_GetTick>
 80030ca:	4602      	mov	r2, r0
 80030cc:	693b      	ldr	r3, [r7, #16]
 80030ce:	1ad3      	subs	r3, r2, r3
 80030d0:	683a      	ldr	r2, [r7, #0]
 80030d2:	429a      	cmp	r2, r3
 80030d4:	d803      	bhi.n	80030de <HAL_SPI_Receive+0x1cc>
 80030d6:	683b      	ldr	r3, [r7, #0]
 80030d8:	f1b3 3fff 	cmp.w	r3, #4294967295
 80030dc:	d102      	bne.n	80030e4 <HAL_SPI_Receive+0x1d2>
 80030de:	683b      	ldr	r3, [r7, #0]
 80030e0:	2b00      	cmp	r3, #0
 80030e2:	d102      	bne.n	80030ea <HAL_SPI_Receive+0x1d8>
        {
          errorcode = HAL_TIMEOUT;
 80030e4:	2303      	movs	r3, #3
 80030e6:	75fb      	strb	r3, [r7, #23]
          goto error;
 80030e8:	e017      	b.n	800311a <HAL_SPI_Receive+0x208>
    while (hspi->RxXferCount > 0U)
 80030ea:	68fb      	ldr	r3, [r7, #12]
 80030ec:	8fdb      	ldrh	r3, [r3, #62]	; 0x3e
 80030ee:	b29b      	uxth	r3, r3
 80030f0:	2b00      	cmp	r3, #0
 80030f2:	d1cd      	bne.n	8003090 <HAL_SPI_Receive+0x17e>
    UNUSED(tmpreg);
  }
#endif /* USE_SPI_CRC */

  /* Check the end of the transaction */
  if (SPI_EndRxTransaction(hspi, Timeout, tickstart) != HAL_OK)
 80030f4:	693a      	ldr	r2, [r7, #16]
 80030f6:	6839      	ldr	r1, [r7, #0]
 80030f8:	68f8      	ldr	r0, [r7, #12]
 80030fa:	f000 fa45 	bl	8003588 <SPI_EndRxTransaction>
 80030fe:	4603      	mov	r3, r0
 8003100:	2b00      	cmp	r3, #0
 8003102:	d002      	beq.n	800310a <HAL_SPI_Receive+0x1f8>
  {
    hspi->ErrorCode = HAL_SPI_ERROR_FLAG;
 8003104:	68fb      	ldr	r3, [r7, #12]
 8003106:	2220      	movs	r2, #32
 8003108:	655a      	str	r2, [r3, #84]	; 0x54
    SET_BIT(hspi->ErrorCode, HAL_SPI_ERROR_CRC);
    __HAL_SPI_CLEAR_CRCERRFLAG(hspi);
  }
#endif /* USE_SPI_CRC */

  if (hspi->ErrorCode != HAL_SPI_ERROR_NONE)
 800310a:	68fb      	ldr	r3, [r7, #12]
 800310c:	6d5b      	ldr	r3, [r3, #84]	; 0x54
 800310e:	2b00      	cmp	r3, #0
 8003110:	d002      	beq.n	8003118 <HAL_SPI_Receive+0x206>
  {
    errorcode = HAL_ERROR;
 8003112:	2301      	movs	r3, #1
 8003114:	75fb      	strb	r3, [r7, #23]
 8003116:	e000      	b.n	800311a <HAL_SPI_Receive+0x208>
  }

error :
 8003118:	bf00      	nop
  hspi->State = HAL_SPI_STATE_READY;
 800311a:	68fb      	ldr	r3, [r7, #12]
 800311c:	2201      	movs	r2, #1
 800311e:	f883 2051 	strb.w	r2, [r3, #81]	; 0x51
  __HAL_UNLOCK(hspi);
 8003122:	68fb      	ldr	r3, [r7, #12]
 8003124:	2200      	movs	r2, #0
 8003126:	f883 2050 	strb.w	r2, [r3, #80]	; 0x50
  return errorcode;
 800312a:	7dfb      	ldrb	r3, [r7, #23]
}
 800312c:	4618      	mov	r0, r3
 800312e:	3718      	adds	r7, #24
 8003130:	46bd      	mov	sp, r7
 8003132:	bd80      	pop	{r7, pc}

08003134 <HAL_SPI_TransmitReceive>:
  * @param  Timeout Timeout duration
  * @retval HAL status
  */
HAL_StatusTypeDef HAL_SPI_TransmitReceive(SPI_HandleTypeDef *hspi, uint8_t *pTxData, uint8_t *pRxData, uint16_t Size,
                                          uint32_t Timeout)
{
 8003134:	b580      	push	{r7, lr}
 8003136:	b08c      	sub	sp, #48	; 0x30
 8003138:	af00      	add	r7, sp, #0
 800313a:	60f8      	str	r0, [r7, #12]
 800313c:	60b9      	str	r1, [r7, #8]
 800313e:	607a      	str	r2, [r7, #4]
 8003140:	807b      	strh	r3, [r7, #2]
#if (USE_SPI_CRC != 0U)
  __IO uint32_t tmpreg = 0U;
#endif /* USE_SPI_CRC */

  /* Variable used to alternate Rx and Tx during transfer */
  uint32_t             txallowed = 1U;
 8003142:	2301      	movs	r3, #1
 8003144:	62fb      	str	r3, [r7, #44]	; 0x2c
  HAL_StatusTypeDef    errorcode = HAL_OK;
 8003146:	2300      	movs	r3, #0
 8003148:	f887 302b 	strb.w	r3, [r7, #43]	; 0x2b

  /* Check Direction parameter */
  assert_param(IS_SPI_DIRECTION_2LINES(hspi->Init.Direction));

  /* Process Locked */
  __HAL_LOCK(hspi);
 800314c:	68fb      	ldr	r3, [r7, #12]
 800314e:	f893 3050 	ldrb.w	r3, [r3, #80]	; 0x50
 8003152:	2b01      	cmp	r3, #1
 8003154:	d101      	bne.n	800315a <HAL_SPI_TransmitReceive+0x26>
 8003156:	2302      	movs	r3, #2
 8003158:	e18a      	b.n	8003470 <HAL_SPI_TransmitReceive+0x33c>
 800315a:	68fb      	ldr	r3, [r7, #12]
 800315c:	2201      	movs	r2, #1
 800315e:	f883 2050 	strb.w	r2, [r3, #80]	; 0x50

  /* Init tickstart for timeout management*/
  tickstart = HAL_GetTick();
 8003162:	f7fe fdc1 	bl	8001ce8 <HAL_GetTick>
 8003166:	6278      	str	r0, [r7, #36]	; 0x24

  /* Init temporary variables */
  tmp_state           = hspi->State;
 8003168:	68fb      	ldr	r3, [r7, #12]
 800316a:	f893 3051 	ldrb.w	r3, [r3, #81]	; 0x51
 800316e:	f887 3023 	strb.w	r3, [r7, #35]	; 0x23
  tmp_mode            = hspi->Init.Mode;
 8003172:	68fb      	ldr	r3, [r7, #12]
 8003174:	685b      	ldr	r3, [r3, #4]
 8003176:	61fb      	str	r3, [r7, #28]
  initial_TxXferCount = Size;
 8003178:	887b      	ldrh	r3, [r7, #2]
 800317a:	837b      	strh	r3, [r7, #26]

  if (!((tmp_state == HAL_SPI_STATE_READY) || \
 800317c:	f897 3023 	ldrb.w	r3, [r7, #35]	; 0x23
 8003180:	2b01      	cmp	r3, #1
 8003182:	d00f      	beq.n	80031a4 <HAL_SPI_TransmitReceive+0x70>
 8003184:	69fb      	ldr	r3, [r7, #28]
 8003186:	f5b3 7f82 	cmp.w	r3, #260	; 0x104
 800318a:	d107      	bne.n	800319c <HAL_SPI_TransmitReceive+0x68>
        ((tmp_mode == SPI_MODE_MASTER) && (hspi->Init.Direction == SPI_DIRECTION_2LINES) && (tmp_state == HAL_SPI_STATE_BUSY_RX))))
 800318c:	68fb      	ldr	r3, [r7, #12]
 800318e:	689b      	ldr	r3, [r3, #8]
 8003190:	2b00      	cmp	r3, #0
 8003192:	d103      	bne.n	800319c <HAL_SPI_TransmitReceive+0x68>
 8003194:	f897 3023 	ldrb.w	r3, [r7, #35]	; 0x23
 8003198:	2b04      	cmp	r3, #4
 800319a:	d003      	beq.n	80031a4 <HAL_SPI_TransmitReceive+0x70>
  {
    errorcode = HAL_BUSY;
 800319c:	2302      	movs	r3, #2
 800319e:	f887 302b 	strb.w	r3, [r7, #43]	; 0x2b
    goto error;
 80031a2:	e15b      	b.n	800345c <HAL_SPI_TransmitReceive+0x328>
  }

  if ((pTxData == NULL) || (pRxData == NULL) || (Size == 0U))
 80031a4:	68bb      	ldr	r3, [r7, #8]
 80031a6:	2b00      	cmp	r3, #0
 80031a8:	d005      	beq.n	80031b6 <HAL_SPI_TransmitReceive+0x82>
 80031aa:	687b      	ldr	r3, [r7, #4]
 80031ac:	2b00      	cmp	r3, #0
 80031ae:	d002      	beq.n	80031b6 <HAL_SPI_TransmitReceive+0x82>
 80031b0:	887b      	ldrh	r3, [r7, #2]
 80031b2:	2b00      	cmp	r3, #0
 80031b4:	d103      	bne.n	80031be <HAL_SPI_TransmitReceive+0x8a>
  {
    errorcode = HAL_ERROR;
 80031b6:	2301      	movs	r3, #1
 80031b8:	f887 302b 	strb.w	r3, [r7, #43]	; 0x2b
    goto error;
 80031bc:	e14e      	b.n	800345c <HAL_SPI_TransmitReceive+0x328>
  }

  /* Don't overwrite in case of HAL_SPI_STATE_BUSY_RX */
  if (hspi->State != HAL_SPI_STATE_BUSY_RX)
 80031be:	68fb      	ldr	r3, [r7, #12]
 80031c0:	f893 3051 	ldrb.w	r3, [r3, #81]	; 0x51
 80031c4:	b2db      	uxtb	r3, r3
 80031c6:	2b04      	cmp	r3, #4
 80031c8:	d003      	beq.n	80031d2 <HAL_SPI_TransmitReceive+0x9e>
  {
    hspi->State = HAL_SPI_STATE_BUSY_TX_RX;
 80031ca:	68fb      	ldr	r3, [r7, #12]
 80031cc:	2205      	movs	r2, #5
 80031ce:	f883 2051 	strb.w	r2, [r3, #81]	; 0x51
  }

  /* Set the transaction information */
  hspi->ErrorCode   = HAL_SPI_ERROR_NONE;
 80031d2:	68fb      	ldr	r3, [r7, #12]
 80031d4:	2200      	movs	r2, #0
 80031d6:	655a      	str	r2, [r3, #84]	; 0x54
  hspi->pRxBuffPtr  = (uint8_t *)pRxData;
 80031d8:	68fb      	ldr	r3, [r7, #12]
 80031da:	687a      	ldr	r2, [r7, #4]
 80031dc:	639a      	str	r2, [r3, #56]	; 0x38
  hspi->RxXferCount = Size;
 80031de:	68fb      	ldr	r3, [r7, #12]
 80031e0:	887a      	ldrh	r2, [r7, #2]
 80031e2:	87da      	strh	r2, [r3, #62]	; 0x3e
  hspi->RxXferSize  = Size;
 80031e4:	68fb      	ldr	r3, [r7, #12]
 80031e6:	887a      	ldrh	r2, [r7, #2]
 80031e8:	879a      	strh	r2, [r3, #60]	; 0x3c
  hspi->pTxBuffPtr  = (uint8_t *)pTxData;
 80031ea:	68fb      	ldr	r3, [r7, #12]
 80031ec:	68ba      	ldr	r2, [r7, #8]
 80031ee:	631a      	str	r2, [r3, #48]	; 0x30
  hspi->TxXferCount = Size;
 80031f0:	68fb      	ldr	r3, [r7, #12]
 80031f2:	887a      	ldrh	r2, [r7, #2]
 80031f4:	86da      	strh	r2, [r3, #54]	; 0x36
  hspi->TxXferSize  = Size;
 80031f6:	68fb      	ldr	r3, [r7, #12]
 80031f8:	887a      	ldrh	r2, [r7, #2]
 80031fa:	869a      	strh	r2, [r3, #52]	; 0x34

  /*Init field not used in handle to zero */
  hspi->RxISR       = NULL;
 80031fc:	68fb      	ldr	r3, [r7, #12]
 80031fe:	2200      	movs	r2, #0
 8003200:	641a      	str	r2, [r3, #64]	; 0x40
  hspi->TxISR       = NULL;
 8003202:	68fb      	ldr	r3, [r7, #12]
 8003204:	2200      	movs	r2, #0
 8003206:	645a      	str	r2, [r3, #68]	; 0x44
    SPI_RESET_CRC(hspi);
  }
#endif /* USE_SPI_CRC */

  /* Check if the SPI is already enabled */
  if ((hspi->Instance->CR1 & SPI_CR1_SPE) != SPI_CR1_SPE)
 8003208:	68fb      	ldr	r3, [r7, #12]
 800320a:	681b      	ldr	r3, [r3, #0]
 800320c:	681b      	ldr	r3, [r3, #0]
 800320e:	f003 0340 	and.w	r3, r3, #64	; 0x40
 8003212:	2b40      	cmp	r3, #64	; 0x40
 8003214:	d007      	beq.n	8003226 <HAL_SPI_TransmitReceive+0xf2>
  {
    /* Enable SPI peripheral */
    __HAL_SPI_ENABLE(hspi);
 8003216:	68fb      	ldr	r3, [r7, #12]
 8003218:	681b      	ldr	r3, [r3, #0]
 800321a:	681a      	ldr	r2, [r3, #0]
 800321c:	68fb      	ldr	r3, [r7, #12]
 800321e:	681b      	ldr	r3, [r3, #0]
 8003220:	f042 0240 	orr.w	r2, r2, #64	; 0x40
 8003224:	601a      	str	r2, [r3, #0]
  }

  /* Transmit and Receive data in 16 Bit mode */
  if (hspi->Init.DataSize == SPI_DATASIZE_16BIT)
 8003226:	68fb      	ldr	r3, [r7, #12]
 8003228:	68db      	ldr	r3, [r3, #12]
 800322a:	f5b3 6f00 	cmp.w	r3, #2048	; 0x800
 800322e:	d178      	bne.n	8003322 <HAL_SPI_TransmitReceive+0x1ee>
  {
    if ((hspi->Init.Mode == SPI_MODE_SLAVE) || (initial_TxXferCount == 0x01U))
 8003230:	68fb      	ldr	r3, [r7, #12]
 8003232:	685b      	ldr	r3, [r3, #4]
 8003234:	2b00      	cmp	r3, #0
 8003236:	d002      	beq.n	800323e <HAL_SPI_TransmitReceive+0x10a>
 8003238:	8b7b      	ldrh	r3, [r7, #26]
 800323a:	2b01      	cmp	r3, #1
 800323c:	d166      	bne.n	800330c <HAL_SPI_TransmitReceive+0x1d8>
    {
      hspi->Instance->DR = *((uint16_t *)hspi->pTxBuffPtr);
 800323e:	68fb      	ldr	r3, [r7, #12]
 8003240:	6b1b      	ldr	r3, [r3, #48]	; 0x30
 8003242:	881a      	ldrh	r2, [r3, #0]
 8003244:	68fb      	ldr	r3, [r7, #12]
 8003246:	681b      	ldr	r3, [r3, #0]
 8003248:	60da      	str	r2, [r3, #12]
      hspi->pTxBuffPtr += sizeof(uint16_t);
 800324a:	68fb      	ldr	r3, [r7, #12]
 800324c:	6b1b      	ldr	r3, [r3, #48]	; 0x30
 800324e:	1c9a      	adds	r2, r3, #2
 8003250:	68fb      	ldr	r3, [r7, #12]
 8003252:	631a      	str	r2, [r3, #48]	; 0x30
      hspi->TxXferCount--;
 8003254:	68fb      	ldr	r3, [r7, #12]
 8003256:	8edb      	ldrh	r3, [r3, #54]	; 0x36
 8003258:	b29b      	uxth	r3, r3
 800325a:	3b01      	subs	r3, #1
 800325c:	b29a      	uxth	r2, r3
 800325e:	68fb      	ldr	r3, [r7, #12]
 8003260:	86da      	strh	r2, [r3, #54]	; 0x36
    }
    while ((hspi->TxXferCount > 0U) || (hspi->RxXferCount > 0U))
 8003262:	e053      	b.n	800330c <HAL_SPI_TransmitReceive+0x1d8>
    {
      /* Check TXE flag */
      if ((__HAL_SPI_GET_FLAG(hspi, SPI_FLAG_TXE)) && (hspi->TxXferCount > 0U) && (txallowed == 1U))
 8003264:	68fb      	ldr	r3, [r7, #12]
 8003266:	681b      	ldr	r3, [r3, #0]
 8003268:	689b      	ldr	r3, [r3, #8]
 800326a:	f003 0302 	and.w	r3, r3, #2
 800326e:	2b02      	cmp	r3, #2
 8003270:	d11b      	bne.n	80032aa <HAL_SPI_TransmitReceive+0x176>
 8003272:	68fb      	ldr	r3, [r7, #12]
 8003274:	8edb      	ldrh	r3, [r3, #54]	; 0x36
 8003276:	b29b      	uxth	r3, r3
 8003278:	2b00      	cmp	r3, #0
 800327a:	d016      	beq.n	80032aa <HAL_SPI_TransmitReceive+0x176>
 800327c:	6afb      	ldr	r3, [r7, #44]	; 0x2c
 800327e:	2b01      	cmp	r3, #1
 8003280:	d113      	bne.n	80032aa <HAL_SPI_TransmitReceive+0x176>
      {
        hspi->Instance->DR = *((uint16_t *)hspi->pTxBuffPtr);
 8003282:	68fb      	ldr	r3, [r7, #12]
 8003284:	6b1b      	ldr	r3, [r3, #48]	; 0x30
 8003286:	881a      	ldrh	r2, [r3, #0]
 8003288:	68fb      	ldr	r3, [r7, #12]
 800328a:	681b      	ldr	r3, [r3, #0]
 800328c:	60da      	str	r2, [r3, #12]
        hspi->pTxBuffPtr += sizeof(uint16_t);
 800328e:	68fb      	ldr	r3, [r7, #12]
 8003290:	6b1b      	ldr	r3, [r3, #48]	; 0x30
 8003292:	1c9a      	adds	r2, r3, #2
 8003294:	68fb      	ldr	r3, [r7, #12]
 8003296:	631a      	str	r2, [r3, #48]	; 0x30
        hspi->TxXferCount--;
 8003298:	68fb      	ldr	r3, [r7, #12]
 800329a:	8edb      	ldrh	r3, [r3, #54]	; 0x36
 800329c:	b29b      	uxth	r3, r3
 800329e:	3b01      	subs	r3, #1
 80032a0:	b29a      	uxth	r2, r3
 80032a2:	68fb      	ldr	r3, [r7, #12]
 80032a4:	86da      	strh	r2, [r3, #54]	; 0x36
        /* Next Data is a reception (Rx). Tx not allowed */
        txallowed = 0U;
 80032a6:	2300      	movs	r3, #0
 80032a8:	62fb      	str	r3, [r7, #44]	; 0x2c
        }
#endif /* USE_SPI_CRC */
      }

      /* Check RXNE flag */
      if ((__HAL_SPI_GET_FLAG(hspi, SPI_FLAG_RXNE)) && (hspi->RxXferCount > 0U))
 80032aa:	68fb      	ldr	r3, [r7, #12]
 80032ac:	681b      	ldr	r3, [r3, #0]
 80032ae:	689b      	ldr	r3, [r3, #8]
 80032b0:	f003 0301 	and.w	r3, r3, #1
 80032b4:	2b01      	cmp	r3, #1
 80032b6:	d119      	bne.n	80032ec <HAL_SPI_TransmitReceive+0x1b8>
 80032b8:	68fb      	ldr	r3, [r7, #12]
 80032ba:	8fdb      	ldrh	r3, [r3, #62]	; 0x3e
 80032bc:	b29b      	uxth	r3, r3
 80032be:	2b00      	cmp	r3, #0
 80032c0:	d014      	beq.n	80032ec <HAL_SPI_TransmitReceive+0x1b8>
      {
        *((uint16_t *)hspi->pRxBuffPtr) = (uint16_t)hspi->Instance->DR;
 80032c2:	68fb      	ldr	r3, [r7, #12]
 80032c4:	681b      	ldr	r3, [r3, #0]
 80032c6:	68da      	ldr	r2, [r3, #12]
 80032c8:	68fb      	ldr	r3, [r7, #12]
 80032ca:	6b9b      	ldr	r3, [r3, #56]	; 0x38
 80032cc:	b292      	uxth	r2, r2
 80032ce:	801a      	strh	r2, [r3, #0]
        hspi->pRxBuffPtr += sizeof(uint16_t);
 80032d0:	68fb      	ldr	r3, [r7, #12]
 80032d2:	6b9b      	ldr	r3, [r3, #56]	; 0x38
 80032d4:	1c9a      	adds	r2, r3, #2
 80032d6:	68fb      	ldr	r3, [r7, #12]
 80032d8:	639a      	str	r2, [r3, #56]	; 0x38
        hspi->RxXferCount--;
 80032da:	68fb      	ldr	r3, [r7, #12]
 80032dc:	8fdb      	ldrh	r3, [r3, #62]	; 0x3e
 80032de:	b29b      	uxth	r3, r3
 80032e0:	3b01      	subs	r3, #1
 80032e2:	b29a      	uxth	r2, r3
 80032e4:	68fb      	ldr	r3, [r7, #12]
 80032e6:	87da      	strh	r2, [r3, #62]	; 0x3e
        /* Next Data is a Transmission (Tx). Tx is allowed */
        txallowed = 1U;
 80032e8:	2301      	movs	r3, #1
 80032ea:	62fb      	str	r3, [r7, #44]	; 0x2c
      }
      if (((HAL_GetTick() - tickstart) >=  Timeout) && (Timeout != HAL_MAX_DELAY))
 80032ec:	f7fe fcfc 	bl	8001ce8 <HAL_GetTick>
 80032f0:	4602      	mov	r2, r0
 80032f2:	6a7b      	ldr	r3, [r7, #36]	; 0x24
 80032f4:	1ad3      	subs	r3, r2, r3
 80032f6:	6bba      	ldr	r2, [r7, #56]	; 0x38
 80032f8:	429a      	cmp	r2, r3
 80032fa:	d807      	bhi.n	800330c <HAL_SPI_TransmitReceive+0x1d8>
 80032fc:	6bbb      	ldr	r3, [r7, #56]	; 0x38
 80032fe:	f1b3 3fff 	cmp.w	r3, #4294967295
 8003302:	d003      	beq.n	800330c <HAL_SPI_TransmitReceive+0x1d8>
      {
        errorcode = HAL_TIMEOUT;
 8003304:	2303      	movs	r3, #3
 8003306:	f887 302b 	strb.w	r3, [r7, #43]	; 0x2b
        goto error;
 800330a:	e0a7      	b.n	800345c <HAL_SPI_TransmitReceive+0x328>
    while ((hspi->TxXferCount > 0U) || (hspi->RxXferCount > 0U))
 800330c:	68fb      	ldr	r3, [r7, #12]
 800330e:	8edb      	ldrh	r3, [r3, #54]	; 0x36
 8003310:	b29b      	uxth	r3, r3
 8003312:	2b00      	cmp	r3, #0
 8003314:	d1a6      	bne.n	8003264 <HAL_SPI_TransmitReceive+0x130>
 8003316:	68fb      	ldr	r3, [r7, #12]
 8003318:	8fdb      	ldrh	r3, [r3, #62]	; 0x3e
 800331a:	b29b      	uxth	r3, r3
 800331c:	2b00      	cmp	r3, #0
 800331e:	d1a1      	bne.n	8003264 <HAL_SPI_TransmitReceive+0x130>
 8003320:	e07c      	b.n	800341c <HAL_SPI_TransmitReceive+0x2e8>
    }
  }
  /* Transmit and Receive data in 8 Bit mode */
  else
  {
    if ((hspi->Init.Mode == SPI_MODE_SLAVE) || (initial_TxXferCount == 0x01U))
 8003322:	68fb      	ldr	r3, [r7, #12]
 8003324:	685b      	ldr	r3, [r3, #4]
 8003326:	2b00      	cmp	r3, #0
 8003328:	d002      	beq.n	8003330 <HAL_SPI_TransmitReceive+0x1fc>
 800332a:	8b7b      	ldrh	r3, [r7, #26]
 800332c:	2b01      	cmp	r3, #1
 800332e:	d16b      	bne.n	8003408 <HAL_SPI_TransmitReceive+0x2d4>
    {
      *((__IO uint8_t *)&hspi->Instance->DR) = (*hspi->pTxBuffPtr);
 8003330:	68fb      	ldr	r3, [r7, #12]
 8003332:	6b1a      	ldr	r2, [r3, #48]	; 0x30
 8003334:	68fb      	ldr	r3, [r7, #12]
 8003336:	681b      	ldr	r3, [r3, #0]
 8003338:	330c      	adds	r3, #12
 800333a:	7812      	ldrb	r2, [r2, #0]
 800333c:	701a      	strb	r2, [r3, #0]
      hspi->pTxBuffPtr += sizeof(uint8_t);
 800333e:	68fb      	ldr	r3, [r7, #12]
 8003340:	6b1b      	ldr	r3, [r3, #48]	; 0x30
 8003342:	1c5a      	adds	r2, r3, #1
 8003344:	68fb      	ldr	r3, [r7, #12]
 8003346:	631a      	str	r2, [r3, #48]	; 0x30
      hspi->TxXferCount--;
 8003348:	68fb      	ldr	r3, [r7, #12]
 800334a:	8edb      	ldrh	r3, [r3, #54]	; 0x36
 800334c:	b29b      	uxth	r3, r3
 800334e:	3b01      	subs	r3, #1
 8003350:	b29a      	uxth	r2, r3
 8003352:	68fb      	ldr	r3, [r7, #12]
 8003354:	86da      	strh	r2, [r3, #54]	; 0x36
    }
    while ((hspi->TxXferCount > 0U) || (hspi->RxXferCount > 0U))
 8003356:	e057      	b.n	8003408 <HAL_SPI_TransmitReceive+0x2d4>
    {
      /* Check TXE flag */
      if ((__HAL_SPI_GET_FLAG(hspi, SPI_FLAG_TXE)) && (hspi->TxXferCount > 0U) && (txallowed == 1U))
 8003358:	68fb      	ldr	r3, [r7, #12]
 800335a:	681b      	ldr	r3, [r3, #0]
 800335c:	689b      	ldr	r3, [r3, #8]
 800335e:	f003 0302 	and.w	r3, r3, #2
 8003362:	2b02      	cmp	r3, #2
 8003364:	d11c      	bne.n	80033a0 <HAL_SPI_TransmitReceive+0x26c>
 8003366:	68fb      	ldr	r3, [r7, #12]
 8003368:	8edb      	ldrh	r3, [r3, #54]	; 0x36
 800336a:	b29b      	uxth	r3, r3
 800336c:	2b00      	cmp	r3, #0
 800336e:	d017      	beq.n	80033a0 <HAL_SPI_TransmitReceive+0x26c>
 8003370:	6afb      	ldr	r3, [r7, #44]	; 0x2c
 8003372:	2b01      	cmp	r3, #1
 8003374:	d114      	bne.n	80033a0 <HAL_SPI_TransmitReceive+0x26c>
      {
        *(__IO uint8_t *)&hspi->Instance->DR = (*hspi->pTxBuffPtr);
 8003376:	68fb      	ldr	r3, [r7, #12]
 8003378:	6b1a      	ldr	r2, [r3, #48]	; 0x30
 800337a:	68fb      	ldr	r3, [r7, #12]
 800337c:	681b      	ldr	r3, [r3, #0]
 800337e:	330c      	adds	r3, #12
 8003380:	7812      	ldrb	r2, [r2, #0]
 8003382:	701a      	strb	r2, [r3, #0]
        hspi->pTxBuffPtr++;
 8003384:	68fb      	ldr	r3, [r7, #12]
 8003386:	6b1b      	ldr	r3, [r3, #48]	; 0x30
 8003388:	1c5a      	adds	r2, r3, #1
 800338a:	68fb      	ldr	r3, [r7, #12]
 800338c:	631a      	str	r2, [r3, #48]	; 0x30
        hspi->TxXferCount--;
 800338e:	68fb      	ldr	r3, [r7, #12]
 8003390:	8edb      	ldrh	r3, [r3, #54]	; 0x36
 8003392:	b29b      	uxth	r3, r3
 8003394:	3b01      	subs	r3, #1
 8003396:	b29a      	uxth	r2, r3
 8003398:	68fb      	ldr	r3, [r7, #12]
 800339a:	86da      	strh	r2, [r3, #54]	; 0x36
        /* Next Data is a reception (Rx). Tx not allowed */
        txallowed = 0U;
 800339c:	2300      	movs	r3, #0
 800339e:	62fb      	str	r3, [r7, #44]	; 0x2c
        }
#endif /* USE_SPI_CRC */
      }

      /* Wait until RXNE flag is reset */
      if ((__HAL_SPI_GET_FLAG(hspi, SPI_FLAG_RXNE)) && (hspi->RxXferCount > 0U))
 80033a0:	68fb      	ldr	r3, [r7, #12]
 80033a2:	681b      	ldr	r3, [r3, #0]
 80033a4:	689b      	ldr	r3, [r3, #8]
 80033a6:	f003 0301 	and.w	r3, r3, #1
 80033aa:	2b01      	cmp	r3, #1
 80033ac:	d119      	bne.n	80033e2 <HAL_SPI_TransmitReceive+0x2ae>
 80033ae:	68fb      	ldr	r3, [r7, #12]
 80033b0:	8fdb      	ldrh	r3, [r3, #62]	; 0x3e
 80033b2:	b29b      	uxth	r3, r3
 80033b4:	2b00      	cmp	r3, #0
 80033b6:	d014      	beq.n	80033e2 <HAL_SPI_TransmitReceive+0x2ae>
      {
        (*(uint8_t *)hspi->pRxBuffPtr) = hspi->Instance->DR;
 80033b8:	68fb      	ldr	r3, [r7, #12]
 80033ba:	681b      	ldr	r3, [r3, #0]
 80033bc:	68da      	ldr	r2, [r3, #12]
 80033be:	68fb      	ldr	r3, [r7, #12]
 80033c0:	6b9b      	ldr	r3, [r3, #56]	; 0x38
 80033c2:	b2d2      	uxtb	r2, r2
 80033c4:	701a      	strb	r2, [r3, #0]
        hspi->pRxBuffPtr++;
 80033c6:	68fb      	ldr	r3, [r7, #12]
 80033c8:	6b9b      	ldr	r3, [r3, #56]	; 0x38
 80033ca:	1c5a      	adds	r2, r3, #1
 80033cc:	68fb      	ldr	r3, [r7, #12]
 80033ce:	639a      	str	r2, [r3, #56]	; 0x38
        hspi->RxXferCount--;
 80033d0:	68fb      	ldr	r3, [r7, #12]
 80033d2:	8fdb      	ldrh	r3, [r3, #62]	; 0x3e
 80033d4:	b29b      	uxth	r3, r3
 80033d6:	3b01      	subs	r3, #1
 80033d8:	b29a      	uxth	r2, r3
 80033da:	68fb      	ldr	r3, [r7, #12]
 80033dc:	87da      	strh	r2, [r3, #62]	; 0x3e
        /* Next Data is a Transmission (Tx). Tx is allowed */
        txallowed = 1U;
 80033de:	2301      	movs	r3, #1
 80033e0:	62fb      	str	r3, [r7, #44]	; 0x2c
      }
      if ((((HAL_GetTick() - tickstart) >=  Timeout) && ((Timeout != HAL_MAX_DELAY))) || (Timeout == 0U))
 80033e2:	f7fe fc81 	bl	8001ce8 <HAL_GetTick>
 80033e6:	4602      	mov	r2, r0
 80033e8:	6a7b      	ldr	r3, [r7, #36]	; 0x24
 80033ea:	1ad3      	subs	r3, r2, r3
 80033ec:	6bba      	ldr	r2, [r7, #56]	; 0x38
 80033ee:	429a      	cmp	r2, r3
 80033f0:	d803      	bhi.n	80033fa <HAL_SPI_TransmitReceive+0x2c6>
 80033f2:	6bbb      	ldr	r3, [r7, #56]	; 0x38
 80033f4:	f1b3 3fff 	cmp.w	r3, #4294967295
 80033f8:	d102      	bne.n	8003400 <HAL_SPI_TransmitReceive+0x2cc>
 80033fa:	6bbb      	ldr	r3, [r7, #56]	; 0x38
 80033fc:	2b00      	cmp	r3, #0
 80033fe:	d103      	bne.n	8003408 <HAL_SPI_TransmitReceive+0x2d4>
      {
        errorcode = HAL_TIMEOUT;
 8003400:	2303      	movs	r3, #3
 8003402:	f887 302b 	strb.w	r3, [r7, #43]	; 0x2b
        goto error;
 8003406:	e029      	b.n	800345c <HAL_SPI_TransmitReceive+0x328>
    while ((hspi->TxXferCount > 0U) || (hspi->RxXferCount > 0U))
 8003408:	68fb      	ldr	r3, [r7, #12]
 800340a:	8edb      	ldrh	r3, [r3, #54]	; 0x36
 800340c:	b29b      	uxth	r3, r3
 800340e:	2b00      	cmp	r3, #0
 8003410:	d1a2      	bne.n	8003358 <HAL_SPI_TransmitReceive+0x224>
 8003412:	68fb      	ldr	r3, [r7, #12]
 8003414:	8fdb      	ldrh	r3, [r3, #62]	; 0x3e
 8003416:	b29b      	uxth	r3, r3
 8003418:	2b00      	cmp	r3, #0
 800341a:	d19d      	bne.n	8003358 <HAL_SPI_TransmitReceive+0x224>
    errorcode = HAL_ERROR;
  }
#endif /* USE_SPI_CRC */

  /* Check the end of the transaction */
  if (SPI_EndRxTxTransaction(hspi, Timeout, tickstart) != HAL_OK)
 800341c:	6a7a      	ldr	r2, [r7, #36]	; 0x24
 800341e:	6bb9      	ldr	r1, [r7, #56]	; 0x38
 8003420:	68f8      	ldr	r0, [r7, #12]
 8003422:	f000 f917 	bl	8003654 <SPI_EndRxTxTransaction>
 8003426:	4603      	mov	r3, r0
 8003428:	2b00      	cmp	r3, #0
 800342a:	d006      	beq.n	800343a <HAL_SPI_TransmitReceive+0x306>
  {
    errorcode = HAL_ERROR;
 800342c:	2301      	movs	r3, #1
 800342e:	f887 302b 	strb.w	r3, [r7, #43]	; 0x2b
    hspi->ErrorCode = HAL_SPI_ERROR_FLAG;
 8003432:	68fb      	ldr	r3, [r7, #12]
 8003434:	2220      	movs	r2, #32
 8003436:	655a      	str	r2, [r3, #84]	; 0x54
    goto error;
 8003438:	e010      	b.n	800345c <HAL_SPI_TransmitReceive+0x328>
  }

  /* Clear overrun flag in 2 Lines communication mode because received is not read */
  if (hspi->Init.Direction == SPI_DIRECTION_2LINES)
 800343a:	68fb      	ldr	r3, [r7, #12]
 800343c:	689b      	ldr	r3, [r3, #8]
 800343e:	2b00      	cmp	r3, #0
 8003440:	d10b      	bne.n	800345a <HAL_SPI_TransmitReceive+0x326>
  {
    __HAL_SPI_CLEAR_OVRFLAG(hspi);
 8003442:	2300      	movs	r3, #0
 8003444:	617b      	str	r3, [r7, #20]
 8003446:	68fb      	ldr	r3, [r7, #12]
 8003448:	681b      	ldr	r3, [r3, #0]
 800344a:	68db      	ldr	r3, [r3, #12]
 800344c:	617b      	str	r3, [r7, #20]
 800344e:	68fb      	ldr	r3, [r7, #12]
 8003450:	681b      	ldr	r3, [r3, #0]
 8003452:	689b      	ldr	r3, [r3, #8]
 8003454:	617b      	str	r3, [r7, #20]
 8003456:	697b      	ldr	r3, [r7, #20]
 8003458:	e000      	b.n	800345c <HAL_SPI_TransmitReceive+0x328>
  }

error :
 800345a:	bf00      	nop
  hspi->State = HAL_SPI_STATE_READY;
 800345c:	68fb      	ldr	r3, [r7, #12]
 800345e:	2201      	movs	r2, #1
 8003460:	f883 2051 	strb.w	r2, [r3, #81]	; 0x51
  __HAL_UNLOCK(hspi);
 8003464:	68fb      	ldr	r3, [r7, #12]
 8003466:	2200      	movs	r2, #0
 8003468:	f883 2050 	strb.w	r2, [r3, #80]	; 0x50
  return errorcode;
 800346c:	f897 302b 	ldrb.w	r3, [r7, #43]	; 0x2b
}
 8003470:	4618      	mov	r0, r3
 8003472:	3730      	adds	r7, #48	; 0x30
 8003474:	46bd      	mov	sp, r7
 8003476:	bd80      	pop	{r7, pc}

08003478 <SPI_WaitFlagStateUntilTimeout>:
  * @param  Tickstart tick start value
  * @retval HAL status
  */
static HAL_StatusTypeDef SPI_WaitFlagStateUntilTimeout(SPI_HandleTypeDef *hspi, uint32_t Flag, FlagStatus State,
                                                       uint32_t Timeout, uint32_t Tickstart)
{
 8003478:	b580      	push	{r7, lr}
 800347a:	b088      	sub	sp, #32
 800347c:	af00      	add	r7, sp, #0
 800347e:	60f8      	str	r0, [r7, #12]
 8003480:	60b9      	str	r1, [r7, #8]
 8003482:	603b      	str	r3, [r7, #0]
 8003484:	4613      	mov	r3, r2
 8003486:	71fb      	strb	r3, [r7, #7]
  __IO uint32_t count;
  uint32_t tmp_timeout;
  uint32_t tmp_tickstart;

  /* Adjust Timeout value  in case of end of transfer */
  tmp_timeout   = Timeout - (HAL_GetTick() - Tickstart);
 8003488:	f7fe fc2e 	bl	8001ce8 <HAL_GetTick>
 800348c:	4602      	mov	r2, r0
 800348e:	6abb      	ldr	r3, [r7, #40]	; 0x28
 8003490:	1a9b      	subs	r3, r3, r2
 8003492:	683a      	ldr	r2, [r7, #0]
 8003494:	4413      	add	r3, r2
 8003496:	61fb      	str	r3, [r7, #28]
  tmp_tickstart = HAL_GetTick();
 8003498:	f7fe fc26 	bl	8001ce8 <HAL_GetTick>
 800349c:	61b8      	str	r0, [r7, #24]

  /* Calculate Timeout based on a software loop to avoid blocking issue if Systick is disabled */
  count = tmp_timeout * ((SystemCoreClock * 32U) >> 20U);
 800349e:	4b39      	ldr	r3, [pc, #228]	; (8003584 <SPI_WaitFlagStateUntilTimeout+0x10c>)
 80034a0:	681b      	ldr	r3, [r3, #0]
 80034a2:	015b      	lsls	r3, r3, #5
 80034a4:	0d1b      	lsrs	r3, r3, #20
 80034a6:	69fa      	ldr	r2, [r7, #28]
 80034a8:	fb02 f303 	mul.w	r3, r2, r3
 80034ac:	617b      	str	r3, [r7, #20]

  while ((__HAL_SPI_GET_FLAG(hspi, Flag) ? SET : RESET) != State)
 80034ae:	e054      	b.n	800355a <SPI_WaitFlagStateUntilTimeout+0xe2>
  {
    if (Timeout != HAL_MAX_DELAY)
 80034b0:	683b      	ldr	r3, [r7, #0]
 80034b2:	f1b3 3fff 	cmp.w	r3, #4294967295
 80034b6:	d050      	beq.n	800355a <SPI_WaitFlagStateUntilTimeout+0xe2>
    {
      if (((HAL_GetTick() - tmp_tickstart) >= tmp_timeout) || (tmp_timeout == 0U))
 80034b8:	f7fe fc16 	bl	8001ce8 <HAL_GetTick>
 80034bc:	4602      	mov	r2, r0
 80034be:	69bb      	ldr	r3, [r7, #24]
 80034c0:	1ad3      	subs	r3, r2, r3
 80034c2:	69fa      	ldr	r2, [r7, #28]
 80034c4:	429a      	cmp	r2, r3
 80034c6:	d902      	bls.n	80034ce <SPI_WaitFlagStateUntilTimeout+0x56>
 80034c8:	69fb      	ldr	r3, [r7, #28]
 80034ca:	2b00      	cmp	r3, #0
 80034cc:	d13d      	bne.n	800354a <SPI_WaitFlagStateUntilTimeout+0xd2>
        /* Disable the SPI and reset the CRC: the CRC value should be cleared
           on both master and slave sides in order to resynchronize the master
           and slave for their respective CRC calculation */

        /* Disable TXE, RXNE and ERR interrupts for the interrupt process */
        __HAL_SPI_DISABLE_IT(hspi, (SPI_IT_TXE | SPI_IT_RXNE | SPI_IT_ERR));
 80034ce:	68fb      	ldr	r3, [r7, #12]
 80034d0:	681b      	ldr	r3, [r3, #0]
 80034d2:	685a      	ldr	r2, [r3, #4]
 80034d4:	68fb      	ldr	r3, [r7, #12]
 80034d6:	681b      	ldr	r3, [r3, #0]
 80034d8:	f022 02e0 	bic.w	r2, r2, #224	; 0xe0
 80034dc:	605a      	str	r2, [r3, #4]

        if ((hspi->Init.Mode == SPI_MODE_MASTER) && ((hspi->Init.Direction == SPI_DIRECTION_1LINE)
 80034de:	68fb      	ldr	r3, [r7, #12]
 80034e0:	685b      	ldr	r3, [r3, #4]
 80034e2:	f5b3 7f82 	cmp.w	r3, #260	; 0x104
 80034e6:	d111      	bne.n	800350c <SPI_WaitFlagStateUntilTimeout+0x94>
 80034e8:	68fb      	ldr	r3, [r7, #12]
 80034ea:	689b      	ldr	r3, [r3, #8]
 80034ec:	f5b3 4f00 	cmp.w	r3, #32768	; 0x8000
 80034f0:	d004      	beq.n	80034fc <SPI_WaitFlagStateUntilTimeout+0x84>
                                                     || (hspi->Init.Direction == SPI_DIRECTION_2LINES_RXONLY)))
 80034f2:	68fb      	ldr	r3, [r7, #12]
 80034f4:	689b      	ldr	r3, [r3, #8]
 80034f6:	f5b3 6f80 	cmp.w	r3, #1024	; 0x400
 80034fa:	d107      	bne.n	800350c <SPI_WaitFlagStateUntilTimeout+0x94>
        {
          /* Disable SPI peripheral */
          __HAL_SPI_DISABLE(hspi);
 80034fc:	68fb      	ldr	r3, [r7, #12]
 80034fe:	681b      	ldr	r3, [r3, #0]
 8003500:	681a      	ldr	r2, [r3, #0]
 8003502:	68fb      	ldr	r3, [r7, #12]
 8003504:	681b      	ldr	r3, [r3, #0]
 8003506:	f022 0240 	bic.w	r2, r2, #64	; 0x40
 800350a:	601a      	str	r2, [r3, #0]
        }

        /* Reset CRC Calculation */
        if (hspi->Init.CRCCalculation == SPI_CRCCALCULATION_ENABLE)
 800350c:	68fb      	ldr	r3, [r7, #12]
 800350e:	6a9b      	ldr	r3, [r3, #40]	; 0x28
 8003510:	f5b3 5f00 	cmp.w	r3, #8192	; 0x2000
 8003514:	d10f      	bne.n	8003536 <SPI_WaitFlagStateUntilTimeout+0xbe>
        {
          SPI_RESET_CRC(hspi);
 8003516:	68fb      	ldr	r3, [r7, #12]
 8003518:	681b      	ldr	r3, [r3, #0]
 800351a:	681a      	ldr	r2, [r3, #0]
 800351c:	68fb      	ldr	r3, [r7, #12]
 800351e:	681b      	ldr	r3, [r3, #0]
 8003520:	f422 5200 	bic.w	r2, r2, #8192	; 0x2000
 8003524:	601a      	str	r2, [r3, #0]
 8003526:	68fb      	ldr	r3, [r7, #12]
 8003528:	681b      	ldr	r3, [r3, #0]
 800352a:	681a      	ldr	r2, [r3, #0]
 800352c:	68fb      	ldr	r3, [r7, #12]
 800352e:	681b      	ldr	r3, [r3, #0]
 8003530:	f442 5200 	orr.w	r2, r2, #8192	; 0x2000
 8003534:	601a      	str	r2, [r3, #0]
        }

        hspi->State = HAL_SPI_STATE_READY;
 8003536:	68fb      	ldr	r3, [r7, #12]
 8003538:	2201      	movs	r2, #1
 800353a:	f883 2051 	strb.w	r2, [r3, #81]	; 0x51

        /* Process Unlocked */
        __HAL_UNLOCK(hspi);
 800353e:	68fb      	ldr	r3, [r7, #12]
 8003540:	2200      	movs	r2, #0
 8003542:	f883 2050 	strb.w	r2, [r3, #80]	; 0x50

        return HAL_TIMEOUT;
 8003546:	2303      	movs	r3, #3
 8003548:	e017      	b.n	800357a <SPI_WaitFlagStateUntilTimeout+0x102>
      }
      /* If Systick is disabled or not incremented, deactivate timeout to go in disable loop procedure */
      if(count == 0U)
 800354a:	697b      	ldr	r3, [r7, #20]
 800354c:	2b00      	cmp	r3, #0
 800354e:	d101      	bne.n	8003554 <SPI_WaitFlagStateUntilTimeout+0xdc>
      {
        tmp_timeout = 0U;
 8003550:	2300      	movs	r3, #0
 8003552:	61fb      	str	r3, [r7, #28]
      }
      count--;
 8003554:	697b      	ldr	r3, [r7, #20]
 8003556:	3b01      	subs	r3, #1
 8003558:	617b      	str	r3, [r7, #20]
  while ((__HAL_SPI_GET_FLAG(hspi, Flag) ? SET : RESET) != State)
 800355a:	68fb      	ldr	r3, [r7, #12]
 800355c:	681b      	ldr	r3, [r3, #0]
 800355e:	689a      	ldr	r2, [r3, #8]
 8003560:	68bb      	ldr	r3, [r7, #8]
 8003562:	4013      	ands	r3, r2
 8003564:	68ba      	ldr	r2, [r7, #8]
 8003566:	429a      	cmp	r2, r3
 8003568:	bf0c      	ite	eq
 800356a:	2301      	moveq	r3, #1
 800356c:	2300      	movne	r3, #0
 800356e:	b2db      	uxtb	r3, r3
 8003570:	461a      	mov	r2, r3
 8003572:	79fb      	ldrb	r3, [r7, #7]
 8003574:	429a      	cmp	r2, r3
 8003576:	d19b      	bne.n	80034b0 <SPI_WaitFlagStateUntilTimeout+0x38>
    }
  }

  return HAL_OK;
 8003578:	2300      	movs	r3, #0
}
 800357a:	4618      	mov	r0, r3
 800357c:	3720      	adds	r7, #32
 800357e:	46bd      	mov	sp, r7
 8003580:	bd80      	pop	{r7, pc}
 8003582:	bf00      	nop
 8003584:	20000000 	.word	0x20000000

08003588 <SPI_EndRxTransaction>:
  * @param  Timeout Timeout duration
  * @param  Tickstart tick start value
  * @retval HAL status
  */
static HAL_StatusTypeDef SPI_EndRxTransaction(SPI_HandleTypeDef *hspi,  uint32_t Timeout, uint32_t Tickstart)
{
 8003588:	b580      	push	{r7, lr}
 800358a:	b086      	sub	sp, #24
 800358c:	af02      	add	r7, sp, #8
 800358e:	60f8      	str	r0, [r7, #12]
 8003590:	60b9      	str	r1, [r7, #8]
 8003592:	607a      	str	r2, [r7, #4]
  if ((hspi->Init.Mode == SPI_MODE_MASTER) && ((hspi->Init.Direction == SPI_DIRECTION_1LINE)
 8003594:	68fb      	ldr	r3, [r7, #12]
 8003596:	685b      	ldr	r3, [r3, #4]
 8003598:	f5b3 7f82 	cmp.w	r3, #260	; 0x104
 800359c:	d111      	bne.n	80035c2 <SPI_EndRxTransaction+0x3a>
 800359e:	68fb      	ldr	r3, [r7, #12]
 80035a0:	689b      	ldr	r3, [r3, #8]
 80035a2:	f5b3 4f00 	cmp.w	r3, #32768	; 0x8000
 80035a6:	d004      	beq.n	80035b2 <SPI_EndRxTransaction+0x2a>
                                               || (hspi->Init.Direction == SPI_DIRECTION_2LINES_RXONLY)))
 80035a8:	68fb      	ldr	r3, [r7, #12]
 80035aa:	689b      	ldr	r3, [r3, #8]
 80035ac:	f5b3 6f80 	cmp.w	r3, #1024	; 0x400
 80035b0:	d107      	bne.n	80035c2 <SPI_EndRxTransaction+0x3a>
  {
    /* Disable SPI peripheral */
    __HAL_SPI_DISABLE(hspi);
 80035b2:	68fb      	ldr	r3, [r7, #12]
 80035b4:	681b      	ldr	r3, [r3, #0]
 80035b6:	681a      	ldr	r2, [r3, #0]
 80035b8:	68fb      	ldr	r3, [r7, #12]
 80035ba:	681b      	ldr	r3, [r3, #0]
 80035bc:	f022 0240 	bic.w	r2, r2, #64	; 0x40
 80035c0:	601a      	str	r2, [r3, #0]
  }

  /* Erratasheet: BSY bit may stay high at the end of a data transfer in Slave mode */
  if (hspi->Init.Mode == SPI_MODE_MASTER)
 80035c2:	68fb      	ldr	r3, [r7, #12]
 80035c4:	685b      	ldr	r3, [r3, #4]
 80035c6:	f5b3 7f82 	cmp.w	r3, #260	; 0x104
 80035ca:	d12a      	bne.n	8003622 <SPI_EndRxTransaction+0x9a>
  {
    if (hspi->Init.Direction != SPI_DIRECTION_2LINES_RXONLY)
 80035cc:	68fb      	ldr	r3, [r7, #12]
 80035ce:	689b      	ldr	r3, [r3, #8]
 80035d0:	f5b3 6f80 	cmp.w	r3, #1024	; 0x400
 80035d4:	d012      	beq.n	80035fc <SPI_EndRxTransaction+0x74>
    {
      /* Control the BSY flag */
      if (SPI_WaitFlagStateUntilTimeout(hspi, SPI_FLAG_BSY, RESET, Timeout, Tickstart) != HAL_OK)
 80035d6:	687b      	ldr	r3, [r7, #4]
 80035d8:	9300      	str	r3, [sp, #0]
 80035da:	68bb      	ldr	r3, [r7, #8]
 80035dc:	2200      	movs	r2, #0
 80035de:	2180      	movs	r1, #128	; 0x80
 80035e0:	68f8      	ldr	r0, [r7, #12]
 80035e2:	f7ff ff49 	bl	8003478 <SPI_WaitFlagStateUntilTimeout>
 80035e6:	4603      	mov	r3, r0
 80035e8:	2b00      	cmp	r3, #0
 80035ea:	d02d      	beq.n	8003648 <SPI_EndRxTransaction+0xc0>
      {
        SET_BIT(hspi->ErrorCode, HAL_SPI_ERROR_FLAG);
 80035ec:	68fb      	ldr	r3, [r7, #12]
 80035ee:	6d5b      	ldr	r3, [r3, #84]	; 0x54
 80035f0:	f043 0220 	orr.w	r2, r3, #32
 80035f4:	68fb      	ldr	r3, [r7, #12]
 80035f6:	655a      	str	r2, [r3, #84]	; 0x54
        return HAL_TIMEOUT;
 80035f8:	2303      	movs	r3, #3
 80035fa:	e026      	b.n	800364a <SPI_EndRxTransaction+0xc2>
      }
    }
    else
    {
      /* Wait the RXNE reset */
      if (SPI_WaitFlagStateUntilTimeout(hspi, SPI_FLAG_RXNE, RESET, Timeout, Tickstart) != HAL_OK)
 80035fc:	687b      	ldr	r3, [r7, #4]
 80035fe:	9300      	str	r3, [sp, #0]
 8003600:	68bb      	ldr	r3, [r7, #8]
 8003602:	2200      	movs	r2, #0
 8003604:	2101      	movs	r1, #1
 8003606:	68f8      	ldr	r0, [r7, #12]
 8003608:	f7ff ff36 	bl	8003478 <SPI_WaitFlagStateUntilTimeout>
 800360c:	4603      	mov	r3, r0
 800360e:	2b00      	cmp	r3, #0
 8003610:	d01a      	beq.n	8003648 <SPI_EndRxTransaction+0xc0>
      {
        SET_BIT(hspi->ErrorCode, HAL_SPI_ERROR_FLAG);
 8003612:	68fb      	ldr	r3, [r7, #12]
 8003614:	6d5b      	ldr	r3, [r3, #84]	; 0x54
 8003616:	f043 0220 	orr.w	r2, r3, #32
 800361a:	68fb      	ldr	r3, [r7, #12]
 800361c:	655a      	str	r2, [r3, #84]	; 0x54
        return HAL_TIMEOUT;
 800361e:	2303      	movs	r3, #3
 8003620:	e013      	b.n	800364a <SPI_EndRxTransaction+0xc2>
    }
  }
  else
  {
    /* Wait the RXNE reset */
    if (SPI_WaitFlagStateUntilTimeout(hspi, SPI_FLAG_RXNE, RESET, Timeout, Tickstart) != HAL_OK)
 8003622:	687b      	ldr	r3, [r7, #4]
 8003624:	9300      	str	r3, [sp, #0]
 8003626:	68bb      	ldr	r3, [r7, #8]
 8003628:	2200      	movs	r2, #0
 800362a:	2101      	movs	r1, #1
 800362c:	68f8      	ldr	r0, [r7, #12]
 800362e:	f7ff ff23 	bl	8003478 <SPI_WaitFlagStateUntilTimeout>
 8003632:	4603      	mov	r3, r0
 8003634:	2b00      	cmp	r3, #0
 8003636:	d007      	beq.n	8003648 <SPI_EndRxTransaction+0xc0>
    {
      SET_BIT(hspi->ErrorCode, HAL_SPI_ERROR_FLAG);
 8003638:	68fb      	ldr	r3, [r7, #12]
 800363a:	6d5b      	ldr	r3, [r3, #84]	; 0x54
 800363c:	f043 0220 	orr.w	r2, r3, #32
 8003640:	68fb      	ldr	r3, [r7, #12]
 8003642:	655a      	str	r2, [r3, #84]	; 0x54
      return HAL_TIMEOUT;
 8003644:	2303      	movs	r3, #3
 8003646:	e000      	b.n	800364a <SPI_EndRxTransaction+0xc2>
    }
  }
  return HAL_OK;
 8003648:	2300      	movs	r3, #0
}
 800364a:	4618      	mov	r0, r3
 800364c:	3710      	adds	r7, #16
 800364e:	46bd      	mov	sp, r7
 8003650:	bd80      	pop	{r7, pc}
	...

08003654 <SPI_EndRxTxTransaction>:
  * @param  Timeout Timeout duration
  * @param  Tickstart tick start value
  * @retval HAL status
  */
static HAL_StatusTypeDef SPI_EndRxTxTransaction(SPI_HandleTypeDef *hspi, uint32_t Timeout, uint32_t Tickstart)
{
 8003654:	b580      	push	{r7, lr}
 8003656:	b088      	sub	sp, #32
 8003658:	af02      	add	r7, sp, #8
 800365a:	60f8      	str	r0, [r7, #12]
 800365c:	60b9      	str	r1, [r7, #8]
 800365e:	607a      	str	r2, [r7, #4]
  /* Timeout in s */
  __IO uint32_t count = SPI_BSY_FLAG_WORKAROUND_TIMEOUT * (SystemCoreClock / 24U / 1000000U);
 8003660:	4b1b      	ldr	r3, [pc, #108]	; (80036d0 <SPI_EndRxTxTransaction+0x7c>)
 8003662:	681b      	ldr	r3, [r3, #0]
 8003664:	4a1b      	ldr	r2, [pc, #108]	; (80036d4 <SPI_EndRxTxTransaction+0x80>)
 8003666:	fba2 2303 	umull	r2, r3, r2, r3
 800366a:	0d5b      	lsrs	r3, r3, #21
 800366c:	f44f 727a 	mov.w	r2, #1000	; 0x3e8
 8003670:	fb02 f303 	mul.w	r3, r2, r3
 8003674:	617b      	str	r3, [r7, #20]
  /* Erratasheet: BSY bit may stay high at the end of a data transfer in Slave mode */
  if (hspi->Init.Mode == SPI_MODE_MASTER)
 8003676:	68fb      	ldr	r3, [r7, #12]
 8003678:	685b      	ldr	r3, [r3, #4]
 800367a:	f5b3 7f82 	cmp.w	r3, #260	; 0x104
 800367e:	d112      	bne.n	80036a6 <SPI_EndRxTxTransaction+0x52>
  {
    /* Control the BSY flag */
    if (SPI_WaitFlagStateUntilTimeout(hspi, SPI_FLAG_BSY, RESET, Timeout, Tickstart) != HAL_OK)
 8003680:	687b      	ldr	r3, [r7, #4]
 8003682:	9300      	str	r3, [sp, #0]
 8003684:	68bb      	ldr	r3, [r7, #8]
 8003686:	2200      	movs	r2, #0
 8003688:	2180      	movs	r1, #128	; 0x80
 800368a:	68f8      	ldr	r0, [r7, #12]
 800368c:	f7ff fef4 	bl	8003478 <SPI_WaitFlagStateUntilTimeout>
 8003690:	4603      	mov	r3, r0
 8003692:	2b00      	cmp	r3, #0
 8003694:	d016      	beq.n	80036c4 <SPI_EndRxTxTransaction+0x70>
    {
      SET_BIT(hspi->ErrorCode, HAL_SPI_ERROR_FLAG);
 8003696:	68fb      	ldr	r3, [r7, #12]
 8003698:	6d5b      	ldr	r3, [r3, #84]	; 0x54
 800369a:	f043 0220 	orr.w	r2, r3, #32
 800369e:	68fb      	ldr	r3, [r7, #12]
 80036a0:	655a      	str	r2, [r3, #84]	; 0x54
      return HAL_TIMEOUT;
 80036a2:	2303      	movs	r3, #3
 80036a4:	e00f      	b.n	80036c6 <SPI_EndRxTxTransaction+0x72>
    * User have to calculate the timeout value to fit with the time of 1 byte transfer.
    * This time is directly link with the SPI clock from Master device.
    */
    do
    {
      if (count == 0U)
 80036a6:	697b      	ldr	r3, [r7, #20]
 80036a8:	2b00      	cmp	r3, #0
 80036aa:	d00a      	beq.n	80036c2 <SPI_EndRxTxTransaction+0x6e>
      {
        break;
      }
      count--;
 80036ac:	697b      	ldr	r3, [r7, #20]
 80036ae:	3b01      	subs	r3, #1
 80036b0:	617b      	str	r3, [r7, #20]
    } while (__HAL_SPI_GET_FLAG(hspi, SPI_FLAG_BSY) != RESET);
 80036b2:	68fb      	ldr	r3, [r7, #12]
 80036b4:	681b      	ldr	r3, [r3, #0]
 80036b6:	689b      	ldr	r3, [r3, #8]
 80036b8:	f003 0380 	and.w	r3, r3, #128	; 0x80
 80036bc:	2b80      	cmp	r3, #128	; 0x80
 80036be:	d0f2      	beq.n	80036a6 <SPI_EndRxTxTransaction+0x52>
 80036c0:	e000      	b.n	80036c4 <SPI_EndRxTxTransaction+0x70>
        break;
 80036c2:	bf00      	nop
  }

  return HAL_OK;
 80036c4:	2300      	movs	r3, #0
}
 80036c6:	4618      	mov	r0, r3
 80036c8:	3718      	adds	r7, #24
 80036ca:	46bd      	mov	sp, r7
 80036cc:	bd80      	pop	{r7, pc}
 80036ce:	bf00      	nop
 80036d0:	20000000 	.word	0x20000000
 80036d4:	165e9f81 	.word	0x165e9f81

080036d8 <HAL_TIM_Base_Init>:
  *         Ex: call @ref HAL_TIM_Base_DeInit() before HAL_TIM_Base_Init()
  * @param  htim TIM Base handle
  * @retval HAL status
  */
HAL_StatusTypeDef HAL_TIM_Base_Init(TIM_HandleTypeDef *htim)
{
 80036d8:	b580      	push	{r7, lr}
 80036da:	b082      	sub	sp, #8
 80036dc:	af00      	add	r7, sp, #0
 80036de:	6078      	str	r0, [r7, #4]
  /* Check the TIM handle allocation */
  if (htim == NULL)
 80036e0:	687b      	ldr	r3, [r7, #4]
 80036e2:	2b00      	cmp	r3, #0
 80036e4:	d101      	bne.n	80036ea <HAL_TIM_Base_Init+0x12>
  {
    return HAL_ERROR;
 80036e6:	2301      	movs	r3, #1
 80036e8:	e041      	b.n	800376e <HAL_TIM_Base_Init+0x96>
  assert_param(IS_TIM_INSTANCE(htim->Instance));
  assert_param(IS_TIM_COUNTER_MODE(htim->Init.CounterMode));
  assert_param(IS_TIM_CLOCKDIVISION_DIV(htim->Init.ClockDivision));
  assert_param(IS_TIM_AUTORELOAD_PRELOAD(htim->Init.AutoReloadPreload));

  if (htim->State == HAL_TIM_STATE_RESET)
 80036ea:	687b      	ldr	r3, [r7, #4]
 80036ec:	f893 303d 	ldrb.w	r3, [r3, #61]	; 0x3d
 80036f0:	b2db      	uxtb	r3, r3
 80036f2:	2b00      	cmp	r3, #0
 80036f4:	d106      	bne.n	8003704 <HAL_TIM_Base_Init+0x2c>
  {
    /* Allocate lock resource and initialize it */
    htim->Lock = HAL_UNLOCKED;
 80036f6:	687b      	ldr	r3, [r7, #4]
 80036f8:	2200      	movs	r2, #0
 80036fa:	f883 203c 	strb.w	r2, [r3, #60]	; 0x3c
    }
    /* Init the low level hardware : GPIO, CLOCK, NVIC */
    htim->Base_MspInitCallback(htim);
#else
    /* Init the low level hardware : GPIO, CLOCK, NVIC */
    HAL_TIM_Base_MspInit(htim);
 80036fe:	6878      	ldr	r0, [r7, #4]
 8003700:	f7fe f830 	bl	8001764 <HAL_TIM_Base_MspInit>
#endif /* USE_HAL_TIM_REGISTER_CALLBACKS */
  }

  /* Set the TIM state */
  htim->State = HAL_TIM_STATE_BUSY;
 8003704:	687b      	ldr	r3, [r7, #4]
 8003706:	2202      	movs	r2, #2
 8003708:	f883 203d 	strb.w	r2, [r3, #61]	; 0x3d

  /* Set the Time Base configuration */
  TIM_Base_SetConfig(htim->Instance, &htim->Init);
 800370c:	687b      	ldr	r3, [r7, #4]
 800370e:	681a      	ldr	r2, [r3, #0]
 8003710:	687b      	ldr	r3, [r7, #4]
 8003712:	3304      	adds	r3, #4
 8003714:	4619      	mov	r1, r3
 8003716:	4610      	mov	r0, r2
 8003718:	f000 fcb8 	bl	800408c <TIM_Base_SetConfig>

  /* Initialize the DMA burst operation state */
  htim->DMABurstState = HAL_DMA_BURST_STATE_READY;
 800371c:	687b      	ldr	r3, [r7, #4]
 800371e:	2201      	movs	r2, #1
 8003720:	f883 2046 	strb.w	r2, [r3, #70]	; 0x46

  /* Initialize the TIM channels state */
  TIM_CHANNEL_STATE_SET_ALL(htim, HAL_TIM_CHANNEL_STATE_READY);
 8003724:	687b      	ldr	r3, [r7, #4]
 8003726:	2201      	movs	r2, #1
 8003728:	f883 203e 	strb.w	r2, [r3, #62]	; 0x3e
 800372c:	687b      	ldr	r3, [r7, #4]
 800372e:	2201      	movs	r2, #1
 8003730:	f883 203f 	strb.w	r2, [r3, #63]	; 0x3f
 8003734:	687b      	ldr	r3, [r7, #4]
 8003736:	2201      	movs	r2, #1
 8003738:	f883 2040 	strb.w	r2, [r3, #64]	; 0x40
 800373c:	687b      	ldr	r3, [r7, #4]
 800373e:	2201      	movs	r2, #1
 8003740:	f883 2041 	strb.w	r2, [r3, #65]	; 0x41
  TIM_CHANNEL_N_STATE_SET_ALL(htim, HAL_TIM_CHANNEL_STATE_READY);
 8003744:	687b      	ldr	r3, [r7, #4]
 8003746:	2201      	movs	r2, #1
 8003748:	f883 2042 	strb.w	r2, [r3, #66]	; 0x42
 800374c:	687b      	ldr	r3, [r7, #4]
 800374e:	2201      	movs	r2, #1
 8003750:	f883 2043 	strb.w	r2, [r3, #67]	; 0x43
 8003754:	687b      	ldr	r3, [r7, #4]
 8003756:	2201      	movs	r2, #1
 8003758:	f883 2044 	strb.w	r2, [r3, #68]	; 0x44
 800375c:	687b      	ldr	r3, [r7, #4]
 800375e:	2201      	movs	r2, #1
 8003760:	f883 2045 	strb.w	r2, [r3, #69]	; 0x45

  /* Initialize the TIM state*/
  htim->State = HAL_TIM_STATE_READY;
 8003764:	687b      	ldr	r3, [r7, #4]
 8003766:	2201      	movs	r2, #1
 8003768:	f883 203d 	strb.w	r2, [r3, #61]	; 0x3d

  return HAL_OK;
 800376c:	2300      	movs	r3, #0
}
 800376e:	4618      	mov	r0, r3
 8003770:	3708      	adds	r7, #8
 8003772:	46bd      	mov	sp, r7
 8003774:	bd80      	pop	{r7, pc}
	...

08003778 <HAL_TIM_Base_Start_IT>:
  * @brief  Starts the TIM Base generation in interrupt mode.
  * @param  htim TIM Base handle
  * @retval HAL status
  */
HAL_StatusTypeDef HAL_TIM_Base_Start_IT(TIM_HandleTypeDef *htim)
{
 8003778:	b480      	push	{r7}
 800377a:	b085      	sub	sp, #20
 800377c:	af00      	add	r7, sp, #0
 800377e:	6078      	str	r0, [r7, #4]

  /* Check the parameters */
  assert_param(IS_TIM_INSTANCE(htim->Instance));

  /* Check the TIM state */
  if (htim->State != HAL_TIM_STATE_READY)
 8003780:	687b      	ldr	r3, [r7, #4]
 8003782:	f893 303d 	ldrb.w	r3, [r3, #61]	; 0x3d
 8003786:	b2db      	uxtb	r3, r3
 8003788:	2b01      	cmp	r3, #1
 800378a:	d001      	beq.n	8003790 <HAL_TIM_Base_Start_IT+0x18>
  {
    return HAL_ERROR;
 800378c:	2301      	movs	r3, #1
 800378e:	e044      	b.n	800381a <HAL_TIM_Base_Start_IT+0xa2>
  }

  /* Set the TIM state */
  htim->State = HAL_TIM_STATE_BUSY;
 8003790:	687b      	ldr	r3, [r7, #4]
 8003792:	2202      	movs	r2, #2
 8003794:	f883 203d 	strb.w	r2, [r3, #61]	; 0x3d

  /* Enable the TIM Update interrupt */
  __HAL_TIM_ENABLE_IT(htim, TIM_IT_UPDATE);
 8003798:	687b      	ldr	r3, [r7, #4]
 800379a:	681b      	ldr	r3, [r3, #0]
 800379c:	68da      	ldr	r2, [r3, #12]
 800379e:	687b      	ldr	r3, [r7, #4]
 80037a0:	681b      	ldr	r3, [r3, #0]
 80037a2:	f042 0201 	orr.w	r2, r2, #1
 80037a6:	60da      	str	r2, [r3, #12]

  /* Enable the Peripheral, except in trigger mode where enable is automatically done with trigger */
  if (IS_TIM_SLAVE_INSTANCE(htim->Instance))
 80037a8:	687b      	ldr	r3, [r7, #4]
 80037aa:	681b      	ldr	r3, [r3, #0]
 80037ac:	4a1e      	ldr	r2, [pc, #120]	; (8003828 <HAL_TIM_Base_Start_IT+0xb0>)
 80037ae:	4293      	cmp	r3, r2
 80037b0:	d018      	beq.n	80037e4 <HAL_TIM_Base_Start_IT+0x6c>
 80037b2:	687b      	ldr	r3, [r7, #4]
 80037b4:	681b      	ldr	r3, [r3, #0]
 80037b6:	f1b3 4f80 	cmp.w	r3, #1073741824	; 0x40000000
 80037ba:	d013      	beq.n	80037e4 <HAL_TIM_Base_Start_IT+0x6c>
 80037bc:	687b      	ldr	r3, [r7, #4]
 80037be:	681b      	ldr	r3, [r3, #0]
 80037c0:	4a1a      	ldr	r2, [pc, #104]	; (800382c <HAL_TIM_Base_Start_IT+0xb4>)
 80037c2:	4293      	cmp	r3, r2
 80037c4:	d00e      	beq.n	80037e4 <HAL_TIM_Base_Start_IT+0x6c>
 80037c6:	687b      	ldr	r3, [r7, #4]
 80037c8:	681b      	ldr	r3, [r3, #0]
 80037ca:	4a19      	ldr	r2, [pc, #100]	; (8003830 <HAL_TIM_Base_Start_IT+0xb8>)
 80037cc:	4293      	cmp	r3, r2
 80037ce:	d009      	beq.n	80037e4 <HAL_TIM_Base_Start_IT+0x6c>
 80037d0:	687b      	ldr	r3, [r7, #4]
 80037d2:	681b      	ldr	r3, [r3, #0]
 80037d4:	4a17      	ldr	r2, [pc, #92]	; (8003834 <HAL_TIM_Base_Start_IT+0xbc>)
 80037d6:	4293      	cmp	r3, r2
 80037d8:	d004      	beq.n	80037e4 <HAL_TIM_Base_Start_IT+0x6c>
 80037da:	687b      	ldr	r3, [r7, #4]
 80037dc:	681b      	ldr	r3, [r3, #0]
 80037de:	4a16      	ldr	r2, [pc, #88]	; (8003838 <HAL_TIM_Base_Start_IT+0xc0>)
 80037e0:	4293      	cmp	r3, r2
 80037e2:	d111      	bne.n	8003808 <HAL_TIM_Base_Start_IT+0x90>
  {
    tmpsmcr = htim->Instance->SMCR & TIM_SMCR_SMS;
 80037e4:	687b      	ldr	r3, [r7, #4]
 80037e6:	681b      	ldr	r3, [r3, #0]
 80037e8:	689b      	ldr	r3, [r3, #8]
 80037ea:	f003 0307 	and.w	r3, r3, #7
 80037ee:	60fb      	str	r3, [r7, #12]
    if (!IS_TIM_SLAVEMODE_TRIGGER_ENABLED(tmpsmcr))
 80037f0:	68fb      	ldr	r3, [r7, #12]
 80037f2:	2b06      	cmp	r3, #6
 80037f4:	d010      	beq.n	8003818 <HAL_TIM_Base_Start_IT+0xa0>
    {
      __HAL_TIM_ENABLE(htim);
 80037f6:	687b      	ldr	r3, [r7, #4]
 80037f8:	681b      	ldr	r3, [r3, #0]
 80037fa:	681a      	ldr	r2, [r3, #0]
 80037fc:	687b      	ldr	r3, [r7, #4]
 80037fe:	681b      	ldr	r3, [r3, #0]
 8003800:	f042 0201 	orr.w	r2, r2, #1
 8003804:	601a      	str	r2, [r3, #0]
    if (!IS_TIM_SLAVEMODE_TRIGGER_ENABLED(tmpsmcr))
 8003806:	e007      	b.n	8003818 <HAL_TIM_Base_Start_IT+0xa0>
    }
  }
  else
  {
    __HAL_TIM_ENABLE(htim);
 8003808:	687b      	ldr	r3, [r7, #4]
 800380a:	681b      	ldr	r3, [r3, #0]
 800380c:	681a      	ldr	r2, [r3, #0]
 800380e:	687b      	ldr	r3, [r7, #4]
 8003810:	681b      	ldr	r3, [r3, #0]
 8003812:	f042 0201 	orr.w	r2, r2, #1
 8003816:	601a      	str	r2, [r3, #0]
  }

  /* Return function status */
  return HAL_OK;
 8003818:	2300      	movs	r3, #0
}
 800381a:	4618      	mov	r0, r3
 800381c:	3714      	adds	r7, #20
 800381e:	46bd      	mov	sp, r7
 8003820:	f85d 7b04 	ldr.w	r7, [sp], #4
 8003824:	4770      	bx	lr
 8003826:	bf00      	nop
 8003828:	40010000 	.word	0x40010000
 800382c:	40000400 	.word	0x40000400
 8003830:	40000800 	.word	0x40000800
 8003834:	40000c00 	.word	0x40000c00
 8003838:	40014000 	.word	0x40014000

0800383c <HAL_TIM_PWM_Init>:
  *         Ex: call @ref HAL_TIM_PWM_DeInit() before HAL_TIM_PWM_Init()
  * @param  htim TIM PWM handle
  * @retval HAL status
  */
HAL_StatusTypeDef HAL_TIM_PWM_Init(TIM_HandleTypeDef *htim)
{
 800383c:	b580      	push	{r7, lr}
 800383e:	b082      	sub	sp, #8
 8003840:	af00      	add	r7, sp, #0
 8003842:	6078      	str	r0, [r7, #4]
  /* Check the TIM handle allocation */
  if (htim == NULL)
 8003844:	687b      	ldr	r3, [r7, #4]
 8003846:	2b00      	cmp	r3, #0
 8003848:	d101      	bne.n	800384e <HAL_TIM_PWM_Init+0x12>
  {
    return HAL_ERROR;
 800384a:	2301      	movs	r3, #1
 800384c:	e041      	b.n	80038d2 <HAL_TIM_PWM_Init+0x96>
  assert_param(IS_TIM_INSTANCE(htim->Instance));
  assert_param(IS_TIM_COUNTER_MODE(htim->Init.CounterMode));
  assert_param(IS_TIM_CLOCKDIVISION_DIV(htim->Init.ClockDivision));
  assert_param(IS_TIM_AUTORELOAD_PRELOAD(htim->Init.AutoReloadPreload));

  if (htim->State == HAL_TIM_STATE_RESET)
 800384e:	687b      	ldr	r3, [r7, #4]
 8003850:	f893 303d 	ldrb.w	r3, [r3, #61]	; 0x3d
 8003854:	b2db      	uxtb	r3, r3
 8003856:	2b00      	cmp	r3, #0
 8003858:	d106      	bne.n	8003868 <HAL_TIM_PWM_Init+0x2c>
  {
    /* Allocate lock resource and initialize it */
    htim->Lock = HAL_UNLOCKED;
 800385a:	687b      	ldr	r3, [r7, #4]
 800385c:	2200      	movs	r2, #0
 800385e:	f883 203c 	strb.w	r2, [r3, #60]	; 0x3c
    }
    /* Init the low level hardware : GPIO, CLOCK, NVIC */
    htim->PWM_MspInitCallback(htim);
#else
    /* Init the low level hardware : GPIO, CLOCK, NVIC and DMA */
    HAL_TIM_PWM_MspInit(htim);
 8003862:	6878      	ldr	r0, [r7, #4]
 8003864:	f7fd ffbc 	bl	80017e0 <HAL_TIM_PWM_MspInit>
#endif /* USE_HAL_TIM_REGISTER_CALLBACKS */
  }

  /* Set the TIM state */
  htim->State = HAL_TIM_STATE_BUSY;
 8003868:	687b      	ldr	r3, [r7, #4]
 800386a:	2202      	movs	r2, #2
 800386c:	f883 203d 	strb.w	r2, [r3, #61]	; 0x3d

  /* Init the base time for the PWM */
  TIM_Base_SetConfig(htim->Instance, &htim->Init);
 8003870:	687b      	ldr	r3, [r7, #4]
 8003872:	681a      	ldr	r2, [r3, #0]
 8003874:	687b      	ldr	r3, [r7, #4]
 8003876:	3304      	adds	r3, #4
 8003878:	4619      	mov	r1, r3
 800387a:	4610      	mov	r0, r2
 800387c:	f000 fc06 	bl	800408c <TIM_Base_SetConfig>

  /* Initialize the DMA burst operation state */
  htim->DMABurstState = HAL_DMA_BURST_STATE_READY;
 8003880:	687b      	ldr	r3, [r7, #4]
 8003882:	2201      	movs	r2, #1
 8003884:	f883 2046 	strb.w	r2, [r3, #70]	; 0x46

  /* Initialize the TIM channels state */
  TIM_CHANNEL_STATE_SET_ALL(htim, HAL_TIM_CHANNEL_STATE_READY);
 8003888:	687b      	ldr	r3, [r7, #4]
 800388a:	2201      	movs	r2, #1
 800388c:	f883 203e 	strb.w	r2, [r3, #62]	; 0x3e
 8003890:	687b      	ldr	r3, [r7, #4]
 8003892:	2201      	movs	r2, #1
 8003894:	f883 203f 	strb.w	r2, [r3, #63]	; 0x3f
 8003898:	687b      	ldr	r3, [r7, #4]
 800389a:	2201      	movs	r2, #1
 800389c:	f883 2040 	strb.w	r2, [r3, #64]	; 0x40
 80038a0:	687b      	ldr	r3, [r7, #4]
 80038a2:	2201      	movs	r2, #1
 80038a4:	f883 2041 	strb.w	r2, [r3, #65]	; 0x41
  TIM_CHANNEL_N_STATE_SET_ALL(htim, HAL_TIM_CHANNEL_STATE_READY);
 80038a8:	687b      	ldr	r3, [r7, #4]
 80038aa:	2201      	movs	r2, #1
 80038ac:	f883 2042 	strb.w	r2, [r3, #66]	; 0x42
 80038b0:	687b      	ldr	r3, [r7, #4]
 80038b2:	2201      	movs	r2, #1
 80038b4:	f883 2043 	strb.w	r2, [r3, #67]	; 0x43
 80038b8:	687b      	ldr	r3, [r7, #4]
 80038ba:	2201      	movs	r2, #1
 80038bc:	f883 2044 	strb.w	r2, [r3, #68]	; 0x44
 80038c0:	687b      	ldr	r3, [r7, #4]
 80038c2:	2201      	movs	r2, #1
 80038c4:	f883 2045 	strb.w	r2, [r3, #69]	; 0x45

  /* Initialize the TIM state*/
  htim->State = HAL_TIM_STATE_READY;
 80038c8:	687b      	ldr	r3, [r7, #4]
 80038ca:	2201      	movs	r2, #1
 80038cc:	f883 203d 	strb.w	r2, [r3, #61]	; 0x3d

  return HAL_OK;
 80038d0:	2300      	movs	r3, #0
}
 80038d2:	4618      	mov	r0, r3
 80038d4:	3708      	adds	r7, #8
 80038d6:	46bd      	mov	sp, r7
 80038d8:	bd80      	pop	{r7, pc}
	...

080038dc <HAL_TIM_PWM_Start>:
  *            @arg TIM_CHANNEL_3: TIM Channel 3 selected
  *            @arg TIM_CHANNEL_4: TIM Channel 4 selected
  * @retval HAL status
  */
HAL_StatusTypeDef HAL_TIM_PWM_Start(TIM_HandleTypeDef *htim, uint32_t Channel)
{
 80038dc:	b580      	push	{r7, lr}
 80038de:	b084      	sub	sp, #16
 80038e0:	af00      	add	r7, sp, #0
 80038e2:	6078      	str	r0, [r7, #4]
 80038e4:	6039      	str	r1, [r7, #0]

  /* Check the parameters */
  assert_param(IS_TIM_CCX_INSTANCE(htim->Instance, Channel));

  /* Check the TIM channel state */
  if (TIM_CHANNEL_STATE_GET(htim, Channel) != HAL_TIM_CHANNEL_STATE_READY)
 80038e6:	683b      	ldr	r3, [r7, #0]
 80038e8:	2b00      	cmp	r3, #0
 80038ea:	d109      	bne.n	8003900 <HAL_TIM_PWM_Start+0x24>
 80038ec:	687b      	ldr	r3, [r7, #4]
 80038ee:	f893 303e 	ldrb.w	r3, [r3, #62]	; 0x3e
 80038f2:	b2db      	uxtb	r3, r3
 80038f4:	2b01      	cmp	r3, #1
 80038f6:	bf14      	ite	ne
 80038f8:	2301      	movne	r3, #1
 80038fa:	2300      	moveq	r3, #0
 80038fc:	b2db      	uxtb	r3, r3
 80038fe:	e022      	b.n	8003946 <HAL_TIM_PWM_Start+0x6a>
 8003900:	683b      	ldr	r3, [r7, #0]
 8003902:	2b04      	cmp	r3, #4
 8003904:	d109      	bne.n	800391a <HAL_TIM_PWM_Start+0x3e>
 8003906:	687b      	ldr	r3, [r7, #4]
 8003908:	f893 303f 	ldrb.w	r3, [r3, #63]	; 0x3f
 800390c:	b2db      	uxtb	r3, r3
 800390e:	2b01      	cmp	r3, #1
 8003910:	bf14      	ite	ne
 8003912:	2301      	movne	r3, #1
 8003914:	2300      	moveq	r3, #0
 8003916:	b2db      	uxtb	r3, r3
 8003918:	e015      	b.n	8003946 <HAL_TIM_PWM_Start+0x6a>
 800391a:	683b      	ldr	r3, [r7, #0]
 800391c:	2b08      	cmp	r3, #8
 800391e:	d109      	bne.n	8003934 <HAL_TIM_PWM_Start+0x58>
 8003920:	687b      	ldr	r3, [r7, #4]
 8003922:	f893 3040 	ldrb.w	r3, [r3, #64]	; 0x40
 8003926:	b2db      	uxtb	r3, r3
 8003928:	2b01      	cmp	r3, #1
 800392a:	bf14      	ite	ne
 800392c:	2301      	movne	r3, #1
 800392e:	2300      	moveq	r3, #0
 8003930:	b2db      	uxtb	r3, r3
 8003932:	e008      	b.n	8003946 <HAL_TIM_PWM_Start+0x6a>
 8003934:	687b      	ldr	r3, [r7, #4]
 8003936:	f893 3041 	ldrb.w	r3, [r3, #65]	; 0x41
 800393a:	b2db      	uxtb	r3, r3
 800393c:	2b01      	cmp	r3, #1
 800393e:	bf14      	ite	ne
 8003940:	2301      	movne	r3, #1
 8003942:	2300      	moveq	r3, #0
 8003944:	b2db      	uxtb	r3, r3
 8003946:	2b00      	cmp	r3, #0
 8003948:	d001      	beq.n	800394e <HAL_TIM_PWM_Start+0x72>
  {
    return HAL_ERROR;
 800394a:	2301      	movs	r3, #1
 800394c:	e068      	b.n	8003a20 <HAL_TIM_PWM_Start+0x144>
  }

  /* Set the TIM channel state */
  TIM_CHANNEL_STATE_SET(htim, Channel, HAL_TIM_CHANNEL_STATE_BUSY);
 800394e:	683b      	ldr	r3, [r7, #0]
 8003950:	2b00      	cmp	r3, #0
 8003952:	d104      	bne.n	800395e <HAL_TIM_PWM_Start+0x82>
 8003954:	687b      	ldr	r3, [r7, #4]
 8003956:	2202      	movs	r2, #2
 8003958:	f883 203e 	strb.w	r2, [r3, #62]	; 0x3e
 800395c:	e013      	b.n	8003986 <HAL_TIM_PWM_Start+0xaa>
 800395e:	683b      	ldr	r3, [r7, #0]
 8003960:	2b04      	cmp	r3, #4
 8003962:	d104      	bne.n	800396e <HAL_TIM_PWM_Start+0x92>
 8003964:	687b      	ldr	r3, [r7, #4]
 8003966:	2202      	movs	r2, #2
 8003968:	f883 203f 	strb.w	r2, [r3, #63]	; 0x3f
 800396c:	e00b      	b.n	8003986 <HAL_TIM_PWM_Start+0xaa>
 800396e:	683b      	ldr	r3, [r7, #0]
 8003970:	2b08      	cmp	r3, #8
 8003972:	d104      	bne.n	800397e <HAL_TIM_PWM_Start+0xa2>
 8003974:	687b      	ldr	r3, [r7, #4]
 8003976:	2202      	movs	r2, #2
 8003978:	f883 2040 	strb.w	r2, [r3, #64]	; 0x40
 800397c:	e003      	b.n	8003986 <HAL_TIM_PWM_Start+0xaa>
 800397e:	687b      	ldr	r3, [r7, #4]
 8003980:	2202      	movs	r2, #2
 8003982:	f883 2041 	strb.w	r2, [r3, #65]	; 0x41

  /* Enable the Capture compare channel */
  TIM_CCxChannelCmd(htim->Instance, Channel, TIM_CCx_ENABLE);
 8003986:	687b      	ldr	r3, [r7, #4]
 8003988:	681b      	ldr	r3, [r3, #0]
 800398a:	2201      	movs	r2, #1
 800398c:	6839      	ldr	r1, [r7, #0]
 800398e:	4618      	mov	r0, r3
 8003990:	f000 fe22 	bl	80045d8 <TIM_CCxChannelCmd>

  if (IS_TIM_BREAK_INSTANCE(htim->Instance) != RESET)
 8003994:	687b      	ldr	r3, [r7, #4]
 8003996:	681b      	ldr	r3, [r3, #0]
 8003998:	4a23      	ldr	r2, [pc, #140]	; (8003a28 <HAL_TIM_PWM_Start+0x14c>)
 800399a:	4293      	cmp	r3, r2
 800399c:	d107      	bne.n	80039ae <HAL_TIM_PWM_Start+0xd2>
  {
    /* Enable the main output */
    __HAL_TIM_MOE_ENABLE(htim);
 800399e:	687b      	ldr	r3, [r7, #4]
 80039a0:	681b      	ldr	r3, [r3, #0]
 80039a2:	6c5a      	ldr	r2, [r3, #68]	; 0x44
 80039a4:	687b      	ldr	r3, [r7, #4]
 80039a6:	681b      	ldr	r3, [r3, #0]
 80039a8:	f442 4200 	orr.w	r2, r2, #32768	; 0x8000
 80039ac:	645a      	str	r2, [r3, #68]	; 0x44
  }

  /* Enable the Peripheral, except in trigger mode where enable is automatically done with trigger */
  if (IS_TIM_SLAVE_INSTANCE(htim->Instance))
 80039ae:	687b      	ldr	r3, [r7, #4]
 80039b0:	681b      	ldr	r3, [r3, #0]
 80039b2:	4a1d      	ldr	r2, [pc, #116]	; (8003a28 <HAL_TIM_PWM_Start+0x14c>)
 80039b4:	4293      	cmp	r3, r2
 80039b6:	d018      	beq.n	80039ea <HAL_TIM_PWM_Start+0x10e>
 80039b8:	687b      	ldr	r3, [r7, #4]
 80039ba:	681b      	ldr	r3, [r3, #0]
 80039bc:	f1b3 4f80 	cmp.w	r3, #1073741824	; 0x40000000
 80039c0:	d013      	beq.n	80039ea <HAL_TIM_PWM_Start+0x10e>
 80039c2:	687b      	ldr	r3, [r7, #4]
 80039c4:	681b      	ldr	r3, [r3, #0]
 80039c6:	4a19      	ldr	r2, [pc, #100]	; (8003a2c <HAL_TIM_PWM_Start+0x150>)
 80039c8:	4293      	cmp	r3, r2
 80039ca:	d00e      	beq.n	80039ea <HAL_TIM_PWM_Start+0x10e>
 80039cc:	687b      	ldr	r3, [r7, #4]
 80039ce:	681b      	ldr	r3, [r3, #0]
 80039d0:	4a17      	ldr	r2, [pc, #92]	; (8003a30 <HAL_TIM_PWM_Start+0x154>)
 80039d2:	4293      	cmp	r3, r2
 80039d4:	d009      	beq.n	80039ea <HAL_TIM_PWM_Start+0x10e>
 80039d6:	687b      	ldr	r3, [r7, #4]
 80039d8:	681b      	ldr	r3, [r3, #0]
 80039da:	4a16      	ldr	r2, [pc, #88]	; (8003a34 <HAL_TIM_PWM_Start+0x158>)
 80039dc:	4293      	cmp	r3, r2
 80039de:	d004      	beq.n	80039ea <HAL_TIM_PWM_Start+0x10e>
 80039e0:	687b      	ldr	r3, [r7, #4]
 80039e2:	681b      	ldr	r3, [r3, #0]
 80039e4:	4a14      	ldr	r2, [pc, #80]	; (8003a38 <HAL_TIM_PWM_Start+0x15c>)
 80039e6:	4293      	cmp	r3, r2
 80039e8:	d111      	bne.n	8003a0e <HAL_TIM_PWM_Start+0x132>
  {
    tmpsmcr = htim->Instance->SMCR & TIM_SMCR_SMS;
 80039ea:	687b      	ldr	r3, [r7, #4]
 80039ec:	681b      	ldr	r3, [r3, #0]
 80039ee:	689b      	ldr	r3, [r3, #8]
 80039f0:	f003 0307 	and.w	r3, r3, #7
 80039f4:	60fb      	str	r3, [r7, #12]
    if (!IS_TIM_SLAVEMODE_TRIGGER_ENABLED(tmpsmcr))
 80039f6:	68fb      	ldr	r3, [r7, #12]
 80039f8:	2b06      	cmp	r3, #6
 80039fa:	d010      	beq.n	8003a1e <HAL_TIM_PWM_Start+0x142>
    {
      __HAL_TIM_ENABLE(htim);
 80039fc:	687b      	ldr	r3, [r7, #4]
 80039fe:	681b      	ldr	r3, [r3, #0]
 8003a00:	681a      	ldr	r2, [r3, #0]
 8003a02:	687b      	ldr	r3, [r7, #4]
 8003a04:	681b      	ldr	r3, [r3, #0]
 8003a06:	f042 0201 	orr.w	r2, r2, #1
 8003a0a:	601a      	str	r2, [r3, #0]
    if (!IS_TIM_SLAVEMODE_TRIGGER_ENABLED(tmpsmcr))
 8003a0c:	e007      	b.n	8003a1e <HAL_TIM_PWM_Start+0x142>
    }
  }
  else
  {
    __HAL_TIM_ENABLE(htim);
 8003a0e:	687b      	ldr	r3, [r7, #4]
 8003a10:	681b      	ldr	r3, [r3, #0]
 8003a12:	681a      	ldr	r2, [r3, #0]
 8003a14:	687b      	ldr	r3, [r7, #4]
 8003a16:	681b      	ldr	r3, [r3, #0]
 8003a18:	f042 0201 	orr.w	r2, r2, #1
 8003a1c:	601a      	str	r2, [r3, #0]
  }

  /* Return function status */
  return HAL_OK;
 8003a1e:	2300      	movs	r3, #0
}
 8003a20:	4618      	mov	r0, r3
 8003a22:	3710      	adds	r7, #16
 8003a24:	46bd      	mov	sp, r7
 8003a26:	bd80      	pop	{r7, pc}
 8003a28:	40010000 	.word	0x40010000
 8003a2c:	40000400 	.word	0x40000400
 8003a30:	40000800 	.word	0x40000800
 8003a34:	40000c00 	.word	0x40000c00
 8003a38:	40014000 	.word	0x40014000

08003a3c <HAL_TIM_PWM_Stop>:
  *            @arg TIM_CHANNEL_3: TIM Channel 3 selected
  *            @arg TIM_CHANNEL_4: TIM Channel 4 selected
  * @retval HAL status
  */
HAL_StatusTypeDef HAL_TIM_PWM_Stop(TIM_HandleTypeDef *htim, uint32_t Channel)
{
 8003a3c:	b580      	push	{r7, lr}
 8003a3e:	b082      	sub	sp, #8
 8003a40:	af00      	add	r7, sp, #0
 8003a42:	6078      	str	r0, [r7, #4]
 8003a44:	6039      	str	r1, [r7, #0]
  /* Check the parameters */
  assert_param(IS_TIM_CCX_INSTANCE(htim->Instance, Channel));

  /* Disable the Capture compare channel */
  TIM_CCxChannelCmd(htim->Instance, Channel, TIM_CCx_DISABLE);
 8003a46:	687b      	ldr	r3, [r7, #4]
 8003a48:	681b      	ldr	r3, [r3, #0]
 8003a4a:	2200      	movs	r2, #0
 8003a4c:	6839      	ldr	r1, [r7, #0]
 8003a4e:	4618      	mov	r0, r3
 8003a50:	f000 fdc2 	bl	80045d8 <TIM_CCxChannelCmd>

  if (IS_TIM_BREAK_INSTANCE(htim->Instance) != RESET)
 8003a54:	687b      	ldr	r3, [r7, #4]
 8003a56:	681b      	ldr	r3, [r3, #0]
 8003a58:	4a29      	ldr	r2, [pc, #164]	; (8003b00 <HAL_TIM_PWM_Stop+0xc4>)
 8003a5a:	4293      	cmp	r3, r2
 8003a5c:	d117      	bne.n	8003a8e <HAL_TIM_PWM_Stop+0x52>
  {
    /* Disable the Main Output */
    __HAL_TIM_MOE_DISABLE(htim);
 8003a5e:	687b      	ldr	r3, [r7, #4]
 8003a60:	681b      	ldr	r3, [r3, #0]
 8003a62:	6a1a      	ldr	r2, [r3, #32]
 8003a64:	f241 1311 	movw	r3, #4369	; 0x1111
 8003a68:	4013      	ands	r3, r2
 8003a6a:	2b00      	cmp	r3, #0
 8003a6c:	d10f      	bne.n	8003a8e <HAL_TIM_PWM_Stop+0x52>
 8003a6e:	687b      	ldr	r3, [r7, #4]
 8003a70:	681b      	ldr	r3, [r3, #0]
 8003a72:	6a1a      	ldr	r2, [r3, #32]
 8003a74:	f240 4344 	movw	r3, #1092	; 0x444
 8003a78:	4013      	ands	r3, r2
 8003a7a:	2b00      	cmp	r3, #0
 8003a7c:	d107      	bne.n	8003a8e <HAL_TIM_PWM_Stop+0x52>
 8003a7e:	687b      	ldr	r3, [r7, #4]
 8003a80:	681b      	ldr	r3, [r3, #0]
 8003a82:	6c5a      	ldr	r2, [r3, #68]	; 0x44
 8003a84:	687b      	ldr	r3, [r7, #4]
 8003a86:	681b      	ldr	r3, [r3, #0]
 8003a88:	f422 4200 	bic.w	r2, r2, #32768	; 0x8000
 8003a8c:	645a      	str	r2, [r3, #68]	; 0x44
  }

  /* Disable the Peripheral */
  __HAL_TIM_DISABLE(htim);
 8003a8e:	687b      	ldr	r3, [r7, #4]
 8003a90:	681b      	ldr	r3, [r3, #0]
 8003a92:	6a1a      	ldr	r2, [r3, #32]
 8003a94:	f241 1311 	movw	r3, #4369	; 0x1111
 8003a98:	4013      	ands	r3, r2
 8003a9a:	2b00      	cmp	r3, #0
 8003a9c:	d10f      	bne.n	8003abe <HAL_TIM_PWM_Stop+0x82>
 8003a9e:	687b      	ldr	r3, [r7, #4]
 8003aa0:	681b      	ldr	r3, [r3, #0]
 8003aa2:	6a1a      	ldr	r2, [r3, #32]
 8003aa4:	f240 4344 	movw	r3, #1092	; 0x444
 8003aa8:	4013      	ands	r3, r2
 8003aaa:	2b00      	cmp	r3, #0
 8003aac:	d107      	bne.n	8003abe <HAL_TIM_PWM_Stop+0x82>
 8003aae:	687b      	ldr	r3, [r7, #4]
 8003ab0:	681b      	ldr	r3, [r3, #0]
 8003ab2:	681a      	ldr	r2, [r3, #0]
 8003ab4:	687b      	ldr	r3, [r7, #4]
 8003ab6:	681b      	ldr	r3, [r3, #0]
 8003ab8:	f022 0201 	bic.w	r2, r2, #1
 8003abc:	601a      	str	r2, [r3, #0]

  /* Set the TIM channel state */
  TIM_CHANNEL_STATE_SET(htim, Channel, HAL_TIM_CHANNEL_STATE_READY);
 8003abe:	683b      	ldr	r3, [r7, #0]
 8003ac0:	2b00      	cmp	r3, #0
 8003ac2:	d104      	bne.n	8003ace <HAL_TIM_PWM_Stop+0x92>
 8003ac4:	687b      	ldr	r3, [r7, #4]
 8003ac6:	2201      	movs	r2, #1
 8003ac8:	f883 203e 	strb.w	r2, [r3, #62]	; 0x3e
 8003acc:	e013      	b.n	8003af6 <HAL_TIM_PWM_Stop+0xba>
 8003ace:	683b      	ldr	r3, [r7, #0]
 8003ad0:	2b04      	cmp	r3, #4
 8003ad2:	d104      	bne.n	8003ade <HAL_TIM_PWM_Stop+0xa2>
 8003ad4:	687b      	ldr	r3, [r7, #4]
 8003ad6:	2201      	movs	r2, #1
 8003ad8:	f883 203f 	strb.w	r2, [r3, #63]	; 0x3f
 8003adc:	e00b      	b.n	8003af6 <HAL_TIM_PWM_Stop+0xba>
 8003ade:	683b      	ldr	r3, [r7, #0]
 8003ae0:	2b08      	cmp	r3, #8
 8003ae2:	d104      	bne.n	8003aee <HAL_TIM_PWM_Stop+0xb2>
 8003ae4:	687b      	ldr	r3, [r7, #4]
 8003ae6:	2201      	movs	r2, #1
 8003ae8:	f883 2040 	strb.w	r2, [r3, #64]	; 0x40
 8003aec:	e003      	b.n	8003af6 <HAL_TIM_PWM_Stop+0xba>
 8003aee:	687b      	ldr	r3, [r7, #4]
 8003af0:	2201      	movs	r2, #1
 8003af2:	f883 2041 	strb.w	r2, [r3, #65]	; 0x41

  /* Return function status */
  return HAL_OK;
 8003af6:	2300      	movs	r3, #0
}
 8003af8:	4618      	mov	r0, r3
 8003afa:	3708      	adds	r7, #8
 8003afc:	46bd      	mov	sp, r7
 8003afe:	bd80      	pop	{r7, pc}
 8003b00:	40010000 	.word	0x40010000

08003b04 <HAL_TIM_IRQHandler>:
  * @brief  This function handles TIM interrupts requests.
  * @param  htim TIM  handle
  * @retval None
  */
void HAL_TIM_IRQHandler(TIM_HandleTypeDef *htim)
{
 8003b04:	b580      	push	{r7, lr}
 8003b06:	b082      	sub	sp, #8
 8003b08:	af00      	add	r7, sp, #0
 8003b0a:	6078      	str	r0, [r7, #4]
  /* Capture compare 1 event */
  if (__HAL_TIM_GET_FLAG(htim, TIM_FLAG_CC1) != RESET)
 8003b0c:	687b      	ldr	r3, [r7, #4]
 8003b0e:	681b      	ldr	r3, [r3, #0]
 8003b10:	691b      	ldr	r3, [r3, #16]
 8003b12:	f003 0302 	and.w	r3, r3, #2
 8003b16:	2b02      	cmp	r3, #2
 8003b18:	d122      	bne.n	8003b60 <HAL_TIM_IRQHandler+0x5c>
  {
    if (__HAL_TIM_GET_IT_SOURCE(htim, TIM_IT_CC1) != RESET)
 8003b1a:	687b      	ldr	r3, [r7, #4]
 8003b1c:	681b      	ldr	r3, [r3, #0]
 8003b1e:	68db      	ldr	r3, [r3, #12]
 8003b20:	f003 0302 	and.w	r3, r3, #2
 8003b24:	2b02      	cmp	r3, #2
 8003b26:	d11b      	bne.n	8003b60 <HAL_TIM_IRQHandler+0x5c>
    {
      {
        __HAL_TIM_CLEAR_IT(htim, TIM_IT_CC1);
 8003b28:	687b      	ldr	r3, [r7, #4]
 8003b2a:	681b      	ldr	r3, [r3, #0]
 8003b2c:	f06f 0202 	mvn.w	r2, #2
 8003b30:	611a      	str	r2, [r3, #16]
        htim->Channel = HAL_TIM_ACTIVE_CHANNEL_1;
 8003b32:	687b      	ldr	r3, [r7, #4]
 8003b34:	2201      	movs	r2, #1
 8003b36:	771a      	strb	r2, [r3, #28]

        /* Input capture event */
        if ((htim->Instance->CCMR1 & TIM_CCMR1_CC1S) != 0x00U)
 8003b38:	687b      	ldr	r3, [r7, #4]
 8003b3a:	681b      	ldr	r3, [r3, #0]
 8003b3c:	699b      	ldr	r3, [r3, #24]
 8003b3e:	f003 0303 	and.w	r3, r3, #3
 8003b42:	2b00      	cmp	r3, #0
 8003b44:	d003      	beq.n	8003b4e <HAL_TIM_IRQHandler+0x4a>
        {
#if (USE_HAL_TIM_REGISTER_CALLBACKS == 1)
          htim->IC_CaptureCallback(htim);
#else
          HAL_TIM_IC_CaptureCallback(htim);
 8003b46:	6878      	ldr	r0, [r7, #4]
 8003b48:	f000 fa81 	bl	800404e <HAL_TIM_IC_CaptureCallback>
 8003b4c:	e005      	b.n	8003b5a <HAL_TIM_IRQHandler+0x56>
        {
#if (USE_HAL_TIM_REGISTER_CALLBACKS == 1)
          htim->OC_DelayElapsedCallback(htim);
          htim->PWM_PulseFinishedCallback(htim);
#else
          HAL_TIM_OC_DelayElapsedCallback(htim);
 8003b4e:	6878      	ldr	r0, [r7, #4]
 8003b50:	f000 fa73 	bl	800403a <HAL_TIM_OC_DelayElapsedCallback>
          HAL_TIM_PWM_PulseFinishedCallback(htim);
 8003b54:	6878      	ldr	r0, [r7, #4]
 8003b56:	f000 fa84 	bl	8004062 <HAL_TIM_PWM_PulseFinishedCallback>
#endif /* USE_HAL_TIM_REGISTER_CALLBACKS */
        }
        htim->Channel = HAL_TIM_ACTIVE_CHANNEL_CLEARED;
 8003b5a:	687b      	ldr	r3, [r7, #4]
 8003b5c:	2200      	movs	r2, #0
 8003b5e:	771a      	strb	r2, [r3, #28]
      }
    }
  }
  /* Capture compare 2 event */
  if (__HAL_TIM_GET_FLAG(htim, TIM_FLAG_CC2) != RESET)
 8003b60:	687b      	ldr	r3, [r7, #4]
 8003b62:	681b      	ldr	r3, [r3, #0]
 8003b64:	691b      	ldr	r3, [r3, #16]
 8003b66:	f003 0304 	and.w	r3, r3, #4
 8003b6a:	2b04      	cmp	r3, #4
 8003b6c:	d122      	bne.n	8003bb4 <HAL_TIM_IRQHandler+0xb0>
  {
    if (__HAL_TIM_GET_IT_SOURCE(htim, TIM_IT_CC2) != RESET)
 8003b6e:	687b      	ldr	r3, [r7, #4]
 8003b70:	681b      	ldr	r3, [r3, #0]
 8003b72:	68db      	ldr	r3, [r3, #12]
 8003b74:	f003 0304 	and.w	r3, r3, #4
 8003b78:	2b04      	cmp	r3, #4
 8003b7a:	d11b      	bne.n	8003bb4 <HAL_TIM_IRQHandler+0xb0>
    {
      __HAL_TIM_CLEAR_IT(htim, TIM_IT_CC2);
 8003b7c:	687b      	ldr	r3, [r7, #4]
 8003b7e:	681b      	ldr	r3, [r3, #0]
 8003b80:	f06f 0204 	mvn.w	r2, #4
 8003b84:	611a      	str	r2, [r3, #16]
      htim->Channel = HAL_TIM_ACTIVE_CHANNEL_2;
 8003b86:	687b      	ldr	r3, [r7, #4]
 8003b88:	2202      	movs	r2, #2
 8003b8a:	771a      	strb	r2, [r3, #28]
      /* Input capture event */
      if ((htim->Instance->CCMR1 & TIM_CCMR1_CC2S) != 0x00U)
 8003b8c:	687b      	ldr	r3, [r7, #4]
 8003b8e:	681b      	ldr	r3, [r3, #0]
 8003b90:	699b      	ldr	r3, [r3, #24]
 8003b92:	f403 7340 	and.w	r3, r3, #768	; 0x300
 8003b96:	2b00      	cmp	r3, #0
 8003b98:	d003      	beq.n	8003ba2 <HAL_TIM_IRQHandler+0x9e>
      {
#if (USE_HAL_TIM_REGISTER_CALLBACKS == 1)
        htim->IC_CaptureCallback(htim);
#else
        HAL_TIM_IC_CaptureCallback(htim);
 8003b9a:	6878      	ldr	r0, [r7, #4]
 8003b9c:	f000 fa57 	bl	800404e <HAL_TIM_IC_CaptureCallback>
 8003ba0:	e005      	b.n	8003bae <HAL_TIM_IRQHandler+0xaa>
      {
#if (USE_HAL_TIM_REGISTER_CALLBACKS == 1)
        htim->OC_DelayElapsedCallback(htim);
        htim->PWM_PulseFinishedCallback(htim);
#else
        HAL_TIM_OC_DelayElapsedCallback(htim);
 8003ba2:	6878      	ldr	r0, [r7, #4]
 8003ba4:	f000 fa49 	bl	800403a <HAL_TIM_OC_DelayElapsedCallback>
        HAL_TIM_PWM_PulseFinishedCallback(htim);
 8003ba8:	6878      	ldr	r0, [r7, #4]
 8003baa:	f000 fa5a 	bl	8004062 <HAL_TIM_PWM_PulseFinishedCallback>
#endif /* USE_HAL_TIM_REGISTER_CALLBACKS */
      }
      htim->Channel = HAL_TIM_ACTIVE_CHANNEL_CLEARED;
 8003bae:	687b      	ldr	r3, [r7, #4]
 8003bb0:	2200      	movs	r2, #0
 8003bb2:	771a      	strb	r2, [r3, #28]
    }
  }
  /* Capture compare 3 event */
  if (__HAL_TIM_GET_FLAG(htim, TIM_FLAG_CC3) != RESET)
 8003bb4:	687b      	ldr	r3, [r7, #4]
 8003bb6:	681b      	ldr	r3, [r3, #0]
 8003bb8:	691b      	ldr	r3, [r3, #16]
 8003bba:	f003 0308 	and.w	r3, r3, #8
 8003bbe:	2b08      	cmp	r3, #8
 8003bc0:	d122      	bne.n	8003c08 <HAL_TIM_IRQHandler+0x104>
  {
    if (__HAL_TIM_GET_IT_SOURCE(htim, TIM_IT_CC3) != RESET)
 8003bc2:	687b      	ldr	r3, [r7, #4]
 8003bc4:	681b      	ldr	r3, [r3, #0]
 8003bc6:	68db      	ldr	r3, [r3, #12]
 8003bc8:	f003 0308 	and.w	r3, r3, #8
 8003bcc:	2b08      	cmp	r3, #8
 8003bce:	d11b      	bne.n	8003c08 <HAL_TIM_IRQHandler+0x104>
    {
      __HAL_TIM_CLEAR_IT(htim, TIM_IT_CC3);
 8003bd0:	687b      	ldr	r3, [r7, #4]
 8003bd2:	681b      	ldr	r3, [r3, #0]
 8003bd4:	f06f 0208 	mvn.w	r2, #8
 8003bd8:	611a      	str	r2, [r3, #16]
      htim->Channel = HAL_TIM_ACTIVE_CHANNEL_3;
 8003bda:	687b      	ldr	r3, [r7, #4]
 8003bdc:	2204      	movs	r2, #4
 8003bde:	771a      	strb	r2, [r3, #28]
      /* Input capture event */
      if ((htim->Instance->CCMR2 & TIM_CCMR2_CC3S) != 0x00U)
 8003be0:	687b      	ldr	r3, [r7, #4]
 8003be2:	681b      	ldr	r3, [r3, #0]
 8003be4:	69db      	ldr	r3, [r3, #28]
 8003be6:	f003 0303 	and.w	r3, r3, #3
 8003bea:	2b00      	cmp	r3, #0
 8003bec:	d003      	beq.n	8003bf6 <HAL_TIM_IRQHandler+0xf2>
      {
#if (USE_HAL_TIM_REGISTER_CALLBACKS == 1)
        htim->IC_CaptureCallback(htim);
#else
        HAL_TIM_IC_CaptureCallback(htim);
 8003bee:	6878      	ldr	r0, [r7, #4]
 8003bf0:	f000 fa2d 	bl	800404e <HAL_TIM_IC_CaptureCallback>
 8003bf4:	e005      	b.n	8003c02 <HAL_TIM_IRQHandler+0xfe>
      {
#if (USE_HAL_TIM_REGISTER_CALLBACKS == 1)
        htim->OC_DelayElapsedCallback(htim);
        htim->PWM_PulseFinishedCallback(htim);
#else
        HAL_TIM_OC_DelayElapsedCallback(htim);
 8003bf6:	6878      	ldr	r0, [r7, #4]
 8003bf8:	f000 fa1f 	bl	800403a <HAL_TIM_OC_DelayElapsedCallback>
        HAL_TIM_PWM_PulseFinishedCallback(htim);
 8003bfc:	6878      	ldr	r0, [r7, #4]
 8003bfe:	f000 fa30 	bl	8004062 <HAL_TIM_PWM_PulseFinishedCallback>
#endif /* USE_HAL_TIM_REGISTER_CALLBACKS */
      }
      htim->Channel = HAL_TIM_ACTIVE_CHANNEL_CLEARED;
 8003c02:	687b      	ldr	r3, [r7, #4]
 8003c04:	2200      	movs	r2, #0
 8003c06:	771a      	strb	r2, [r3, #28]
    }
  }
  /* Capture compare 4 event */
  if (__HAL_TIM_GET_FLAG(htim, TIM_FLAG_CC4) != RESET)
 8003c08:	687b      	ldr	r3, [r7, #4]
 8003c0a:	681b      	ldr	r3, [r3, #0]
 8003c0c:	691b      	ldr	r3, [r3, #16]
 8003c0e:	f003 0310 	and.w	r3, r3, #16
 8003c12:	2b10      	cmp	r3, #16
 8003c14:	d122      	bne.n	8003c5c <HAL_TIM_IRQHandler+0x158>
  {
    if (__HAL_TIM_GET_IT_SOURCE(htim, TIM_IT_CC4) != RESET)
 8003c16:	687b      	ldr	r3, [r7, #4]
 8003c18:	681b      	ldr	r3, [r3, #0]
 8003c1a:	68db      	ldr	r3, [r3, #12]
 8003c1c:	f003 0310 	and.w	r3, r3, #16
 8003c20:	2b10      	cmp	r3, #16
 8003c22:	d11b      	bne.n	8003c5c <HAL_TIM_IRQHandler+0x158>
    {
      __HAL_TIM_CLEAR_IT(htim, TIM_IT_CC4);
 8003c24:	687b      	ldr	r3, [r7, #4]
 8003c26:	681b      	ldr	r3, [r3, #0]
 8003c28:	f06f 0210 	mvn.w	r2, #16
 8003c2c:	611a      	str	r2, [r3, #16]
      htim->Channel = HAL_TIM_ACTIVE_CHANNEL_4;
 8003c2e:	687b      	ldr	r3, [r7, #4]
 8003c30:	2208      	movs	r2, #8
 8003c32:	771a      	strb	r2, [r3, #28]
      /* Input capture event */
      if ((htim->Instance->CCMR2 & TIM_CCMR2_CC4S) != 0x00U)
 8003c34:	687b      	ldr	r3, [r7, #4]
 8003c36:	681b      	ldr	r3, [r3, #0]
 8003c38:	69db      	ldr	r3, [r3, #28]
 8003c3a:	f403 7340 	and.w	r3, r3, #768	; 0x300
 8003c3e:	2b00      	cmp	r3, #0
 8003c40:	d003      	beq.n	8003c4a <HAL_TIM_IRQHandler+0x146>
      {
#if (USE_HAL_TIM_REGISTER_CALLBACKS == 1)
        htim->IC_CaptureCallback(htim);
#else
        HAL_TIM_IC_CaptureCallback(htim);
 8003c42:	6878      	ldr	r0, [r7, #4]
 8003c44:	f000 fa03 	bl	800404e <HAL_TIM_IC_CaptureCallback>
 8003c48:	e005      	b.n	8003c56 <HAL_TIM_IRQHandler+0x152>
      {
#if (USE_HAL_TIM_REGISTER_CALLBACKS == 1)
        htim->OC_DelayElapsedCallback(htim);
        htim->PWM_PulseFinishedCallback(htim);
#else
        HAL_TIM_OC_DelayElapsedCallback(htim);
 8003c4a:	6878      	ldr	r0, [r7, #4]
 8003c4c:	f000 f9f5 	bl	800403a <HAL_TIM_OC_DelayElapsedCallback>
        HAL_TIM_PWM_PulseFinishedCallback(htim);
 8003c50:	6878      	ldr	r0, [r7, #4]
 8003c52:	f000 fa06 	bl	8004062 <HAL_TIM_PWM_PulseFinishedCallback>
#endif /* USE_HAL_TIM_REGISTER_CALLBACKS */
      }
      htim->Channel = HAL_TIM_ACTIVE_CHANNEL_CLEARED;
 8003c56:	687b      	ldr	r3, [r7, #4]
 8003c58:	2200      	movs	r2, #0
 8003c5a:	771a      	strb	r2, [r3, #28]
    }
  }
  /* TIM Update event */
  if (__HAL_TIM_GET_FLAG(htim, TIM_FLAG_UPDATE) != RESET)
 8003c5c:	687b      	ldr	r3, [r7, #4]
 8003c5e:	681b      	ldr	r3, [r3, #0]
 8003c60:	691b      	ldr	r3, [r3, #16]
 8003c62:	f003 0301 	and.w	r3, r3, #1
 8003c66:	2b01      	cmp	r3, #1
 8003c68:	d10e      	bne.n	8003c88 <HAL_TIM_IRQHandler+0x184>
  {
    if (__HAL_TIM_GET_IT_SOURCE(htim, TIM_IT_UPDATE) != RESET)
 8003c6a:	687b      	ldr	r3, [r7, #4]
 8003c6c:	681b      	ldr	r3, [r3, #0]
 8003c6e:	68db      	ldr	r3, [r3, #12]
 8003c70:	f003 0301 	and.w	r3, r3, #1
 8003c74:	2b01      	cmp	r3, #1
 8003c76:	d107      	bne.n	8003c88 <HAL_TIM_IRQHandler+0x184>
    {
      __HAL_TIM_CLEAR_IT(htim, TIM_IT_UPDATE);
 8003c78:	687b      	ldr	r3, [r7, #4]
 8003c7a:	681b      	ldr	r3, [r3, #0]
 8003c7c:	f06f 0201 	mvn.w	r2, #1
 8003c80:	611a      	str	r2, [r3, #16]
#if (USE_HAL_TIM_REGISTER_CALLBACKS == 1)
      htim->PeriodElapsedCallback(htim);
#else
      HAL_TIM_PeriodElapsedCallback(htim);
 8003c82:	6878      	ldr	r0, [r7, #4]
 8003c84:	f000 f9cf 	bl	8004026 <HAL_TIM_PeriodElapsedCallback>
#endif /* USE_HAL_TIM_REGISTER_CALLBACKS */
    }
  }
  /* TIM Break input event */
  if (__HAL_TIM_GET_FLAG(htim, TIM_FLAG_BREAK) != RESET)
 8003c88:	687b      	ldr	r3, [r7, #4]
 8003c8a:	681b      	ldr	r3, [r3, #0]
 8003c8c:	691b      	ldr	r3, [r3, #16]
 8003c8e:	f003 0380 	and.w	r3, r3, #128	; 0x80
 8003c92:	2b80      	cmp	r3, #128	; 0x80
 8003c94:	d10e      	bne.n	8003cb4 <HAL_TIM_IRQHandler+0x1b0>
  {
    if (__HAL_TIM_GET_IT_SOURCE(htim, TIM_IT_BREAK) != RESET)
 8003c96:	687b      	ldr	r3, [r7, #4]
 8003c98:	681b      	ldr	r3, [r3, #0]
 8003c9a:	68db      	ldr	r3, [r3, #12]
 8003c9c:	f003 0380 	and.w	r3, r3, #128	; 0x80
 8003ca0:	2b80      	cmp	r3, #128	; 0x80
 8003ca2:	d107      	bne.n	8003cb4 <HAL_TIM_IRQHandler+0x1b0>
    {
      __HAL_TIM_CLEAR_IT(htim, TIM_IT_BREAK);
 8003ca4:	687b      	ldr	r3, [r7, #4]
 8003ca6:	681b      	ldr	r3, [r3, #0]
 8003ca8:	f06f 0280 	mvn.w	r2, #128	; 0x80
 8003cac:	611a      	str	r2, [r3, #16]
#if (USE_HAL_TIM_REGISTER_CALLBACKS == 1)
      htim->BreakCallback(htim);
#else
      HAL_TIMEx_BreakCallback(htim);
 8003cae:	6878      	ldr	r0, [r7, #4]
 8003cb0:	f000 fd30 	bl	8004714 <HAL_TIMEx_BreakCallback>
#endif /* USE_HAL_TIM_REGISTER_CALLBACKS */
    }
  }
  /* TIM Trigger detection event */
  if (__HAL_TIM_GET_FLAG(htim, TIM_FLAG_TRIGGER) != RESET)
 8003cb4:	687b      	ldr	r3, [r7, #4]
 8003cb6:	681b      	ldr	r3, [r3, #0]
 8003cb8:	691b      	ldr	r3, [r3, #16]
 8003cba:	f003 0340 	and.w	r3, r3, #64	; 0x40
 8003cbe:	2b40      	cmp	r3, #64	; 0x40
 8003cc0:	d10e      	bne.n	8003ce0 <HAL_TIM_IRQHandler+0x1dc>
  {
    if (__HAL_TIM_GET_IT_SOURCE(htim, TIM_IT_TRIGGER) != RESET)
 8003cc2:	687b      	ldr	r3, [r7, #4]
 8003cc4:	681b      	ldr	r3, [r3, #0]
 8003cc6:	68db      	ldr	r3, [r3, #12]
 8003cc8:	f003 0340 	and.w	r3, r3, #64	; 0x40
 8003ccc:	2b40      	cmp	r3, #64	; 0x40
 8003cce:	d107      	bne.n	8003ce0 <HAL_TIM_IRQHandler+0x1dc>
    {
      __HAL_TIM_CLEAR_IT(htim, TIM_IT_TRIGGER);
 8003cd0:	687b      	ldr	r3, [r7, #4]
 8003cd2:	681b      	ldr	r3, [r3, #0]
 8003cd4:	f06f 0240 	mvn.w	r2, #64	; 0x40
 8003cd8:	611a      	str	r2, [r3, #16]
#if (USE_HAL_TIM_REGISTER_CALLBACKS == 1)
      htim->TriggerCallback(htim);
#else
      HAL_TIM_TriggerCallback(htim);
 8003cda:	6878      	ldr	r0, [r7, #4]
 8003cdc:	f000 f9cb 	bl	8004076 <HAL_TIM_TriggerCallback>
#endif /* USE_HAL_TIM_REGISTER_CALLBACKS */
    }
  }
  /* TIM commutation event */
  if (__HAL_TIM_GET_FLAG(htim, TIM_FLAG_COM) != RESET)
 8003ce0:	687b      	ldr	r3, [r7, #4]
 8003ce2:	681b      	ldr	r3, [r3, #0]
 8003ce4:	691b      	ldr	r3, [r3, #16]
 8003ce6:	f003 0320 	and.w	r3, r3, #32
 8003cea:	2b20      	cmp	r3, #32
 8003cec:	d10e      	bne.n	8003d0c <HAL_TIM_IRQHandler+0x208>
  {
    if (__HAL_TIM_GET_IT_SOURCE(htim, TIM_IT_COM) != RESET)
 8003cee:	687b      	ldr	r3, [r7, #4]
 8003cf0:	681b      	ldr	r3, [r3, #0]
 8003cf2:	68db      	ldr	r3, [r3, #12]
 8003cf4:	f003 0320 	and.w	r3, r3, #32
 8003cf8:	2b20      	cmp	r3, #32
 8003cfa:	d107      	bne.n	8003d0c <HAL_TIM_IRQHandler+0x208>
    {
      __HAL_TIM_CLEAR_IT(htim, TIM_FLAG_COM);
 8003cfc:	687b      	ldr	r3, [r7, #4]
 8003cfe:	681b      	ldr	r3, [r3, #0]
 8003d00:	f06f 0220 	mvn.w	r2, #32
 8003d04:	611a      	str	r2, [r3, #16]
#if (USE_HAL_TIM_REGISTER_CALLBACKS == 1)
      htim->CommutationCallback(htim);
#else
      HAL_TIMEx_CommutCallback(htim);
 8003d06:	6878      	ldr	r0, [r7, #4]
 8003d08:	f000 fcfa 	bl	8004700 <HAL_TIMEx_CommutCallback>
#endif /* USE_HAL_TIM_REGISTER_CALLBACKS */
    }
  }
}
 8003d0c:	bf00      	nop
 8003d0e:	3708      	adds	r7, #8
 8003d10:	46bd      	mov	sp, r7
 8003d12:	bd80      	pop	{r7, pc}

08003d14 <HAL_TIM_PWM_ConfigChannel>:
  * @retval HAL status
  */
HAL_StatusTypeDef HAL_TIM_PWM_ConfigChannel(TIM_HandleTypeDef *htim,
                                            TIM_OC_InitTypeDef *sConfig,
                                            uint32_t Channel)
{
 8003d14:	b580      	push	{r7, lr}
 8003d16:	b086      	sub	sp, #24
 8003d18:	af00      	add	r7, sp, #0
 8003d1a:	60f8      	str	r0, [r7, #12]
 8003d1c:	60b9      	str	r1, [r7, #8]
 8003d1e:	607a      	str	r2, [r7, #4]
  HAL_StatusTypeDef status = HAL_OK;
 8003d20:	2300      	movs	r3, #0
 8003d22:	75fb      	strb	r3, [r7, #23]
  assert_param(IS_TIM_PWM_MODE(sConfig->OCMode));
  assert_param(IS_TIM_OC_POLARITY(sConfig->OCPolarity));
  assert_param(IS_TIM_FAST_STATE(sConfig->OCFastMode));

  /* Process Locked */
  __HAL_LOCK(htim);
 8003d24:	68fb      	ldr	r3, [r7, #12]
 8003d26:	f893 303c 	ldrb.w	r3, [r3, #60]	; 0x3c
 8003d2a:	2b01      	cmp	r3, #1
 8003d2c:	d101      	bne.n	8003d32 <HAL_TIM_PWM_ConfigChannel+0x1e>
 8003d2e:	2302      	movs	r3, #2
 8003d30:	e0ae      	b.n	8003e90 <HAL_TIM_PWM_ConfigChannel+0x17c>
 8003d32:	68fb      	ldr	r3, [r7, #12]
 8003d34:	2201      	movs	r2, #1
 8003d36:	f883 203c 	strb.w	r2, [r3, #60]	; 0x3c

  switch (Channel)
 8003d3a:	687b      	ldr	r3, [r7, #4]
 8003d3c:	2b0c      	cmp	r3, #12
 8003d3e:	f200 809f 	bhi.w	8003e80 <HAL_TIM_PWM_ConfigChannel+0x16c>
 8003d42:	a201      	add	r2, pc, #4	; (adr r2, 8003d48 <HAL_TIM_PWM_ConfigChannel+0x34>)
 8003d44:	f852 f023 	ldr.w	pc, [r2, r3, lsl #2]
 8003d48:	08003d7d 	.word	0x08003d7d
 8003d4c:	08003e81 	.word	0x08003e81
 8003d50:	08003e81 	.word	0x08003e81
 8003d54:	08003e81 	.word	0x08003e81
 8003d58:	08003dbd 	.word	0x08003dbd
 8003d5c:	08003e81 	.word	0x08003e81
 8003d60:	08003e81 	.word	0x08003e81
 8003d64:	08003e81 	.word	0x08003e81
 8003d68:	08003dff 	.word	0x08003dff
 8003d6c:	08003e81 	.word	0x08003e81
 8003d70:	08003e81 	.word	0x08003e81
 8003d74:	08003e81 	.word	0x08003e81
 8003d78:	08003e3f 	.word	0x08003e3f
    {
      /* Check the parameters */
      assert_param(IS_TIM_CC1_INSTANCE(htim->Instance));

      /* Configure the Channel 1 in PWM mode */
      TIM_OC1_SetConfig(htim->Instance, sConfig);
 8003d7c:	68fb      	ldr	r3, [r7, #12]
 8003d7e:	681b      	ldr	r3, [r3, #0]
 8003d80:	68b9      	ldr	r1, [r7, #8]
 8003d82:	4618      	mov	r0, r3
 8003d84:	f000 fa02 	bl	800418c <TIM_OC1_SetConfig>

      /* Set the Preload enable bit for channel1 */
      htim->Instance->CCMR1 |= TIM_CCMR1_OC1PE;
 8003d88:	68fb      	ldr	r3, [r7, #12]
 8003d8a:	681b      	ldr	r3, [r3, #0]
 8003d8c:	699a      	ldr	r2, [r3, #24]
 8003d8e:	68fb      	ldr	r3, [r7, #12]
 8003d90:	681b      	ldr	r3, [r3, #0]
 8003d92:	f042 0208 	orr.w	r2, r2, #8
 8003d96:	619a      	str	r2, [r3, #24]

      /* Configure the Output Fast mode */
      htim->Instance->CCMR1 &= ~TIM_CCMR1_OC1FE;
 8003d98:	68fb      	ldr	r3, [r7, #12]
 8003d9a:	681b      	ldr	r3, [r3, #0]
 8003d9c:	699a      	ldr	r2, [r3, #24]
 8003d9e:	68fb      	ldr	r3, [r7, #12]
 8003da0:	681b      	ldr	r3, [r3, #0]
 8003da2:	f022 0204 	bic.w	r2, r2, #4
 8003da6:	619a      	str	r2, [r3, #24]
      htim->Instance->CCMR1 |= sConfig->OCFastMode;
 8003da8:	68fb      	ldr	r3, [r7, #12]
 8003daa:	681b      	ldr	r3, [r3, #0]
 8003dac:	6999      	ldr	r1, [r3, #24]
 8003dae:	68bb      	ldr	r3, [r7, #8]
 8003db0:	691a      	ldr	r2, [r3, #16]
 8003db2:	68fb      	ldr	r3, [r7, #12]
 8003db4:	681b      	ldr	r3, [r3, #0]
 8003db6:	430a      	orrs	r2, r1
 8003db8:	619a      	str	r2, [r3, #24]
      break;
 8003dba:	e064      	b.n	8003e86 <HAL_TIM_PWM_ConfigChannel+0x172>
    {
      /* Check the parameters */
      assert_param(IS_TIM_CC2_INSTANCE(htim->Instance));

      /* Configure the Channel 2 in PWM mode */
      TIM_OC2_SetConfig(htim->Instance, sConfig);
 8003dbc:	68fb      	ldr	r3, [r7, #12]
 8003dbe:	681b      	ldr	r3, [r3, #0]
 8003dc0:	68b9      	ldr	r1, [r7, #8]
 8003dc2:	4618      	mov	r0, r3
 8003dc4:	f000 fa48 	bl	8004258 <TIM_OC2_SetConfig>

      /* Set the Preload enable bit for channel2 */
      htim->Instance->CCMR1 |= TIM_CCMR1_OC2PE;
 8003dc8:	68fb      	ldr	r3, [r7, #12]
 8003dca:	681b      	ldr	r3, [r3, #0]
 8003dcc:	699a      	ldr	r2, [r3, #24]
 8003dce:	68fb      	ldr	r3, [r7, #12]
 8003dd0:	681b      	ldr	r3, [r3, #0]
 8003dd2:	f442 6200 	orr.w	r2, r2, #2048	; 0x800
 8003dd6:	619a      	str	r2, [r3, #24]

      /* Configure the Output Fast mode */
      htim->Instance->CCMR1 &= ~TIM_CCMR1_OC2FE;
 8003dd8:	68fb      	ldr	r3, [r7, #12]
 8003dda:	681b      	ldr	r3, [r3, #0]
 8003ddc:	699a      	ldr	r2, [r3, #24]
 8003dde:	68fb      	ldr	r3, [r7, #12]
 8003de0:	681b      	ldr	r3, [r3, #0]
 8003de2:	f422 6280 	bic.w	r2, r2, #1024	; 0x400
 8003de6:	619a      	str	r2, [r3, #24]
      htim->Instance->CCMR1 |= sConfig->OCFastMode << 8U;
 8003de8:	68fb      	ldr	r3, [r7, #12]
 8003dea:	681b      	ldr	r3, [r3, #0]
 8003dec:	6999      	ldr	r1, [r3, #24]
 8003dee:	68bb      	ldr	r3, [r7, #8]
 8003df0:	691b      	ldr	r3, [r3, #16]
 8003df2:	021a      	lsls	r2, r3, #8
 8003df4:	68fb      	ldr	r3, [r7, #12]
 8003df6:	681b      	ldr	r3, [r3, #0]
 8003df8:	430a      	orrs	r2, r1
 8003dfa:	619a      	str	r2, [r3, #24]
      break;
 8003dfc:	e043      	b.n	8003e86 <HAL_TIM_PWM_ConfigChannel+0x172>
    {
      /* Check the parameters */
      assert_param(IS_TIM_CC3_INSTANCE(htim->Instance));

      /* Configure the Channel 3 in PWM mode */
      TIM_OC3_SetConfig(htim->Instance, sConfig);
 8003dfe:	68fb      	ldr	r3, [r7, #12]
 8003e00:	681b      	ldr	r3, [r3, #0]
 8003e02:	68b9      	ldr	r1, [r7, #8]
 8003e04:	4618      	mov	r0, r3
 8003e06:	f000 fa93 	bl	8004330 <TIM_OC3_SetConfig>

      /* Set the Preload enable bit for channel3 */
      htim->Instance->CCMR2 |= TIM_CCMR2_OC3PE;
 8003e0a:	68fb      	ldr	r3, [r7, #12]
 8003e0c:	681b      	ldr	r3, [r3, #0]
 8003e0e:	69da      	ldr	r2, [r3, #28]
 8003e10:	68fb      	ldr	r3, [r7, #12]
 8003e12:	681b      	ldr	r3, [r3, #0]
 8003e14:	f042 0208 	orr.w	r2, r2, #8
 8003e18:	61da      	str	r2, [r3, #28]

      /* Configure the Output Fast mode */
      htim->Instance->CCMR2 &= ~TIM_CCMR2_OC3FE;
 8003e1a:	68fb      	ldr	r3, [r7, #12]
 8003e1c:	681b      	ldr	r3, [r3, #0]
 8003e1e:	69da      	ldr	r2, [r3, #28]
 8003e20:	68fb      	ldr	r3, [r7, #12]
 8003e22:	681b      	ldr	r3, [r3, #0]
 8003e24:	f022 0204 	bic.w	r2, r2, #4
 8003e28:	61da      	str	r2, [r3, #28]
      htim->Instance->CCMR2 |= sConfig->OCFastMode;
 8003e2a:	68fb      	ldr	r3, [r7, #12]
 8003e2c:	681b      	ldr	r3, [r3, #0]
 8003e2e:	69d9      	ldr	r1, [r3, #28]
 8003e30:	68bb      	ldr	r3, [r7, #8]
 8003e32:	691a      	ldr	r2, [r3, #16]
 8003e34:	68fb      	ldr	r3, [r7, #12]
 8003e36:	681b      	ldr	r3, [r3, #0]
 8003e38:	430a      	orrs	r2, r1
 8003e3a:	61da      	str	r2, [r3, #28]
      break;
 8003e3c:	e023      	b.n	8003e86 <HAL_TIM_PWM_ConfigChannel+0x172>
    {
      /* Check the parameters */
      assert_param(IS_TIM_CC4_INSTANCE(htim->Instance));

      /* Configure the Channel 4 in PWM mode */
      TIM_OC4_SetConfig(htim->Instance, sConfig);
 8003e3e:	68fb      	ldr	r3, [r7, #12]
 8003e40:	681b      	ldr	r3, [r3, #0]
 8003e42:	68b9      	ldr	r1, [r7, #8]
 8003e44:	4618      	mov	r0, r3
 8003e46:	f000 fadd 	bl	8004404 <TIM_OC4_SetConfig>

      /* Set the Preload enable bit for channel4 */
      htim->Instance->CCMR2 |= TIM_CCMR2_OC4PE;
 8003e4a:	68fb      	ldr	r3, [r7, #12]
 8003e4c:	681b      	ldr	r3, [r3, #0]
 8003e4e:	69da      	ldr	r2, [r3, #28]
 8003e50:	68fb      	ldr	r3, [r7, #12]
 8003e52:	681b      	ldr	r3, [r3, #0]
 8003e54:	f442 6200 	orr.w	r2, r2, #2048	; 0x800
 8003e58:	61da      	str	r2, [r3, #28]

      /* Configure the Output Fast mode */
      htim->Instance->CCMR2 &= ~TIM_CCMR2_OC4FE;
 8003e5a:	68fb      	ldr	r3, [r7, #12]
 8003e5c:	681b      	ldr	r3, [r3, #0]
 8003e5e:	69da      	ldr	r2, [r3, #28]
 8003e60:	68fb      	ldr	r3, [r7, #12]
 8003e62:	681b      	ldr	r3, [r3, #0]
 8003e64:	f422 6280 	bic.w	r2, r2, #1024	; 0x400
 8003e68:	61da      	str	r2, [r3, #28]
      htim->Instance->CCMR2 |= sConfig->OCFastMode << 8U;
 8003e6a:	68fb      	ldr	r3, [r7, #12]
 8003e6c:	681b      	ldr	r3, [r3, #0]
 8003e6e:	69d9      	ldr	r1, [r3, #28]
 8003e70:	68bb      	ldr	r3, [r7, #8]
 8003e72:	691b      	ldr	r3, [r3, #16]
 8003e74:	021a      	lsls	r2, r3, #8
 8003e76:	68fb      	ldr	r3, [r7, #12]
 8003e78:	681b      	ldr	r3, [r3, #0]
 8003e7a:	430a      	orrs	r2, r1
 8003e7c:	61da      	str	r2, [r3, #28]
      break;
 8003e7e:	e002      	b.n	8003e86 <HAL_TIM_PWM_ConfigChannel+0x172>
    }

    default:
      status = HAL_ERROR;
 8003e80:	2301      	movs	r3, #1
 8003e82:	75fb      	strb	r3, [r7, #23]
      break;
 8003e84:	bf00      	nop
  }

  __HAL_UNLOCK(htim);
 8003e86:	68fb      	ldr	r3, [r7, #12]
 8003e88:	2200      	movs	r2, #0
 8003e8a:	f883 203c 	strb.w	r2, [r3, #60]	; 0x3c

  return status;
 8003e8e:	7dfb      	ldrb	r3, [r7, #23]
}
 8003e90:	4618      	mov	r0, r3
 8003e92:	3718      	adds	r7, #24
 8003e94:	46bd      	mov	sp, r7
 8003e96:	bd80      	pop	{r7, pc}

08003e98 <HAL_TIM_ConfigClockSource>:
  * @param  sClockSourceConfig pointer to a TIM_ClockConfigTypeDef structure that
  *         contains the clock source information for the TIM peripheral.
  * @retval HAL status
  */
HAL_StatusTypeDef HAL_TIM_ConfigClockSource(TIM_HandleTypeDef *htim, TIM_ClockConfigTypeDef *sClockSourceConfig)
{
 8003e98:	b580      	push	{r7, lr}
 8003e9a:	b084      	sub	sp, #16
 8003e9c:	af00      	add	r7, sp, #0
 8003e9e:	6078      	str	r0, [r7, #4]
 8003ea0:	6039      	str	r1, [r7, #0]
  HAL_StatusTypeDef status = HAL_OK;
 8003ea2:	2300      	movs	r3, #0
 8003ea4:	73fb      	strb	r3, [r7, #15]
  uint32_t tmpsmcr;

  /* Process Locked */
  __HAL_LOCK(htim);
 8003ea6:	687b      	ldr	r3, [r7, #4]
 8003ea8:	f893 303c 	ldrb.w	r3, [r3, #60]	; 0x3c
 8003eac:	2b01      	cmp	r3, #1
 8003eae:	d101      	bne.n	8003eb4 <HAL_TIM_ConfigClockSource+0x1c>
 8003eb0:	2302      	movs	r3, #2
 8003eb2:	e0b4      	b.n	800401e <HAL_TIM_ConfigClockSource+0x186>
 8003eb4:	687b      	ldr	r3, [r7, #4]
 8003eb6:	2201      	movs	r2, #1
 8003eb8:	f883 203c 	strb.w	r2, [r3, #60]	; 0x3c

  htim->State = HAL_TIM_STATE_BUSY;
 8003ebc:	687b      	ldr	r3, [r7, #4]
 8003ebe:	2202      	movs	r2, #2
 8003ec0:	f883 203d 	strb.w	r2, [r3, #61]	; 0x3d

  /* Check the parameters */
  assert_param(IS_TIM_CLOCKSOURCE(sClockSourceConfig->ClockSource));

  /* Reset the SMS, TS, ECE, ETPS and ETRF bits */
  tmpsmcr = htim->Instance->SMCR;
 8003ec4:	687b      	ldr	r3, [r7, #4]
 8003ec6:	681b      	ldr	r3, [r3, #0]
 8003ec8:	689b      	ldr	r3, [r3, #8]
 8003eca:	60bb      	str	r3, [r7, #8]
  tmpsmcr &= ~(TIM_SMCR_SMS | TIM_SMCR_TS);
 8003ecc:	68bb      	ldr	r3, [r7, #8]
 8003ece:	f023 0377 	bic.w	r3, r3, #119	; 0x77
 8003ed2:	60bb      	str	r3, [r7, #8]
  tmpsmcr &= ~(TIM_SMCR_ETF | TIM_SMCR_ETPS | TIM_SMCR_ECE | TIM_SMCR_ETP);
 8003ed4:	68bb      	ldr	r3, [r7, #8]
 8003ed6:	f423 437f 	bic.w	r3, r3, #65280	; 0xff00
 8003eda:	60bb      	str	r3, [r7, #8]
  htim->Instance->SMCR = tmpsmcr;
 8003edc:	687b      	ldr	r3, [r7, #4]
 8003ede:	681b      	ldr	r3, [r3, #0]
 8003ee0:	68ba      	ldr	r2, [r7, #8]
 8003ee2:	609a      	str	r2, [r3, #8]

  switch (sClockSourceConfig->ClockSource)
 8003ee4:	683b      	ldr	r3, [r7, #0]
 8003ee6:	681b      	ldr	r3, [r3, #0]
 8003ee8:	f5b3 5f00 	cmp.w	r3, #8192	; 0x2000
 8003eec:	d03e      	beq.n	8003f6c <HAL_TIM_ConfigClockSource+0xd4>
 8003eee:	f5b3 5f00 	cmp.w	r3, #8192	; 0x2000
 8003ef2:	f200 8087 	bhi.w	8004004 <HAL_TIM_ConfigClockSource+0x16c>
 8003ef6:	f5b3 5f80 	cmp.w	r3, #4096	; 0x1000
 8003efa:	f000 8086 	beq.w	800400a <HAL_TIM_ConfigClockSource+0x172>
 8003efe:	f5b3 5f80 	cmp.w	r3, #4096	; 0x1000
 8003f02:	d87f      	bhi.n	8004004 <HAL_TIM_ConfigClockSource+0x16c>
 8003f04:	2b70      	cmp	r3, #112	; 0x70
 8003f06:	d01a      	beq.n	8003f3e <HAL_TIM_ConfigClockSource+0xa6>
 8003f08:	2b70      	cmp	r3, #112	; 0x70
 8003f0a:	d87b      	bhi.n	8004004 <HAL_TIM_ConfigClockSource+0x16c>
 8003f0c:	2b60      	cmp	r3, #96	; 0x60
 8003f0e:	d050      	beq.n	8003fb2 <HAL_TIM_ConfigClockSource+0x11a>
 8003f10:	2b60      	cmp	r3, #96	; 0x60
 8003f12:	d877      	bhi.n	8004004 <HAL_TIM_ConfigClockSource+0x16c>
 8003f14:	2b50      	cmp	r3, #80	; 0x50
 8003f16:	d03c      	beq.n	8003f92 <HAL_TIM_ConfigClockSource+0xfa>
 8003f18:	2b50      	cmp	r3, #80	; 0x50
 8003f1a:	d873      	bhi.n	8004004 <HAL_TIM_ConfigClockSource+0x16c>
 8003f1c:	2b40      	cmp	r3, #64	; 0x40
 8003f1e:	d058      	beq.n	8003fd2 <HAL_TIM_ConfigClockSource+0x13a>
 8003f20:	2b40      	cmp	r3, #64	; 0x40
 8003f22:	d86f      	bhi.n	8004004 <HAL_TIM_ConfigClockSource+0x16c>
 8003f24:	2b30      	cmp	r3, #48	; 0x30
 8003f26:	d064      	beq.n	8003ff2 <HAL_TIM_ConfigClockSource+0x15a>
 8003f28:	2b30      	cmp	r3, #48	; 0x30
 8003f2a:	d86b      	bhi.n	8004004 <HAL_TIM_ConfigClockSource+0x16c>
 8003f2c:	2b20      	cmp	r3, #32
 8003f2e:	d060      	beq.n	8003ff2 <HAL_TIM_ConfigClockSource+0x15a>
 8003f30:	2b20      	cmp	r3, #32
 8003f32:	d867      	bhi.n	8004004 <HAL_TIM_ConfigClockSource+0x16c>
 8003f34:	2b00      	cmp	r3, #0
 8003f36:	d05c      	beq.n	8003ff2 <HAL_TIM_ConfigClockSource+0x15a>
 8003f38:	2b10      	cmp	r3, #16
 8003f3a:	d05a      	beq.n	8003ff2 <HAL_TIM_ConfigClockSource+0x15a>
 8003f3c:	e062      	b.n	8004004 <HAL_TIM_ConfigClockSource+0x16c>
      assert_param(IS_TIM_CLOCKPRESCALER(sClockSourceConfig->ClockPrescaler));
      assert_param(IS_TIM_CLOCKPOLARITY(sClockSourceConfig->ClockPolarity));
      assert_param(IS_TIM_CLOCKFILTER(sClockSourceConfig->ClockFilter));

      /* Configure the ETR Clock source */
      TIM_ETR_SetConfig(htim->Instance,
 8003f3e:	687b      	ldr	r3, [r7, #4]
 8003f40:	6818      	ldr	r0, [r3, #0]
 8003f42:	683b      	ldr	r3, [r7, #0]
 8003f44:	6899      	ldr	r1, [r3, #8]
 8003f46:	683b      	ldr	r3, [r7, #0]
 8003f48:	685a      	ldr	r2, [r3, #4]
 8003f4a:	683b      	ldr	r3, [r7, #0]
 8003f4c:	68db      	ldr	r3, [r3, #12]
 8003f4e:	f000 fb23 	bl	8004598 <TIM_ETR_SetConfig>
                        sClockSourceConfig->ClockPrescaler,
                        sClockSourceConfig->ClockPolarity,
                        sClockSourceConfig->ClockFilter);

      /* Select the External clock mode1 and the ETRF trigger */
      tmpsmcr = htim->Instance->SMCR;
 8003f52:	687b      	ldr	r3, [r7, #4]
 8003f54:	681b      	ldr	r3, [r3, #0]
 8003f56:	689b      	ldr	r3, [r3, #8]
 8003f58:	60bb      	str	r3, [r7, #8]
      tmpsmcr |= (TIM_SLAVEMODE_EXTERNAL1 | TIM_CLOCKSOURCE_ETRMODE1);
 8003f5a:	68bb      	ldr	r3, [r7, #8]
 8003f5c:	f043 0377 	orr.w	r3, r3, #119	; 0x77
 8003f60:	60bb      	str	r3, [r7, #8]
      /* Write to TIMx SMCR */
      htim->Instance->SMCR = tmpsmcr;
 8003f62:	687b      	ldr	r3, [r7, #4]
 8003f64:	681b      	ldr	r3, [r3, #0]
 8003f66:	68ba      	ldr	r2, [r7, #8]
 8003f68:	609a      	str	r2, [r3, #8]
      break;
 8003f6a:	e04f      	b.n	800400c <HAL_TIM_ConfigClockSource+0x174>
      assert_param(IS_TIM_CLOCKPRESCALER(sClockSourceConfig->ClockPrescaler));
      assert_param(IS_TIM_CLOCKPOLARITY(sClockSourceConfig->ClockPolarity));
      assert_param(IS_TIM_CLOCKFILTER(sClockSourceConfig->ClockFilter));

      /* Configure the ETR Clock source */
      TIM_ETR_SetConfig(htim->Instance,
 8003f6c:	687b      	ldr	r3, [r7, #4]
 8003f6e:	6818      	ldr	r0, [r3, #0]
 8003f70:	683b      	ldr	r3, [r7, #0]
 8003f72:	6899      	ldr	r1, [r3, #8]
 8003f74:	683b      	ldr	r3, [r7, #0]
 8003f76:	685a      	ldr	r2, [r3, #4]
 8003f78:	683b      	ldr	r3, [r7, #0]
 8003f7a:	68db      	ldr	r3, [r3, #12]
 8003f7c:	f000 fb0c 	bl	8004598 <TIM_ETR_SetConfig>
                        sClockSourceConfig->ClockPrescaler,
                        sClockSourceConfig->ClockPolarity,
                        sClockSourceConfig->ClockFilter);
      /* Enable the External clock mode2 */
      htim->Instance->SMCR |= TIM_SMCR_ECE;
 8003f80:	687b      	ldr	r3, [r7, #4]
 8003f82:	681b      	ldr	r3, [r3, #0]
 8003f84:	689a      	ldr	r2, [r3, #8]
 8003f86:	687b      	ldr	r3, [r7, #4]
 8003f88:	681b      	ldr	r3, [r3, #0]
 8003f8a:	f442 4280 	orr.w	r2, r2, #16384	; 0x4000
 8003f8e:	609a      	str	r2, [r3, #8]
      break;
 8003f90:	e03c      	b.n	800400c <HAL_TIM_ConfigClockSource+0x174>

      /* Check TI1 input conditioning related parameters */
      assert_param(IS_TIM_CLOCKPOLARITY(sClockSourceConfig->ClockPolarity));
      assert_param(IS_TIM_CLOCKFILTER(sClockSourceConfig->ClockFilter));

      TIM_TI1_ConfigInputStage(htim->Instance,
 8003f92:	687b      	ldr	r3, [r7, #4]
 8003f94:	6818      	ldr	r0, [r3, #0]
 8003f96:	683b      	ldr	r3, [r7, #0]
 8003f98:	6859      	ldr	r1, [r3, #4]
 8003f9a:	683b      	ldr	r3, [r7, #0]
 8003f9c:	68db      	ldr	r3, [r3, #12]
 8003f9e:	461a      	mov	r2, r3
 8003fa0:	f000 fa80 	bl	80044a4 <TIM_TI1_ConfigInputStage>
                               sClockSourceConfig->ClockPolarity,
                               sClockSourceConfig->ClockFilter);
      TIM_ITRx_SetConfig(htim->Instance, TIM_CLOCKSOURCE_TI1);
 8003fa4:	687b      	ldr	r3, [r7, #4]
 8003fa6:	681b      	ldr	r3, [r3, #0]
 8003fa8:	2150      	movs	r1, #80	; 0x50
 8003faa:	4618      	mov	r0, r3
 8003fac:	f000 fad9 	bl	8004562 <TIM_ITRx_SetConfig>
      break;
 8003fb0:	e02c      	b.n	800400c <HAL_TIM_ConfigClockSource+0x174>

      /* Check TI2 input conditioning related parameters */
      assert_param(IS_TIM_CLOCKPOLARITY(sClockSourceConfig->ClockPolarity));
      assert_param(IS_TIM_CLOCKFILTER(sClockSourceConfig->ClockFilter));

      TIM_TI2_ConfigInputStage(htim->Instance,
 8003fb2:	687b      	ldr	r3, [r7, #4]
 8003fb4:	6818      	ldr	r0, [r3, #0]
 8003fb6:	683b      	ldr	r3, [r7, #0]
 8003fb8:	6859      	ldr	r1, [r3, #4]
 8003fba:	683b      	ldr	r3, [r7, #0]
 8003fbc:	68db      	ldr	r3, [r3, #12]
 8003fbe:	461a      	mov	r2, r3
 8003fc0:	f000 fa9f 	bl	8004502 <TIM_TI2_ConfigInputStage>
                               sClockSourceConfig->ClockPolarity,
                               sClockSourceConfig->ClockFilter);
      TIM_ITRx_SetConfig(htim->Instance, TIM_CLOCKSOURCE_TI2);
 8003fc4:	687b      	ldr	r3, [r7, #4]
 8003fc6:	681b      	ldr	r3, [r3, #0]
 8003fc8:	2160      	movs	r1, #96	; 0x60
 8003fca:	4618      	mov	r0, r3
 8003fcc:	f000 fac9 	bl	8004562 <TIM_ITRx_SetConfig>
      break;
 8003fd0:	e01c      	b.n	800400c <HAL_TIM_ConfigClockSource+0x174>

      /* Check TI1 input conditioning related parameters */
      assert_param(IS_TIM_CLOCKPOLARITY(sClockSourceConfig->ClockPolarity));
      assert_param(IS_TIM_CLOCKFILTER(sClockSourceConfig->ClockFilter));

      TIM_TI1_ConfigInputStage(htim->Instance,
 8003fd2:	687b      	ldr	r3, [r7, #4]
 8003fd4:	6818      	ldr	r0, [r3, #0]
 8003fd6:	683b      	ldr	r3, [r7, #0]
 8003fd8:	6859      	ldr	r1, [r3, #4]
 8003fda:	683b      	ldr	r3, [r7, #0]
 8003fdc:	68db      	ldr	r3, [r3, #12]
 8003fde:	461a      	mov	r2, r3
 8003fe0:	f000 fa60 	bl	80044a4 <TIM_TI1_ConfigInputStage>
                               sClockSourceConfig->ClockPolarity,
                               sClockSourceConfig->ClockFilter);
      TIM_ITRx_SetConfig(htim->Instance, TIM_CLOCKSOURCE_TI1ED);
 8003fe4:	687b      	ldr	r3, [r7, #4]
 8003fe6:	681b      	ldr	r3, [r3, #0]
 8003fe8:	2140      	movs	r1, #64	; 0x40
 8003fea:	4618      	mov	r0, r3
 8003fec:	f000 fab9 	bl	8004562 <TIM_ITRx_SetConfig>
      break;
 8003ff0:	e00c      	b.n	800400c <HAL_TIM_ConfigClockSource+0x174>
    case TIM_CLOCKSOURCE_ITR3:
    {
      /* Check whether or not the timer instance supports internal trigger input */
      assert_param(IS_TIM_CLOCKSOURCE_ITRX_INSTANCE(htim->Instance));

      TIM_ITRx_SetConfig(htim->Instance, sClockSourceConfig->ClockSource);
 8003ff2:	687b      	ldr	r3, [r7, #4]
 8003ff4:	681a      	ldr	r2, [r3, #0]
 8003ff6:	683b      	ldr	r3, [r7, #0]
 8003ff8:	681b      	ldr	r3, [r3, #0]
 8003ffa:	4619      	mov	r1, r3
 8003ffc:	4610      	mov	r0, r2
 8003ffe:	f000 fab0 	bl	8004562 <TIM_ITRx_SetConfig>
      break;
 8004002:	e003      	b.n	800400c <HAL_TIM_ConfigClockSource+0x174>
    }

    default:
      status = HAL_ERROR;
 8004004:	2301      	movs	r3, #1
 8004006:	73fb      	strb	r3, [r7, #15]
      break;
 8004008:	e000      	b.n	800400c <HAL_TIM_ConfigClockSource+0x174>
      break;
 800400a:	bf00      	nop
  }
  htim->State = HAL_TIM_STATE_READY;
 800400c:	687b      	ldr	r3, [r7, #4]
 800400e:	2201      	movs	r2, #1
 8004010:	f883 203d 	strb.w	r2, [r3, #61]	; 0x3d

  __HAL_UNLOCK(htim);
 8004014:	687b      	ldr	r3, [r7, #4]
 8004016:	2200      	movs	r2, #0
 8004018:	f883 203c 	strb.w	r2, [r3, #60]	; 0x3c

  return status;
 800401c:	7bfb      	ldrb	r3, [r7, #15]
}
 800401e:	4618      	mov	r0, r3
 8004020:	3710      	adds	r7, #16
 8004022:	46bd      	mov	sp, r7
 8004024:	bd80      	pop	{r7, pc}

08004026 <HAL_TIM_PeriodElapsedCallback>:
  * @brief  Period elapsed callback in non-blocking mode
  * @param  htim TIM handle
  * @retval None
  */
__weak void HAL_TIM_PeriodElapsedCallback(TIM_HandleTypeDef *htim)
{
 8004026:	b480      	push	{r7}
 8004028:	b083      	sub	sp, #12
 800402a:	af00      	add	r7, sp, #0
 800402c:	6078      	str	r0, [r7, #4]
  UNUSED(htim);

  /* NOTE : This function should not be modified, when the callback is needed,
            the HAL_TIM_PeriodElapsedCallback could be implemented in the user file
   */
}
 800402e:	bf00      	nop
 8004030:	370c      	adds	r7, #12
 8004032:	46bd      	mov	sp, r7
 8004034:	f85d 7b04 	ldr.w	r7, [sp], #4
 8004038:	4770      	bx	lr

0800403a <HAL_TIM_OC_DelayElapsedCallback>:
  * @brief  Output Compare callback in non-blocking mode
  * @param  htim TIM OC handle
  * @retval None
  */
__weak void HAL_TIM_OC_DelayElapsedCallback(TIM_HandleTypeDef *htim)
{
 800403a:	b480      	push	{r7}
 800403c:	b083      	sub	sp, #12
 800403e:	af00      	add	r7, sp, #0
 8004040:	6078      	str	r0, [r7, #4]
  UNUSED(htim);

  /* NOTE : This function should not be modified, when the callback is needed,
            the HAL_TIM_OC_DelayElapsedCallback could be implemented in the user file
   */
}
 8004042:	bf00      	nop
 8004044:	370c      	adds	r7, #12
 8004046:	46bd      	mov	sp, r7
 8004048:	f85d 7b04 	ldr.w	r7, [sp], #4
 800404c:	4770      	bx	lr

0800404e <HAL_TIM_IC_CaptureCallback>:
  * @brief  Input Capture callback in non-blocking mode
  * @param  htim TIM IC handle
  * @retval None
  */
__weak void HAL_TIM_IC_CaptureCallback(TIM_HandleTypeDef *htim)
{
 800404e:	b480      	push	{r7}
 8004050:	b083      	sub	sp, #12
 8004052:	af00      	add	r7, sp, #0
 8004054:	6078      	str	r0, [r7, #4]
  UNUSED(htim);

  /* NOTE : This function should not be modified, when the callback is needed,
            the HAL_TIM_IC_CaptureCallback could be implemented in the user file
   */
}
 8004056:	bf00      	nop
 8004058:	370c      	adds	r7, #12
 800405a:	46bd      	mov	sp, r7
 800405c:	f85d 7b04 	ldr.w	r7, [sp], #4
 8004060:	4770      	bx	lr

08004062 <HAL_TIM_PWM_PulseFinishedCallback>:
  * @brief  PWM Pulse finished callback in non-blocking mode
  * @param  htim TIM handle
  * @retval None
  */
__weak void HAL_TIM_PWM_PulseFinishedCallback(TIM_HandleTypeDef *htim)
{
 8004062:	b480      	push	{r7}
 8004064:	b083      	sub	sp, #12
 8004066:	af00      	add	r7, sp, #0
 8004068:	6078      	str	r0, [r7, #4]
  UNUSED(htim);

  /* NOTE : This function should not be modified, when the callback is needed,
            the HAL_TIM_PWM_PulseFinishedCallback could be implemented in the user file
   */
}
 800406a:	bf00      	nop
 800406c:	370c      	adds	r7, #12
 800406e:	46bd      	mov	sp, r7
 8004070:	f85d 7b04 	ldr.w	r7, [sp], #4
 8004074:	4770      	bx	lr

08004076 <HAL_TIM_TriggerCallback>:
  * @brief  Hall Trigger detection callback in non-blocking mode
  * @param  htim TIM handle
  * @retval None
  */
__weak void HAL_TIM_TriggerCallback(TIM_HandleTypeDef *htim)
{
 8004076:	b480      	push	{r7}
 8004078:	b083      	sub	sp, #12
 800407a:	af00      	add	r7, sp, #0
 800407c:	6078      	str	r0, [r7, #4]
  UNUSED(htim);

  /* NOTE : This function should not be modified, when the callback is needed,
            the HAL_TIM_TriggerCallback could be implemented in the user file
   */
}
 800407e:	bf00      	nop
 8004080:	370c      	adds	r7, #12
 8004082:	46bd      	mov	sp, r7
 8004084:	f85d 7b04 	ldr.w	r7, [sp], #4
 8004088:	4770      	bx	lr
	...

0800408c <TIM_Base_SetConfig>:
  * @param  TIMx TIM peripheral
  * @param  Structure TIM Base configuration structure
  * @retval None
  */
void TIM_Base_SetConfig(TIM_TypeDef *TIMx, TIM_Base_InitTypeDef *Structure)
{
 800408c:	b480      	push	{r7}
 800408e:	b085      	sub	sp, #20
 8004090:	af00      	add	r7, sp, #0
 8004092:	6078      	str	r0, [r7, #4]
 8004094:	6039      	str	r1, [r7, #0]
  uint32_t tmpcr1;
  tmpcr1 = TIMx->CR1;
 8004096:	687b      	ldr	r3, [r7, #4]
 8004098:	681b      	ldr	r3, [r3, #0]
 800409a:	60fb      	str	r3, [r7, #12]

  /* Set TIM Time Base Unit parameters ---------------------------------------*/
  if (IS_TIM_COUNTER_MODE_SELECT_INSTANCE(TIMx))
 800409c:	687b      	ldr	r3, [r7, #4]
 800409e:	4a34      	ldr	r2, [pc, #208]	; (8004170 <TIM_Base_SetConfig+0xe4>)
 80040a0:	4293      	cmp	r3, r2
 80040a2:	d00f      	beq.n	80040c4 <TIM_Base_SetConfig+0x38>
 80040a4:	687b      	ldr	r3, [r7, #4]
 80040a6:	f1b3 4f80 	cmp.w	r3, #1073741824	; 0x40000000
 80040aa:	d00b      	beq.n	80040c4 <TIM_Base_SetConfig+0x38>
 80040ac:	687b      	ldr	r3, [r7, #4]
 80040ae:	4a31      	ldr	r2, [pc, #196]	; (8004174 <TIM_Base_SetConfig+0xe8>)
 80040b0:	4293      	cmp	r3, r2
 80040b2:	d007      	beq.n	80040c4 <TIM_Base_SetConfig+0x38>
 80040b4:	687b      	ldr	r3, [r7, #4]
 80040b6:	4a30      	ldr	r2, [pc, #192]	; (8004178 <TIM_Base_SetConfig+0xec>)
 80040b8:	4293      	cmp	r3, r2
 80040ba:	d003      	beq.n	80040c4 <TIM_Base_SetConfig+0x38>
 80040bc:	687b      	ldr	r3, [r7, #4]
 80040be:	4a2f      	ldr	r2, [pc, #188]	; (800417c <TIM_Base_SetConfig+0xf0>)
 80040c0:	4293      	cmp	r3, r2
 80040c2:	d108      	bne.n	80040d6 <TIM_Base_SetConfig+0x4a>
  {
    /* Select the Counter Mode */
    tmpcr1 &= ~(TIM_CR1_DIR | TIM_CR1_CMS);
 80040c4:	68fb      	ldr	r3, [r7, #12]
 80040c6:	f023 0370 	bic.w	r3, r3, #112	; 0x70
 80040ca:	60fb      	str	r3, [r7, #12]
    tmpcr1 |= Structure->CounterMode;
 80040cc:	683b      	ldr	r3, [r7, #0]
 80040ce:	685b      	ldr	r3, [r3, #4]
 80040d0:	68fa      	ldr	r2, [r7, #12]
 80040d2:	4313      	orrs	r3, r2
 80040d4:	60fb      	str	r3, [r7, #12]
  }

  if (IS_TIM_CLOCK_DIVISION_INSTANCE(TIMx))
 80040d6:	687b      	ldr	r3, [r7, #4]
 80040d8:	4a25      	ldr	r2, [pc, #148]	; (8004170 <TIM_Base_SetConfig+0xe4>)
 80040da:	4293      	cmp	r3, r2
 80040dc:	d01b      	beq.n	8004116 <TIM_Base_SetConfig+0x8a>
 80040de:	687b      	ldr	r3, [r7, #4]
 80040e0:	f1b3 4f80 	cmp.w	r3, #1073741824	; 0x40000000
 80040e4:	d017      	beq.n	8004116 <TIM_Base_SetConfig+0x8a>
 80040e6:	687b      	ldr	r3, [r7, #4]
 80040e8:	4a22      	ldr	r2, [pc, #136]	; (8004174 <TIM_Base_SetConfig+0xe8>)
 80040ea:	4293      	cmp	r3, r2
 80040ec:	d013      	beq.n	8004116 <TIM_Base_SetConfig+0x8a>
 80040ee:	687b      	ldr	r3, [r7, #4]
 80040f0:	4a21      	ldr	r2, [pc, #132]	; (8004178 <TIM_Base_SetConfig+0xec>)
 80040f2:	4293      	cmp	r3, r2
 80040f4:	d00f      	beq.n	8004116 <TIM_Base_SetConfig+0x8a>
 80040f6:	687b      	ldr	r3, [r7, #4]
 80040f8:	4a20      	ldr	r2, [pc, #128]	; (800417c <TIM_Base_SetConfig+0xf0>)
 80040fa:	4293      	cmp	r3, r2
 80040fc:	d00b      	beq.n	8004116 <TIM_Base_SetConfig+0x8a>
 80040fe:	687b      	ldr	r3, [r7, #4]
 8004100:	4a1f      	ldr	r2, [pc, #124]	; (8004180 <TIM_Base_SetConfig+0xf4>)
 8004102:	4293      	cmp	r3, r2
 8004104:	d007      	beq.n	8004116 <TIM_Base_SetConfig+0x8a>
 8004106:	687b      	ldr	r3, [r7, #4]
 8004108:	4a1e      	ldr	r2, [pc, #120]	; (8004184 <TIM_Base_SetConfig+0xf8>)
 800410a:	4293      	cmp	r3, r2
 800410c:	d003      	beq.n	8004116 <TIM_Base_SetConfig+0x8a>
 800410e:	687b      	ldr	r3, [r7, #4]
 8004110:	4a1d      	ldr	r2, [pc, #116]	; (8004188 <TIM_Base_SetConfig+0xfc>)
 8004112:	4293      	cmp	r3, r2
 8004114:	d108      	bne.n	8004128 <TIM_Base_SetConfig+0x9c>
  {
    /* Set the clock division */
    tmpcr1 &= ~TIM_CR1_CKD;
 8004116:	68fb      	ldr	r3, [r7, #12]
 8004118:	f423 7340 	bic.w	r3, r3, #768	; 0x300
 800411c:	60fb      	str	r3, [r7, #12]
    tmpcr1 |= (uint32_t)Structure->ClockDivision;
 800411e:	683b      	ldr	r3, [r7, #0]
 8004120:	68db      	ldr	r3, [r3, #12]
 8004122:	68fa      	ldr	r2, [r7, #12]
 8004124:	4313      	orrs	r3, r2
 8004126:	60fb      	str	r3, [r7, #12]
  }

  /* Set the auto-reload preload */
  MODIFY_REG(tmpcr1, TIM_CR1_ARPE, Structure->AutoReloadPreload);
 8004128:	68fb      	ldr	r3, [r7, #12]
 800412a:	f023 0280 	bic.w	r2, r3, #128	; 0x80
 800412e:	683b      	ldr	r3, [r7, #0]
 8004130:	695b      	ldr	r3, [r3, #20]
 8004132:	4313      	orrs	r3, r2
 8004134:	60fb      	str	r3, [r7, #12]

  TIMx->CR1 = tmpcr1;
 8004136:	687b      	ldr	r3, [r7, #4]
 8004138:	68fa      	ldr	r2, [r7, #12]
 800413a:	601a      	str	r2, [r3, #0]

  /* Set the Autoreload value */
  TIMx->ARR = (uint32_t)Structure->Period ;
 800413c:	683b      	ldr	r3, [r7, #0]
 800413e:	689a      	ldr	r2, [r3, #8]
 8004140:	687b      	ldr	r3, [r7, #4]
 8004142:	62da      	str	r2, [r3, #44]	; 0x2c

  /* Set the Prescaler value */
  TIMx->PSC = Structure->Prescaler;
 8004144:	683b      	ldr	r3, [r7, #0]
 8004146:	681a      	ldr	r2, [r3, #0]
 8004148:	687b      	ldr	r3, [r7, #4]
 800414a:	629a      	str	r2, [r3, #40]	; 0x28

  if (IS_TIM_REPETITION_COUNTER_INSTANCE(TIMx))
 800414c:	687b      	ldr	r3, [r7, #4]
 800414e:	4a08      	ldr	r2, [pc, #32]	; (8004170 <TIM_Base_SetConfig+0xe4>)
 8004150:	4293      	cmp	r3, r2
 8004152:	d103      	bne.n	800415c <TIM_Base_SetConfig+0xd0>
  {
    /* Set the Repetition Counter value */
    TIMx->RCR = Structure->RepetitionCounter;
 8004154:	683b      	ldr	r3, [r7, #0]
 8004156:	691a      	ldr	r2, [r3, #16]
 8004158:	687b      	ldr	r3, [r7, #4]
 800415a:	631a      	str	r2, [r3, #48]	; 0x30
  }

  /* Generate an update event to reload the Prescaler
     and the repetition counter (only for advanced timer) value immediately */
  TIMx->EGR = TIM_EGR_UG;
 800415c:	687b      	ldr	r3, [r7, #4]
 800415e:	2201      	movs	r2, #1
 8004160:	615a      	str	r2, [r3, #20]
}
 8004162:	bf00      	nop
 8004164:	3714      	adds	r7, #20
 8004166:	46bd      	mov	sp, r7
 8004168:	f85d 7b04 	ldr.w	r7, [sp], #4
 800416c:	4770      	bx	lr
 800416e:	bf00      	nop
 8004170:	40010000 	.word	0x40010000
 8004174:	40000400 	.word	0x40000400
 8004178:	40000800 	.word	0x40000800
 800417c:	40000c00 	.word	0x40000c00
 8004180:	40014000 	.word	0x40014000
 8004184:	40014400 	.word	0x40014400
 8004188:	40014800 	.word	0x40014800

0800418c <TIM_OC1_SetConfig>:
  * @param  TIMx to select the TIM peripheral
  * @param  OC_Config The output configuration structure
  * @retval None
  */
static void TIM_OC1_SetConfig(TIM_TypeDef *TIMx, TIM_OC_InitTypeDef *OC_Config)
{
 800418c:	b480      	push	{r7}
 800418e:	b087      	sub	sp, #28
 8004190:	af00      	add	r7, sp, #0
 8004192:	6078      	str	r0, [r7, #4]
 8004194:	6039      	str	r1, [r7, #0]
  uint32_t tmpccmrx;
  uint32_t tmpccer;
  uint32_t tmpcr2;

  /* Disable the Channel 1: Reset the CC1E Bit */
  TIMx->CCER &= ~TIM_CCER_CC1E;
 8004196:	687b      	ldr	r3, [r7, #4]
 8004198:	6a1b      	ldr	r3, [r3, #32]
 800419a:	f023 0201 	bic.w	r2, r3, #1
 800419e:	687b      	ldr	r3, [r7, #4]
 80041a0:	621a      	str	r2, [r3, #32]

  /* Get the TIMx CCER register value */
  tmpccer = TIMx->CCER;
 80041a2:	687b      	ldr	r3, [r7, #4]
 80041a4:	6a1b      	ldr	r3, [r3, #32]
 80041a6:	617b      	str	r3, [r7, #20]
  /* Get the TIMx CR2 register value */
  tmpcr2 =  TIMx->CR2;
 80041a8:	687b      	ldr	r3, [r7, #4]
 80041aa:	685b      	ldr	r3, [r3, #4]
 80041ac:	613b      	str	r3, [r7, #16]

  /* Get the TIMx CCMR1 register value */
  tmpccmrx = TIMx->CCMR1;
 80041ae:	687b      	ldr	r3, [r7, #4]
 80041b0:	699b      	ldr	r3, [r3, #24]
 80041b2:	60fb      	str	r3, [r7, #12]

  /* Reset the Output Compare Mode Bits */
  tmpccmrx &= ~TIM_CCMR1_OC1M;
 80041b4:	68fb      	ldr	r3, [r7, #12]
 80041b6:	f023 0370 	bic.w	r3, r3, #112	; 0x70
 80041ba:	60fb      	str	r3, [r7, #12]
  tmpccmrx &= ~TIM_CCMR1_CC1S;
 80041bc:	68fb      	ldr	r3, [r7, #12]
 80041be:	f023 0303 	bic.w	r3, r3, #3
 80041c2:	60fb      	str	r3, [r7, #12]
  /* Select the Output Compare Mode */
  tmpccmrx |= OC_Config->OCMode;
 80041c4:	683b      	ldr	r3, [r7, #0]
 80041c6:	681b      	ldr	r3, [r3, #0]
 80041c8:	68fa      	ldr	r2, [r7, #12]
 80041ca:	4313      	orrs	r3, r2
 80041cc:	60fb      	str	r3, [r7, #12]

  /* Reset the Output Polarity level */
  tmpccer &= ~TIM_CCER_CC1P;
 80041ce:	697b      	ldr	r3, [r7, #20]
 80041d0:	f023 0302 	bic.w	r3, r3, #2
 80041d4:	617b      	str	r3, [r7, #20]
  /* Set the Output Compare Polarity */
  tmpccer |= OC_Config->OCPolarity;
 80041d6:	683b      	ldr	r3, [r7, #0]
 80041d8:	689b      	ldr	r3, [r3, #8]
 80041da:	697a      	ldr	r2, [r7, #20]
 80041dc:	4313      	orrs	r3, r2
 80041de:	617b      	str	r3, [r7, #20]

  if (IS_TIM_CCXN_INSTANCE(TIMx, TIM_CHANNEL_1))
 80041e0:	687b      	ldr	r3, [r7, #4]
 80041e2:	4a1c      	ldr	r2, [pc, #112]	; (8004254 <TIM_OC1_SetConfig+0xc8>)
 80041e4:	4293      	cmp	r3, r2
 80041e6:	d10c      	bne.n	8004202 <TIM_OC1_SetConfig+0x76>
  {
    /* Check parameters */
    assert_param(IS_TIM_OCN_POLARITY(OC_Config->OCNPolarity));

    /* Reset the Output N Polarity level */
    tmpccer &= ~TIM_CCER_CC1NP;
 80041e8:	697b      	ldr	r3, [r7, #20]
 80041ea:	f023 0308 	bic.w	r3, r3, #8
 80041ee:	617b      	str	r3, [r7, #20]
    /* Set the Output N Polarity */
    tmpccer |= OC_Config->OCNPolarity;
 80041f0:	683b      	ldr	r3, [r7, #0]
 80041f2:	68db      	ldr	r3, [r3, #12]
 80041f4:	697a      	ldr	r2, [r7, #20]
 80041f6:	4313      	orrs	r3, r2
 80041f8:	617b      	str	r3, [r7, #20]
    /* Reset the Output N State */
    tmpccer &= ~TIM_CCER_CC1NE;
 80041fa:	697b      	ldr	r3, [r7, #20]
 80041fc:	f023 0304 	bic.w	r3, r3, #4
 8004200:	617b      	str	r3, [r7, #20]
  }

  if (IS_TIM_BREAK_INSTANCE(TIMx))
 8004202:	687b      	ldr	r3, [r7, #4]
 8004204:	4a13      	ldr	r2, [pc, #76]	; (8004254 <TIM_OC1_SetConfig+0xc8>)
 8004206:	4293      	cmp	r3, r2
 8004208:	d111      	bne.n	800422e <TIM_OC1_SetConfig+0xa2>
    /* Check parameters */
    assert_param(IS_TIM_OCNIDLE_STATE(OC_Config->OCNIdleState));
    assert_param(IS_TIM_OCIDLE_STATE(OC_Config->OCIdleState));

    /* Reset the Output Compare and Output Compare N IDLE State */
    tmpcr2 &= ~TIM_CR2_OIS1;
 800420a:	693b      	ldr	r3, [r7, #16]
 800420c:	f423 7380 	bic.w	r3, r3, #256	; 0x100
 8004210:	613b      	str	r3, [r7, #16]
    tmpcr2 &= ~TIM_CR2_OIS1N;
 8004212:	693b      	ldr	r3, [r7, #16]
 8004214:	f423 7300 	bic.w	r3, r3, #512	; 0x200
 8004218:	613b      	str	r3, [r7, #16]
    /* Set the Output Idle state */
    tmpcr2 |= OC_Config->OCIdleState;
 800421a:	683b      	ldr	r3, [r7, #0]
 800421c:	695b      	ldr	r3, [r3, #20]
 800421e:	693a      	ldr	r2, [r7, #16]
 8004220:	4313      	orrs	r3, r2
 8004222:	613b      	str	r3, [r7, #16]
    /* Set the Output N Idle state */
    tmpcr2 |= OC_Config->OCNIdleState;
 8004224:	683b      	ldr	r3, [r7, #0]
 8004226:	699b      	ldr	r3, [r3, #24]
 8004228:	693a      	ldr	r2, [r7, #16]
 800422a:	4313      	orrs	r3, r2
 800422c:	613b      	str	r3, [r7, #16]
  }

  /* Write to TIMx CR2 */
  TIMx->CR2 = tmpcr2;
 800422e:	687b      	ldr	r3, [r7, #4]
 8004230:	693a      	ldr	r2, [r7, #16]
 8004232:	605a      	str	r2, [r3, #4]

  /* Write to TIMx CCMR1 */
  TIMx->CCMR1 = tmpccmrx;
 8004234:	687b      	ldr	r3, [r7, #4]
 8004236:	68fa      	ldr	r2, [r7, #12]
 8004238:	619a      	str	r2, [r3, #24]

  /* Set the Capture Compare Register value */
  TIMx->CCR1 = OC_Config->Pulse;
 800423a:	683b      	ldr	r3, [r7, #0]
 800423c:	685a      	ldr	r2, [r3, #4]
 800423e:	687b      	ldr	r3, [r7, #4]
 8004240:	635a      	str	r2, [r3, #52]	; 0x34

  /* Write to TIMx CCER */
  TIMx->CCER = tmpccer;
 8004242:	687b      	ldr	r3, [r7, #4]
 8004244:	697a      	ldr	r2, [r7, #20]
 8004246:	621a      	str	r2, [r3, #32]
}
 8004248:	bf00      	nop
 800424a:	371c      	adds	r7, #28
 800424c:	46bd      	mov	sp, r7
 800424e:	f85d 7b04 	ldr.w	r7, [sp], #4
 8004252:	4770      	bx	lr
 8004254:	40010000 	.word	0x40010000

08004258 <TIM_OC2_SetConfig>:
  * @param  TIMx to select the TIM peripheral
  * @param  OC_Config The output configuration structure
  * @retval None
  */
void TIM_OC2_SetConfig(TIM_TypeDef *TIMx, TIM_OC_InitTypeDef *OC_Config)
{
 8004258:	b480      	push	{r7}
 800425a:	b087      	sub	sp, #28
 800425c:	af00      	add	r7, sp, #0
 800425e:	6078      	str	r0, [r7, #4]
 8004260:	6039      	str	r1, [r7, #0]
  uint32_t tmpccmrx;
  uint32_t tmpccer;
  uint32_t tmpcr2;

  /* Disable the Channel 2: Reset the CC2E Bit */
  TIMx->CCER &= ~TIM_CCER_CC2E;
 8004262:	687b      	ldr	r3, [r7, #4]
 8004264:	6a1b      	ldr	r3, [r3, #32]
 8004266:	f023 0210 	bic.w	r2, r3, #16
 800426a:	687b      	ldr	r3, [r7, #4]
 800426c:	621a      	str	r2, [r3, #32]

  /* Get the TIMx CCER register value */
  tmpccer = TIMx->CCER;
 800426e:	687b      	ldr	r3, [r7, #4]
 8004270:	6a1b      	ldr	r3, [r3, #32]
 8004272:	617b      	str	r3, [r7, #20]
  /* Get the TIMx CR2 register value */
  tmpcr2 =  TIMx->CR2;
 8004274:	687b      	ldr	r3, [r7, #4]
 8004276:	685b      	ldr	r3, [r3, #4]
 8004278:	613b      	str	r3, [r7, #16]

  /* Get the TIMx CCMR1 register value */
  tmpccmrx = TIMx->CCMR1;
 800427a:	687b      	ldr	r3, [r7, #4]
 800427c:	699b      	ldr	r3, [r3, #24]
 800427e:	60fb      	str	r3, [r7, #12]

  /* Reset the Output Compare mode and Capture/Compare selection Bits */
  tmpccmrx &= ~TIM_CCMR1_OC2M;
 8004280:	68fb      	ldr	r3, [r7, #12]
 8004282:	f423 43e0 	bic.w	r3, r3, #28672	; 0x7000
 8004286:	60fb      	str	r3, [r7, #12]
  tmpccmrx &= ~TIM_CCMR1_CC2S;
 8004288:	68fb      	ldr	r3, [r7, #12]
 800428a:	f423 7340 	bic.w	r3, r3, #768	; 0x300
 800428e:	60fb      	str	r3, [r7, #12]

  /* Select the Output Compare Mode */
  tmpccmrx |= (OC_Config->OCMode << 8U);
 8004290:	683b      	ldr	r3, [r7, #0]
 8004292:	681b      	ldr	r3, [r3, #0]
 8004294:	021b      	lsls	r3, r3, #8
 8004296:	68fa      	ldr	r2, [r7, #12]
 8004298:	4313      	orrs	r3, r2
 800429a:	60fb      	str	r3, [r7, #12]

  /* Reset the Output Polarity level */
  tmpccer &= ~TIM_CCER_CC2P;
 800429c:	697b      	ldr	r3, [r7, #20]
 800429e:	f023 0320 	bic.w	r3, r3, #32
 80042a2:	617b      	str	r3, [r7, #20]
  /* Set the Output Compare Polarity */
  tmpccer |= (OC_Config->OCPolarity << 4U);
 80042a4:	683b      	ldr	r3, [r7, #0]
 80042a6:	689b      	ldr	r3, [r3, #8]
 80042a8:	011b      	lsls	r3, r3, #4
 80042aa:	697a      	ldr	r2, [r7, #20]
 80042ac:	4313      	orrs	r3, r2
 80042ae:	617b      	str	r3, [r7, #20]

  if (IS_TIM_CCXN_INSTANCE(TIMx, TIM_CHANNEL_2))
 80042b0:	687b      	ldr	r3, [r7, #4]
 80042b2:	4a1e      	ldr	r2, [pc, #120]	; (800432c <TIM_OC2_SetConfig+0xd4>)
 80042b4:	4293      	cmp	r3, r2
 80042b6:	d10d      	bne.n	80042d4 <TIM_OC2_SetConfig+0x7c>
  {
    assert_param(IS_TIM_OCN_POLARITY(OC_Config->OCNPolarity));

    /* Reset the Output N Polarity level */
    tmpccer &= ~TIM_CCER_CC2NP;
 80042b8:	697b      	ldr	r3, [r7, #20]
 80042ba:	f023 0380 	bic.w	r3, r3, #128	; 0x80
 80042be:	617b      	str	r3, [r7, #20]
    /* Set the Output N Polarity */
    tmpccer |= (OC_Config->OCNPolarity << 4U);
 80042c0:	683b      	ldr	r3, [r7, #0]
 80042c2:	68db      	ldr	r3, [r3, #12]
 80042c4:	011b      	lsls	r3, r3, #4
 80042c6:	697a      	ldr	r2, [r7, #20]
 80042c8:	4313      	orrs	r3, r2
 80042ca:	617b      	str	r3, [r7, #20]
    /* Reset the Output N State */
    tmpccer &= ~TIM_CCER_CC2NE;
 80042cc:	697b      	ldr	r3, [r7, #20]
 80042ce:	f023 0340 	bic.w	r3, r3, #64	; 0x40
 80042d2:	617b      	str	r3, [r7, #20]

  }

  if (IS_TIM_BREAK_INSTANCE(TIMx))
 80042d4:	687b      	ldr	r3, [r7, #4]
 80042d6:	4a15      	ldr	r2, [pc, #84]	; (800432c <TIM_OC2_SetConfig+0xd4>)
 80042d8:	4293      	cmp	r3, r2
 80042da:	d113      	bne.n	8004304 <TIM_OC2_SetConfig+0xac>
    /* Check parameters */
    assert_param(IS_TIM_OCNIDLE_STATE(OC_Config->OCNIdleState));
    assert_param(IS_TIM_OCIDLE_STATE(OC_Config->OCIdleState));

    /* Reset the Output Compare and Output Compare N IDLE State */
    tmpcr2 &= ~TIM_CR2_OIS2;
 80042dc:	693b      	ldr	r3, [r7, #16]
 80042de:	f423 6380 	bic.w	r3, r3, #1024	; 0x400
 80042e2:	613b      	str	r3, [r7, #16]
    tmpcr2 &= ~TIM_CR2_OIS2N;
 80042e4:	693b      	ldr	r3, [r7, #16]
 80042e6:	f423 6300 	bic.w	r3, r3, #2048	; 0x800
 80042ea:	613b      	str	r3, [r7, #16]
    /* Set the Output Idle state */
    tmpcr2 |= (OC_Config->OCIdleState << 2U);
 80042ec:	683b      	ldr	r3, [r7, #0]
 80042ee:	695b      	ldr	r3, [r3, #20]
 80042f0:	009b      	lsls	r3, r3, #2
 80042f2:	693a      	ldr	r2, [r7, #16]
 80042f4:	4313      	orrs	r3, r2
 80042f6:	613b      	str	r3, [r7, #16]
    /* Set the Output N Idle state */
    tmpcr2 |= (OC_Config->OCNIdleState << 2U);
 80042f8:	683b      	ldr	r3, [r7, #0]
 80042fa:	699b      	ldr	r3, [r3, #24]
 80042fc:	009b      	lsls	r3, r3, #2
 80042fe:	693a      	ldr	r2, [r7, #16]
 8004300:	4313      	orrs	r3, r2
 8004302:	613b      	str	r3, [r7, #16]
  }

  /* Write to TIMx CR2 */
  TIMx->CR2 = tmpcr2;
 8004304:	687b      	ldr	r3, [r7, #4]
 8004306:	693a      	ldr	r2, [r7, #16]
 8004308:	605a      	str	r2, [r3, #4]

  /* Write to TIMx CCMR1 */
  TIMx->CCMR1 = tmpccmrx;
 800430a:	687b      	ldr	r3, [r7, #4]
 800430c:	68fa      	ldr	r2, [r7, #12]
 800430e:	619a      	str	r2, [r3, #24]

  /* Set the Capture Compare Register value */
  TIMx->CCR2 = OC_Config->Pulse;
 8004310:	683b      	ldr	r3, [r7, #0]
 8004312:	685a      	ldr	r2, [r3, #4]
 8004314:	687b      	ldr	r3, [r7, #4]
 8004316:	639a      	str	r2, [r3, #56]	; 0x38

  /* Write to TIMx CCER */
  TIMx->CCER = tmpccer;
 8004318:	687b      	ldr	r3, [r7, #4]
 800431a:	697a      	ldr	r2, [r7, #20]
 800431c:	621a      	str	r2, [r3, #32]
}
 800431e:	bf00      	nop
 8004320:	371c      	adds	r7, #28
 8004322:	46bd      	mov	sp, r7
 8004324:	f85d 7b04 	ldr.w	r7, [sp], #4
 8004328:	4770      	bx	lr
 800432a:	bf00      	nop
 800432c:	40010000 	.word	0x40010000

08004330 <TIM_OC3_SetConfig>:
  * @param  TIMx to select the TIM peripheral
  * @param  OC_Config The output configuration structure
  * @retval None
  */
static void TIM_OC3_SetConfig(TIM_TypeDef *TIMx, TIM_OC_InitTypeDef *OC_Config)
{
 8004330:	b480      	push	{r7}
 8004332:	b087      	sub	sp, #28
 8004334:	af00      	add	r7, sp, #0
 8004336:	6078      	str	r0, [r7, #4]
 8004338:	6039      	str	r1, [r7, #0]
  uint32_t tmpccmrx;
  uint32_t tmpccer;
  uint32_t tmpcr2;

  /* Disable the Channel 3: Reset the CC2E Bit */
  TIMx->CCER &= ~TIM_CCER_CC3E;
 800433a:	687b      	ldr	r3, [r7, #4]
 800433c:	6a1b      	ldr	r3, [r3, #32]
 800433e:	f423 7280 	bic.w	r2, r3, #256	; 0x100
 8004342:	687b      	ldr	r3, [r7, #4]
 8004344:	621a      	str	r2, [r3, #32]

  /* Get the TIMx CCER register value */
  tmpccer = TIMx->CCER;
 8004346:	687b      	ldr	r3, [r7, #4]
 8004348:	6a1b      	ldr	r3, [r3, #32]
 800434a:	617b      	str	r3, [r7, #20]
  /* Get the TIMx CR2 register value */
  tmpcr2 =  TIMx->CR2;
 800434c:	687b      	ldr	r3, [r7, #4]
 800434e:	685b      	ldr	r3, [r3, #4]
 8004350:	613b      	str	r3, [r7, #16]

  /* Get the TIMx CCMR2 register value */
  tmpccmrx = TIMx->CCMR2;
 8004352:	687b      	ldr	r3, [r7, #4]
 8004354:	69db      	ldr	r3, [r3, #28]
 8004356:	60fb      	str	r3, [r7, #12]

  /* Reset the Output Compare mode and Capture/Compare selection Bits */
  tmpccmrx &= ~TIM_CCMR2_OC3M;
 8004358:	68fb      	ldr	r3, [r7, #12]
 800435a:	f023 0370 	bic.w	r3, r3, #112	; 0x70
 800435e:	60fb      	str	r3, [r7, #12]
  tmpccmrx &= ~TIM_CCMR2_CC3S;
 8004360:	68fb      	ldr	r3, [r7, #12]
 8004362:	f023 0303 	bic.w	r3, r3, #3
 8004366:	60fb      	str	r3, [r7, #12]
  /* Select the Output Compare Mode */
  tmpccmrx |= OC_Config->OCMode;
 8004368:	683b      	ldr	r3, [r7, #0]
 800436a:	681b      	ldr	r3, [r3, #0]
 800436c:	68fa      	ldr	r2, [r7, #12]
 800436e:	4313      	orrs	r3, r2
 8004370:	60fb      	str	r3, [r7, #12]

  /* Reset the Output Polarity level */
  tmpccer &= ~TIM_CCER_CC3P;
 8004372:	697b      	ldr	r3, [r7, #20]
 8004374:	f423 7300 	bic.w	r3, r3, #512	; 0x200
 8004378:	617b      	str	r3, [r7, #20]
  /* Set the Output Compare Polarity */
  tmpccer |= (OC_Config->OCPolarity << 8U);
 800437a:	683b      	ldr	r3, [r7, #0]
 800437c:	689b      	ldr	r3, [r3, #8]
 800437e:	021b      	lsls	r3, r3, #8
 8004380:	697a      	ldr	r2, [r7, #20]
 8004382:	4313      	orrs	r3, r2
 8004384:	617b      	str	r3, [r7, #20]

  if (IS_TIM_CCXN_INSTANCE(TIMx, TIM_CHANNEL_3))
 8004386:	687b      	ldr	r3, [r7, #4]
 8004388:	4a1d      	ldr	r2, [pc, #116]	; (8004400 <TIM_OC3_SetConfig+0xd0>)
 800438a:	4293      	cmp	r3, r2
 800438c:	d10d      	bne.n	80043aa <TIM_OC3_SetConfig+0x7a>
  {
    assert_param(IS_TIM_OCN_POLARITY(OC_Config->OCNPolarity));

    /* Reset the Output N Polarity level */
    tmpccer &= ~TIM_CCER_CC3NP;
 800438e:	697b      	ldr	r3, [r7, #20]
 8004390:	f423 6300 	bic.w	r3, r3, #2048	; 0x800
 8004394:	617b      	str	r3, [r7, #20]
    /* Set the Output N Polarity */
    tmpccer |= (OC_Config->OCNPolarity << 8U);
 8004396:	683b      	ldr	r3, [r7, #0]
 8004398:	68db      	ldr	r3, [r3, #12]
 800439a:	021b      	lsls	r3, r3, #8
 800439c:	697a      	ldr	r2, [r7, #20]
 800439e:	4313      	orrs	r3, r2
 80043a0:	617b      	str	r3, [r7, #20]
    /* Reset the Output N State */
    tmpccer &= ~TIM_CCER_CC3NE;
 80043a2:	697b      	ldr	r3, [r7, #20]
 80043a4:	f423 6380 	bic.w	r3, r3, #1024	; 0x400
 80043a8:	617b      	str	r3, [r7, #20]
  }

  if (IS_TIM_BREAK_INSTANCE(TIMx))
 80043aa:	687b      	ldr	r3, [r7, #4]
 80043ac:	4a14      	ldr	r2, [pc, #80]	; (8004400 <TIM_OC3_SetConfig+0xd0>)
 80043ae:	4293      	cmp	r3, r2
 80043b0:	d113      	bne.n	80043da <TIM_OC3_SetConfig+0xaa>
    /* Check parameters */
    assert_param(IS_TIM_OCNIDLE_STATE(OC_Config->OCNIdleState));
    assert_param(IS_TIM_OCIDLE_STATE(OC_Config->OCIdleState));

    /* Reset the Output Compare and Output Compare N IDLE State */
    tmpcr2 &= ~TIM_CR2_OIS3;
 80043b2:	693b      	ldr	r3, [r7, #16]
 80043b4:	f423 5380 	bic.w	r3, r3, #4096	; 0x1000
 80043b8:	613b      	str	r3, [r7, #16]
    tmpcr2 &= ~TIM_CR2_OIS3N;
 80043ba:	693b      	ldr	r3, [r7, #16]
 80043bc:	f423 5300 	bic.w	r3, r3, #8192	; 0x2000
 80043c0:	613b      	str	r3, [r7, #16]
    /* Set the Output Idle state */
    tmpcr2 |= (OC_Config->OCIdleState << 4U);
 80043c2:	683b      	ldr	r3, [r7, #0]
 80043c4:	695b      	ldr	r3, [r3, #20]
 80043c6:	011b      	lsls	r3, r3, #4
 80043c8:	693a      	ldr	r2, [r7, #16]
 80043ca:	4313      	orrs	r3, r2
 80043cc:	613b      	str	r3, [r7, #16]
    /* Set the Output N Idle state */
    tmpcr2 |= (OC_Config->OCNIdleState << 4U);
 80043ce:	683b      	ldr	r3, [r7, #0]
 80043d0:	699b      	ldr	r3, [r3, #24]
 80043d2:	011b      	lsls	r3, r3, #4
 80043d4:	693a      	ldr	r2, [r7, #16]
 80043d6:	4313      	orrs	r3, r2
 80043d8:	613b      	str	r3, [r7, #16]
  }

  /* Write to TIMx CR2 */
  TIMx->CR2 = tmpcr2;
 80043da:	687b      	ldr	r3, [r7, #4]
 80043dc:	693a      	ldr	r2, [r7, #16]
 80043de:	605a      	str	r2, [r3, #4]

  /* Write to TIMx CCMR2 */
  TIMx->CCMR2 = tmpccmrx;
 80043e0:	687b      	ldr	r3, [r7, #4]
 80043e2:	68fa      	ldr	r2, [r7, #12]
 80043e4:	61da      	str	r2, [r3, #28]

  /* Set the Capture Compare Register value */
  TIMx->CCR3 = OC_Config->Pulse;
 80043e6:	683b      	ldr	r3, [r7, #0]
 80043e8:	685a      	ldr	r2, [r3, #4]
 80043ea:	687b      	ldr	r3, [r7, #4]
 80043ec:	63da      	str	r2, [r3, #60]	; 0x3c

  /* Write to TIMx CCER */
  TIMx->CCER = tmpccer;
 80043ee:	687b      	ldr	r3, [r7, #4]
 80043f0:	697a      	ldr	r2, [r7, #20]
 80043f2:	621a      	str	r2, [r3, #32]
}
 80043f4:	bf00      	nop
 80043f6:	371c      	adds	r7, #28
 80043f8:	46bd      	mov	sp, r7
 80043fa:	f85d 7b04 	ldr.w	r7, [sp], #4
 80043fe:	4770      	bx	lr
 8004400:	40010000 	.word	0x40010000

08004404 <TIM_OC4_SetConfig>:
  * @param  TIMx to select the TIM peripheral
  * @param  OC_Config The output configuration structure
  * @retval None
  */
static void TIM_OC4_SetConfig(TIM_TypeDef *TIMx, TIM_OC_InitTypeDef *OC_Config)
{
 8004404:	b480      	push	{r7}
 8004406:	b087      	sub	sp, #28
 8004408:	af00      	add	r7, sp, #0
 800440a:	6078      	str	r0, [r7, #4]
 800440c:	6039      	str	r1, [r7, #0]
  uint32_t tmpccmrx;
  uint32_t tmpccer;
  uint32_t tmpcr2;

  /* Disable the Channel 4: Reset the CC4E Bit */
  TIMx->CCER &= ~TIM_CCER_CC4E;
 800440e:	687b      	ldr	r3, [r7, #4]
 8004410:	6a1b      	ldr	r3, [r3, #32]
 8004412:	f423 5280 	bic.w	r2, r3, #4096	; 0x1000
 8004416:	687b      	ldr	r3, [r7, #4]
 8004418:	621a      	str	r2, [r3, #32]

  /* Get the TIMx CCER register value */
  tmpccer = TIMx->CCER;
 800441a:	687b      	ldr	r3, [r7, #4]
 800441c:	6a1b      	ldr	r3, [r3, #32]
 800441e:	613b      	str	r3, [r7, #16]
  /* Get the TIMx CR2 register value */
  tmpcr2 =  TIMx->CR2;
 8004420:	687b      	ldr	r3, [r7, #4]
 8004422:	685b      	ldr	r3, [r3, #4]
 8004424:	617b      	str	r3, [r7, #20]

  /* Get the TIMx CCMR2 register value */
  tmpccmrx = TIMx->CCMR2;
 8004426:	687b      	ldr	r3, [r7, #4]
 8004428:	69db      	ldr	r3, [r3, #28]
 800442a:	60fb      	str	r3, [r7, #12]

  /* Reset the Output Compare mode and Capture/Compare selection Bits */
  tmpccmrx &= ~TIM_CCMR2_OC4M;
 800442c:	68fb      	ldr	r3, [r7, #12]
 800442e:	f423 43e0 	bic.w	r3, r3, #28672	; 0x7000
 8004432:	60fb      	str	r3, [r7, #12]
  tmpccmrx &= ~TIM_CCMR2_CC4S;
 8004434:	68fb      	ldr	r3, [r7, #12]
 8004436:	f423 7340 	bic.w	r3, r3, #768	; 0x300
 800443a:	60fb      	str	r3, [r7, #12]

  /* Select the Output Compare Mode */
  tmpccmrx |= (OC_Config->OCMode << 8U);
 800443c:	683b      	ldr	r3, [r7, #0]
 800443e:	681b      	ldr	r3, [r3, #0]
 8004440:	021b      	lsls	r3, r3, #8
 8004442:	68fa      	ldr	r2, [r7, #12]
 8004444:	4313      	orrs	r3, r2
 8004446:	60fb      	str	r3, [r7, #12]

  /* Reset the Output Polarity level */
  tmpccer &= ~TIM_CCER_CC4P;
 8004448:	693b      	ldr	r3, [r7, #16]
 800444a:	f423 5300 	bic.w	r3, r3, #8192	; 0x2000
 800444e:	613b      	str	r3, [r7, #16]
  /* Set the Output Compare Polarity */
  tmpccer |= (OC_Config->OCPolarity << 12U);
 8004450:	683b      	ldr	r3, [r7, #0]
 8004452:	689b      	ldr	r3, [r3, #8]
 8004454:	031b      	lsls	r3, r3, #12
 8004456:	693a      	ldr	r2, [r7, #16]
 8004458:	4313      	orrs	r3, r2
 800445a:	613b      	str	r3, [r7, #16]

  if (IS_TIM_BREAK_INSTANCE(TIMx))
 800445c:	687b      	ldr	r3, [r7, #4]
 800445e:	4a10      	ldr	r2, [pc, #64]	; (80044a0 <TIM_OC4_SetConfig+0x9c>)
 8004460:	4293      	cmp	r3, r2
 8004462:	d109      	bne.n	8004478 <TIM_OC4_SetConfig+0x74>
  {
    /* Check parameters */
    assert_param(IS_TIM_OCIDLE_STATE(OC_Config->OCIdleState));

    /* Reset the Output Compare IDLE State */
    tmpcr2 &= ~TIM_CR2_OIS4;
 8004464:	697b      	ldr	r3, [r7, #20]
 8004466:	f423 4380 	bic.w	r3, r3, #16384	; 0x4000
 800446a:	617b      	str	r3, [r7, #20]

    /* Set the Output Idle state */
    tmpcr2 |= (OC_Config->OCIdleState << 6U);
 800446c:	683b      	ldr	r3, [r7, #0]
 800446e:	695b      	ldr	r3, [r3, #20]
 8004470:	019b      	lsls	r3, r3, #6
 8004472:	697a      	ldr	r2, [r7, #20]
 8004474:	4313      	orrs	r3, r2
 8004476:	617b      	str	r3, [r7, #20]
  }

  /* Write to TIMx CR2 */
  TIMx->CR2 = tmpcr2;
 8004478:	687b      	ldr	r3, [r7, #4]
 800447a:	697a      	ldr	r2, [r7, #20]
 800447c:	605a      	str	r2, [r3, #4]

  /* Write to TIMx CCMR2 */
  TIMx->CCMR2 = tmpccmrx;
 800447e:	687b      	ldr	r3, [r7, #4]
 8004480:	68fa      	ldr	r2, [r7, #12]
 8004482:	61da      	str	r2, [r3, #28]

  /* Set the Capture Compare Register value */
  TIMx->CCR4 = OC_Config->Pulse;
 8004484:	683b      	ldr	r3, [r7, #0]
 8004486:	685a      	ldr	r2, [r3, #4]
 8004488:	687b      	ldr	r3, [r7, #4]
 800448a:	641a      	str	r2, [r3, #64]	; 0x40

  /* Write to TIMx CCER */
  TIMx->CCER = tmpccer;
 800448c:	687b      	ldr	r3, [r7, #4]
 800448e:	693a      	ldr	r2, [r7, #16]
 8004490:	621a      	str	r2, [r3, #32]
}
 8004492:	bf00      	nop
 8004494:	371c      	adds	r7, #28
 8004496:	46bd      	mov	sp, r7
 8004498:	f85d 7b04 	ldr.w	r7, [sp], #4
 800449c:	4770      	bx	lr
 800449e:	bf00      	nop
 80044a0:	40010000 	.word	0x40010000

080044a4 <TIM_TI1_ConfigInputStage>:
  * @param  TIM_ICFilter Specifies the Input Capture Filter.
  *          This parameter must be a value between 0x00 and 0x0F.
  * @retval None
  */
static void TIM_TI1_ConfigInputStage(TIM_TypeDef *TIMx, uint32_t TIM_ICPolarity, uint32_t TIM_ICFilter)
{
 80044a4:	b480      	push	{r7}
 80044a6:	b087      	sub	sp, #28
 80044a8:	af00      	add	r7, sp, #0
 80044aa:	60f8      	str	r0, [r7, #12]
 80044ac:	60b9      	str	r1, [r7, #8]
 80044ae:	607a      	str	r2, [r7, #4]
  uint32_t tmpccmr1;
  uint32_t tmpccer;

  /* Disable the Channel 1: Reset the CC1E Bit */
  tmpccer = TIMx->CCER;
 80044b0:	68fb      	ldr	r3, [r7, #12]
 80044b2:	6a1b      	ldr	r3, [r3, #32]
 80044b4:	617b      	str	r3, [r7, #20]
  TIMx->CCER &= ~TIM_CCER_CC1E;
 80044b6:	68fb      	ldr	r3, [r7, #12]
 80044b8:	6a1b      	ldr	r3, [r3, #32]
 80044ba:	f023 0201 	bic.w	r2, r3, #1
 80044be:	68fb      	ldr	r3, [r7, #12]
 80044c0:	621a      	str	r2, [r3, #32]
  tmpccmr1 = TIMx->CCMR1;
 80044c2:	68fb      	ldr	r3, [r7, #12]
 80044c4:	699b      	ldr	r3, [r3, #24]
 80044c6:	613b      	str	r3, [r7, #16]

  /* Set the filter */
  tmpccmr1 &= ~TIM_CCMR1_IC1F;
 80044c8:	693b      	ldr	r3, [r7, #16]
 80044ca:	f023 03f0 	bic.w	r3, r3, #240	; 0xf0
 80044ce:	613b      	str	r3, [r7, #16]
  tmpccmr1 |= (TIM_ICFilter << 4U);
 80044d0:	687b      	ldr	r3, [r7, #4]
 80044d2:	011b      	lsls	r3, r3, #4
 80044d4:	693a      	ldr	r2, [r7, #16]
 80044d6:	4313      	orrs	r3, r2
 80044d8:	613b      	str	r3, [r7, #16]

  /* Select the Polarity and set the CC1E Bit */
  tmpccer &= ~(TIM_CCER_CC1P | TIM_CCER_CC1NP);
 80044da:	697b      	ldr	r3, [r7, #20]
 80044dc:	f023 030a 	bic.w	r3, r3, #10
 80044e0:	617b      	str	r3, [r7, #20]
  tmpccer |= TIM_ICPolarity;
 80044e2:	697a      	ldr	r2, [r7, #20]
 80044e4:	68bb      	ldr	r3, [r7, #8]
 80044e6:	4313      	orrs	r3, r2
 80044e8:	617b      	str	r3, [r7, #20]

  /* Write to TIMx CCMR1 and CCER registers */
  TIMx->CCMR1 = tmpccmr1;
 80044ea:	68fb      	ldr	r3, [r7, #12]
 80044ec:	693a      	ldr	r2, [r7, #16]
 80044ee:	619a      	str	r2, [r3, #24]
  TIMx->CCER = tmpccer;
 80044f0:	68fb      	ldr	r3, [r7, #12]
 80044f2:	697a      	ldr	r2, [r7, #20]
 80044f4:	621a      	str	r2, [r3, #32]
}
 80044f6:	bf00      	nop
 80044f8:	371c      	adds	r7, #28
 80044fa:	46bd      	mov	sp, r7
 80044fc:	f85d 7b04 	ldr.w	r7, [sp], #4
 8004500:	4770      	bx	lr

08004502 <TIM_TI2_ConfigInputStage>:
  * @param  TIM_ICFilter Specifies the Input Capture Filter.
  *          This parameter must be a value between 0x00 and 0x0F.
  * @retval None
  */
static void TIM_TI2_ConfigInputStage(TIM_TypeDef *TIMx, uint32_t TIM_ICPolarity, uint32_t TIM_ICFilter)
{
 8004502:	b480      	push	{r7}
 8004504:	b087      	sub	sp, #28
 8004506:	af00      	add	r7, sp, #0
 8004508:	60f8      	str	r0, [r7, #12]
 800450a:	60b9      	str	r1, [r7, #8]
 800450c:	607a      	str	r2, [r7, #4]
  uint32_t tmpccmr1;
  uint32_t tmpccer;

  /* Disable the Channel 2: Reset the CC2E Bit */
  TIMx->CCER &= ~TIM_CCER_CC2E;
 800450e:	68fb      	ldr	r3, [r7, #12]
 8004510:	6a1b      	ldr	r3, [r3, #32]
 8004512:	f023 0210 	bic.w	r2, r3, #16
 8004516:	68fb      	ldr	r3, [r7, #12]
 8004518:	621a      	str	r2, [r3, #32]
  tmpccmr1 = TIMx->CCMR1;
 800451a:	68fb      	ldr	r3, [r7, #12]
 800451c:	699b      	ldr	r3, [r3, #24]
 800451e:	617b      	str	r3, [r7, #20]
  tmpccer = TIMx->CCER;
 8004520:	68fb      	ldr	r3, [r7, #12]
 8004522:	6a1b      	ldr	r3, [r3, #32]
 8004524:	613b      	str	r3, [r7, #16]

  /* Set the filter */
  tmpccmr1 &= ~TIM_CCMR1_IC2F;
 8004526:	697b      	ldr	r3, [r7, #20]
 8004528:	f423 4370 	bic.w	r3, r3, #61440	; 0xf000
 800452c:	617b      	str	r3, [r7, #20]
  tmpccmr1 |= (TIM_ICFilter << 12U);
 800452e:	687b      	ldr	r3, [r7, #4]
 8004530:	031b      	lsls	r3, r3, #12
 8004532:	697a      	ldr	r2, [r7, #20]
 8004534:	4313      	orrs	r3, r2
 8004536:	617b      	str	r3, [r7, #20]

  /* Select the Polarity and set the CC2E Bit */
  tmpccer &= ~(TIM_CCER_CC2P | TIM_CCER_CC2NP);
 8004538:	693b      	ldr	r3, [r7, #16]
 800453a:	f023 03a0 	bic.w	r3, r3, #160	; 0xa0
 800453e:	613b      	str	r3, [r7, #16]
  tmpccer |= (TIM_ICPolarity << 4U);
 8004540:	68bb      	ldr	r3, [r7, #8]
 8004542:	011b      	lsls	r3, r3, #4
 8004544:	693a      	ldr	r2, [r7, #16]
 8004546:	4313      	orrs	r3, r2
 8004548:	613b      	str	r3, [r7, #16]

  /* Write to TIMx CCMR1 and CCER registers */
  TIMx->CCMR1 = tmpccmr1 ;
 800454a:	68fb      	ldr	r3, [r7, #12]
 800454c:	697a      	ldr	r2, [r7, #20]
 800454e:	619a      	str	r2, [r3, #24]
  TIMx->CCER = tmpccer;
 8004550:	68fb      	ldr	r3, [r7, #12]
 8004552:	693a      	ldr	r2, [r7, #16]
 8004554:	621a      	str	r2, [r3, #32]
}
 8004556:	bf00      	nop
 8004558:	371c      	adds	r7, #28
 800455a:	46bd      	mov	sp, r7
 800455c:	f85d 7b04 	ldr.w	r7, [sp], #4
 8004560:	4770      	bx	lr

08004562 <TIM_ITRx_SetConfig>:
  *            @arg TIM_TS_TI2FP2: Filtered Timer Input 2
  *            @arg TIM_TS_ETRF: External Trigger input
  * @retval None
  */
static void TIM_ITRx_SetConfig(TIM_TypeDef *TIMx, uint32_t InputTriggerSource)
{
 8004562:	b480      	push	{r7}
 8004564:	b085      	sub	sp, #20
 8004566:	af00      	add	r7, sp, #0
 8004568:	6078      	str	r0, [r7, #4]
 800456a:	6039      	str	r1, [r7, #0]
  uint32_t tmpsmcr;

  /* Get the TIMx SMCR register value */
  tmpsmcr = TIMx->SMCR;
 800456c:	687b      	ldr	r3, [r7, #4]
 800456e:	689b      	ldr	r3, [r3, #8]
 8004570:	60fb      	str	r3, [r7, #12]
  /* Reset the TS Bits */
  tmpsmcr &= ~TIM_SMCR_TS;
 8004572:	68fb      	ldr	r3, [r7, #12]
 8004574:	f023 0370 	bic.w	r3, r3, #112	; 0x70
 8004578:	60fb      	str	r3, [r7, #12]
  /* Set the Input Trigger source and the slave mode*/
  tmpsmcr |= (InputTriggerSource | TIM_SLAVEMODE_EXTERNAL1);
 800457a:	683a      	ldr	r2, [r7, #0]
 800457c:	68fb      	ldr	r3, [r7, #12]
 800457e:	4313      	orrs	r3, r2
 8004580:	f043 0307 	orr.w	r3, r3, #7
 8004584:	60fb      	str	r3, [r7, #12]
  /* Write to TIMx SMCR */
  TIMx->SMCR = tmpsmcr;
 8004586:	687b      	ldr	r3, [r7, #4]
 8004588:	68fa      	ldr	r2, [r7, #12]
 800458a:	609a      	str	r2, [r3, #8]
}
 800458c:	bf00      	nop
 800458e:	3714      	adds	r7, #20
 8004590:	46bd      	mov	sp, r7
 8004592:	f85d 7b04 	ldr.w	r7, [sp], #4
 8004596:	4770      	bx	lr

08004598 <TIM_ETR_SetConfig>:
  *          This parameter must be a value between 0x00 and 0x0F
  * @retval None
  */
void TIM_ETR_SetConfig(TIM_TypeDef *TIMx, uint32_t TIM_ExtTRGPrescaler,
                       uint32_t TIM_ExtTRGPolarity, uint32_t ExtTRGFilter)
{
 8004598:	b480      	push	{r7}
 800459a:	b087      	sub	sp, #28
 800459c:	af00      	add	r7, sp, #0
 800459e:	60f8      	str	r0, [r7, #12]
 80045a0:	60b9      	str	r1, [r7, #8]
 80045a2:	607a      	str	r2, [r7, #4]
 80045a4:	603b      	str	r3, [r7, #0]
  uint32_t tmpsmcr;

  tmpsmcr = TIMx->SMCR;
 80045a6:	68fb      	ldr	r3, [r7, #12]
 80045a8:	689b      	ldr	r3, [r3, #8]
 80045aa:	617b      	str	r3, [r7, #20]

  /* Reset the ETR Bits */
  tmpsmcr &= ~(TIM_SMCR_ETF | TIM_SMCR_ETPS | TIM_SMCR_ECE | TIM_SMCR_ETP);
 80045ac:	697b      	ldr	r3, [r7, #20]
 80045ae:	f423 437f 	bic.w	r3, r3, #65280	; 0xff00
 80045b2:	617b      	str	r3, [r7, #20]

  /* Set the Prescaler, the Filter value and the Polarity */
  tmpsmcr |= (uint32_t)(TIM_ExtTRGPrescaler | (TIM_ExtTRGPolarity | (ExtTRGFilter << 8U)));
 80045b4:	683b      	ldr	r3, [r7, #0]
 80045b6:	021a      	lsls	r2, r3, #8
 80045b8:	687b      	ldr	r3, [r7, #4]
 80045ba:	431a      	orrs	r2, r3
 80045bc:	68bb      	ldr	r3, [r7, #8]
 80045be:	4313      	orrs	r3, r2
 80045c0:	697a      	ldr	r2, [r7, #20]
 80045c2:	4313      	orrs	r3, r2
 80045c4:	617b      	str	r3, [r7, #20]

  /* Write to TIMx SMCR */
  TIMx->SMCR = tmpsmcr;
 80045c6:	68fb      	ldr	r3, [r7, #12]
 80045c8:	697a      	ldr	r2, [r7, #20]
 80045ca:	609a      	str	r2, [r3, #8]
}
 80045cc:	bf00      	nop
 80045ce:	371c      	adds	r7, #28
 80045d0:	46bd      	mov	sp, r7
 80045d2:	f85d 7b04 	ldr.w	r7, [sp], #4
 80045d6:	4770      	bx	lr

080045d8 <TIM_CCxChannelCmd>:
  * @param  ChannelState specifies the TIM Channel CCxE bit new state.
  *          This parameter can be: TIM_CCx_ENABLE or TIM_CCx_DISABLE.
  * @retval None
  */
void TIM_CCxChannelCmd(TIM_TypeDef *TIMx, uint32_t Channel, uint32_t ChannelState)
{
 80045d8:	b480      	push	{r7}
 80045da:	b087      	sub	sp, #28
 80045dc:	af00      	add	r7, sp, #0
 80045de:	60f8      	str	r0, [r7, #12]
 80045e0:	60b9      	str	r1, [r7, #8]
 80045e2:	607a      	str	r2, [r7, #4]

  /* Check the parameters */
  assert_param(IS_TIM_CC1_INSTANCE(TIMx));
  assert_param(IS_TIM_CHANNELS(Channel));

  tmp = TIM_CCER_CC1E << (Channel & 0x1FU); /* 0x1FU = 31 bits max shift */
 80045e4:	68bb      	ldr	r3, [r7, #8]
 80045e6:	f003 031f 	and.w	r3, r3, #31
 80045ea:	2201      	movs	r2, #1
 80045ec:	fa02 f303 	lsl.w	r3, r2, r3
 80045f0:	617b      	str	r3, [r7, #20]

  /* Reset the CCxE Bit */
  TIMx->CCER &= ~tmp;
 80045f2:	68fb      	ldr	r3, [r7, #12]
 80045f4:	6a1a      	ldr	r2, [r3, #32]
 80045f6:	697b      	ldr	r3, [r7, #20]
 80045f8:	43db      	mvns	r3, r3
 80045fa:	401a      	ands	r2, r3
 80045fc:	68fb      	ldr	r3, [r7, #12]
 80045fe:	621a      	str	r2, [r3, #32]

  /* Set or reset the CCxE Bit */
  TIMx->CCER |= (uint32_t)(ChannelState << (Channel & 0x1FU)); /* 0x1FU = 31 bits max shift */
 8004600:	68fb      	ldr	r3, [r7, #12]
 8004602:	6a1a      	ldr	r2, [r3, #32]
 8004604:	68bb      	ldr	r3, [r7, #8]
 8004606:	f003 031f 	and.w	r3, r3, #31
 800460a:	6879      	ldr	r1, [r7, #4]
 800460c:	fa01 f303 	lsl.w	r3, r1, r3
 8004610:	431a      	orrs	r2, r3
 8004612:	68fb      	ldr	r3, [r7, #12]
 8004614:	621a      	str	r2, [r3, #32]
}
 8004616:	bf00      	nop
 8004618:	371c      	adds	r7, #28
 800461a:	46bd      	mov	sp, r7
 800461c:	f85d 7b04 	ldr.w	r7, [sp], #4
 8004620:	4770      	bx	lr
	...

08004624 <HAL_TIMEx_MasterConfigSynchronization>:
  *         mode.
  * @retval HAL status
  */
HAL_StatusTypeDef HAL_TIMEx_MasterConfigSynchronization(TIM_HandleTypeDef *htim,
                                                        TIM_MasterConfigTypeDef *sMasterConfig)
{
 8004624:	b480      	push	{r7}
 8004626:	b085      	sub	sp, #20
 8004628:	af00      	add	r7, sp, #0
 800462a:	6078      	str	r0, [r7, #4]
 800462c:	6039      	str	r1, [r7, #0]
  assert_param(IS_TIM_MASTER_INSTANCE(htim->Instance));
  assert_param(IS_TIM_TRGO_SOURCE(sMasterConfig->MasterOutputTrigger));
  assert_param(IS_TIM_MSM_STATE(sMasterConfig->MasterSlaveMode));

  /* Check input state */
  __HAL_LOCK(htim);
 800462e:	687b      	ldr	r3, [r7, #4]
 8004630:	f893 303c 	ldrb.w	r3, [r3, #60]	; 0x3c
 8004634:	2b01      	cmp	r3, #1
 8004636:	d101      	bne.n	800463c <HAL_TIMEx_MasterConfigSynchronization+0x18>
 8004638:	2302      	movs	r3, #2
 800463a:	e050      	b.n	80046de <HAL_TIMEx_MasterConfigSynchronization+0xba>
 800463c:	687b      	ldr	r3, [r7, #4]
 800463e:	2201      	movs	r2, #1
 8004640:	f883 203c 	strb.w	r2, [r3, #60]	; 0x3c

  /* Change the handler state */
  htim->State = HAL_TIM_STATE_BUSY;
 8004644:	687b      	ldr	r3, [r7, #4]
 8004646:	2202      	movs	r2, #2
 8004648:	f883 203d 	strb.w	r2, [r3, #61]	; 0x3d

  /* Get the TIMx CR2 register value */
  tmpcr2 = htim->Instance->CR2;
 800464c:	687b      	ldr	r3, [r7, #4]
 800464e:	681b      	ldr	r3, [r3, #0]
 8004650:	685b      	ldr	r3, [r3, #4]
 8004652:	60fb      	str	r3, [r7, #12]

  /* Get the TIMx SMCR register value */
  tmpsmcr = htim->Instance->SMCR;
 8004654:	687b      	ldr	r3, [r7, #4]
 8004656:	681b      	ldr	r3, [r3, #0]
 8004658:	689b      	ldr	r3, [r3, #8]
 800465a:	60bb      	str	r3, [r7, #8]

  /* Reset the MMS Bits */
  tmpcr2 &= ~TIM_CR2_MMS;
 800465c:	68fb      	ldr	r3, [r7, #12]
 800465e:	f023 0370 	bic.w	r3, r3, #112	; 0x70
 8004662:	60fb      	str	r3, [r7, #12]
  /* Select the TRGO source */
  tmpcr2 |=  sMasterConfig->MasterOutputTrigger;
 8004664:	683b      	ldr	r3, [r7, #0]
 8004666:	681b      	ldr	r3, [r3, #0]
 8004668:	68fa      	ldr	r2, [r7, #12]
 800466a:	4313      	orrs	r3, r2
 800466c:	60fb      	str	r3, [r7, #12]

  /* Update TIMx CR2 */
  htim->Instance->CR2 = tmpcr2;
 800466e:	687b      	ldr	r3, [r7, #4]
 8004670:	681b      	ldr	r3, [r3, #0]
 8004672:	68fa      	ldr	r2, [r7, #12]
 8004674:	605a      	str	r2, [r3, #4]

  if (IS_TIM_SLAVE_INSTANCE(htim->Instance))
 8004676:	687b      	ldr	r3, [r7, #4]
 8004678:	681b      	ldr	r3, [r3, #0]
 800467a:	4a1c      	ldr	r2, [pc, #112]	; (80046ec <HAL_TIMEx_MasterConfigSynchronization+0xc8>)
 800467c:	4293      	cmp	r3, r2
 800467e:	d018      	beq.n	80046b2 <HAL_TIMEx_MasterConfigSynchronization+0x8e>
 8004680:	687b      	ldr	r3, [r7, #4]
 8004682:	681b      	ldr	r3, [r3, #0]
 8004684:	f1b3 4f80 	cmp.w	r3, #1073741824	; 0x40000000
 8004688:	d013      	beq.n	80046b2 <HAL_TIMEx_MasterConfigSynchronization+0x8e>
 800468a:	687b      	ldr	r3, [r7, #4]
 800468c:	681b      	ldr	r3, [r3, #0]
 800468e:	4a18      	ldr	r2, [pc, #96]	; (80046f0 <HAL_TIMEx_MasterConfigSynchronization+0xcc>)
 8004690:	4293      	cmp	r3, r2
 8004692:	d00e      	beq.n	80046b2 <HAL_TIMEx_MasterConfigSynchronization+0x8e>
 8004694:	687b      	ldr	r3, [r7, #4]
 8004696:	681b      	ldr	r3, [r3, #0]
 8004698:	4a16      	ldr	r2, [pc, #88]	; (80046f4 <HAL_TIMEx_MasterConfigSynchronization+0xd0>)
 800469a:	4293      	cmp	r3, r2
 800469c:	d009      	beq.n	80046b2 <HAL_TIMEx_MasterConfigSynchronization+0x8e>
 800469e:	687b      	ldr	r3, [r7, #4]
 80046a0:	681b      	ldr	r3, [r3, #0]
 80046a2:	4a15      	ldr	r2, [pc, #84]	; (80046f8 <HAL_TIMEx_MasterConfigSynchronization+0xd4>)
 80046a4:	4293      	cmp	r3, r2
 80046a6:	d004      	beq.n	80046b2 <HAL_TIMEx_MasterConfigSynchronization+0x8e>
 80046a8:	687b      	ldr	r3, [r7, #4]
 80046aa:	681b      	ldr	r3, [r3, #0]
 80046ac:	4a13      	ldr	r2, [pc, #76]	; (80046fc <HAL_TIMEx_MasterConfigSynchronization+0xd8>)
 80046ae:	4293      	cmp	r3, r2
 80046b0:	d10c      	bne.n	80046cc <HAL_TIMEx_MasterConfigSynchronization+0xa8>
  {
    /* Reset the MSM Bit */
    tmpsmcr &= ~TIM_SMCR_MSM;
 80046b2:	68bb      	ldr	r3, [r7, #8]
 80046b4:	f023 0380 	bic.w	r3, r3, #128	; 0x80
 80046b8:	60bb      	str	r3, [r7, #8]
    /* Set master mode */
    tmpsmcr |= sMasterConfig->MasterSlaveMode;
 80046ba:	683b      	ldr	r3, [r7, #0]
 80046bc:	685b      	ldr	r3, [r3, #4]
 80046be:	68ba      	ldr	r2, [r7, #8]
 80046c0:	4313      	orrs	r3, r2
 80046c2:	60bb      	str	r3, [r7, #8]

    /* Update TIMx SMCR */
    htim->Instance->SMCR = tmpsmcr;
 80046c4:	687b      	ldr	r3, [r7, #4]
 80046c6:	681b      	ldr	r3, [r3, #0]
 80046c8:	68ba      	ldr	r2, [r7, #8]
 80046ca:	609a      	str	r2, [r3, #8]
  }

  /* Change the htim state */
  htim->State = HAL_TIM_STATE_READY;
 80046cc:	687b      	ldr	r3, [r7, #4]
 80046ce:	2201      	movs	r2, #1
 80046d0:	f883 203d 	strb.w	r2, [r3, #61]	; 0x3d

  __HAL_UNLOCK(htim);
 80046d4:	687b      	ldr	r3, [r7, #4]
 80046d6:	2200      	movs	r2, #0
 80046d8:	f883 203c 	strb.w	r2, [r3, #60]	; 0x3c

  return HAL_OK;
 80046dc:	2300      	movs	r3, #0
}
 80046de:	4618      	mov	r0, r3
 80046e0:	3714      	adds	r7, #20
 80046e2:	46bd      	mov	sp, r7
 80046e4:	f85d 7b04 	ldr.w	r7, [sp], #4
 80046e8:	4770      	bx	lr
 80046ea:	bf00      	nop
 80046ec:	40010000 	.word	0x40010000
 80046f0:	40000400 	.word	0x40000400
 80046f4:	40000800 	.word	0x40000800
 80046f8:	40000c00 	.word	0x40000c00
 80046fc:	40014000 	.word	0x40014000

08004700 <HAL_TIMEx_CommutCallback>:
  * @brief  Hall commutation changed callback in non-blocking mode
  * @param  htim TIM handle
  * @retval None
  */
__weak void HAL_TIMEx_CommutCallback(TIM_HandleTypeDef *htim)
{
 8004700:	b480      	push	{r7}
 8004702:	b083      	sub	sp, #12
 8004704:	af00      	add	r7, sp, #0
 8004706:	6078      	str	r0, [r7, #4]
  UNUSED(htim);

  /* NOTE : This function should not be modified, when the callback is needed,
            the HAL_TIMEx_CommutCallback could be implemented in the user file
   */
}
 8004708:	bf00      	nop
 800470a:	370c      	adds	r7, #12
 800470c:	46bd      	mov	sp, r7
 800470e:	f85d 7b04 	ldr.w	r7, [sp], #4
 8004712:	4770      	bx	lr

08004714 <HAL_TIMEx_BreakCallback>:
  * @brief  Hall Break detection callback in non-blocking mode
  * @param  htim TIM handle
  * @retval None
  */
__weak void HAL_TIMEx_BreakCallback(TIM_HandleTypeDef *htim)
{
 8004714:	b480      	push	{r7}
 8004716:	b083      	sub	sp, #12
 8004718:	af00      	add	r7, sp, #0
 800471a:	6078      	str	r0, [r7, #4]
  UNUSED(htim);

  /* NOTE : This function should not be modified, when the callback is needed,
            the HAL_TIMEx_BreakCallback could be implemented in the user file
   */
}
 800471c:	bf00      	nop
 800471e:	370c      	adds	r7, #12
 8004720:	46bd      	mov	sp, r7
 8004722:	f85d 7b04 	ldr.w	r7, [sp], #4
 8004726:	4770      	bx	lr

08004728 <HAL_UART_Init>:
  * @param  huart  Pointer to a UART_HandleTypeDef structure that contains
  *                the configuration information for the specified UART module.
  * @retval HAL status
  */
HAL_StatusTypeDef HAL_UART_Init(UART_HandleTypeDef *huart)
{
 8004728:	b580      	push	{r7, lr}
 800472a:	b082      	sub	sp, #8
 800472c:	af00      	add	r7, sp, #0
 800472e:	6078      	str	r0, [r7, #4]
  /* Check the UART handle allocation */
  if (huart == NULL)
 8004730:	687b      	ldr	r3, [r7, #4]
 8004732:	2b00      	cmp	r3, #0
 8004734:	d101      	bne.n	800473a <HAL_UART_Init+0x12>
  {
    return HAL_ERROR;
 8004736:	2301      	movs	r3, #1
 8004738:	e03f      	b.n	80047ba <HAL_UART_Init+0x92>
    assert_param(IS_UART_INSTANCE(huart->Instance));
  }
  assert_param(IS_UART_WORD_LENGTH(huart->Init.WordLength));
  assert_param(IS_UART_OVERSAMPLING(huart->Init.OverSampling));

  if (huart->gState == HAL_UART_STATE_RESET)
 800473a:	687b      	ldr	r3, [r7, #4]
 800473c:	f893 303d 	ldrb.w	r3, [r3, #61]	; 0x3d
 8004740:	b2db      	uxtb	r3, r3
 8004742:	2b00      	cmp	r3, #0
 8004744:	d106      	bne.n	8004754 <HAL_UART_Init+0x2c>
  {
    /* Allocate lock resource and initialize it */
    huart->Lock = HAL_UNLOCKED;
 8004746:	687b      	ldr	r3, [r7, #4]
 8004748:	2200      	movs	r2, #0
 800474a:	f883 203c 	strb.w	r2, [r3, #60]	; 0x3c

    /* Init the low level hardware */
    huart->MspInitCallback(huart);
#else
    /* Init the low level hardware : GPIO, CLOCK */
    HAL_UART_MspInit(huart);
 800474e:	6878      	ldr	r0, [r7, #4]
 8004750:	f7fd f8ca 	bl	80018e8 <HAL_UART_MspInit>
#endif /* (USE_HAL_UART_REGISTER_CALLBACKS) */
  }

  huart->gState = HAL_UART_STATE_BUSY;
 8004754:	687b      	ldr	r3, [r7, #4]
 8004756:	2224      	movs	r2, #36	; 0x24
 8004758:	f883 203d 	strb.w	r2, [r3, #61]	; 0x3d

  /* Disable the peripheral */
  __HAL_UART_DISABLE(huart);
 800475c:	687b      	ldr	r3, [r7, #4]
 800475e:	681b      	ldr	r3, [r3, #0]
 8004760:	68da      	ldr	r2, [r3, #12]
 8004762:	687b      	ldr	r3, [r7, #4]
 8004764:	681b      	ldr	r3, [r3, #0]
 8004766:	f422 5200 	bic.w	r2, r2, #8192	; 0x2000
 800476a:	60da      	str	r2, [r3, #12]

  /* Set the UART Communication parameters */
  UART_SetConfig(huart);
 800476c:	6878      	ldr	r0, [r7, #4]
 800476e:	f000 f929 	bl	80049c4 <UART_SetConfig>

  /* In asynchronous mode, the following bits must be kept cleared:
     - LINEN and CLKEN bits in the USART_CR2 register,
     - SCEN, HDSEL and IREN  bits in the USART_CR3 register.*/
  CLEAR_BIT(huart->Instance->CR2, (USART_CR2_LINEN | USART_CR2_CLKEN));
 8004772:	687b      	ldr	r3, [r7, #4]
 8004774:	681b      	ldr	r3, [r3, #0]
 8004776:	691a      	ldr	r2, [r3, #16]
 8004778:	687b      	ldr	r3, [r7, #4]
 800477a:	681b      	ldr	r3, [r3, #0]
 800477c:	f422 4290 	bic.w	r2, r2, #18432	; 0x4800
 8004780:	611a      	str	r2, [r3, #16]
  CLEAR_BIT(huart->Instance->CR3, (USART_CR3_SCEN | USART_CR3_HDSEL | USART_CR3_IREN));
 8004782:	687b      	ldr	r3, [r7, #4]
 8004784:	681b      	ldr	r3, [r3, #0]
 8004786:	695a      	ldr	r2, [r3, #20]
 8004788:	687b      	ldr	r3, [r7, #4]
 800478a:	681b      	ldr	r3, [r3, #0]
 800478c:	f022 022a 	bic.w	r2, r2, #42	; 0x2a
 8004790:	615a      	str	r2, [r3, #20]

  /* Enable the peripheral */
  __HAL_UART_ENABLE(huart);
 8004792:	687b      	ldr	r3, [r7, #4]
 8004794:	681b      	ldr	r3, [r3, #0]
 8004796:	68da      	ldr	r2, [r3, #12]
 8004798:	687b      	ldr	r3, [r7, #4]
 800479a:	681b      	ldr	r3, [r3, #0]
 800479c:	f442 5200 	orr.w	r2, r2, #8192	; 0x2000
 80047a0:	60da      	str	r2, [r3, #12]

  /* Initialize the UART state */
  huart->ErrorCode = HAL_UART_ERROR_NONE;
 80047a2:	687b      	ldr	r3, [r7, #4]
 80047a4:	2200      	movs	r2, #0
 80047a6:	641a      	str	r2, [r3, #64]	; 0x40
  huart->gState = HAL_UART_STATE_READY;
 80047a8:	687b      	ldr	r3, [r7, #4]
 80047aa:	2220      	movs	r2, #32
 80047ac:	f883 203d 	strb.w	r2, [r3, #61]	; 0x3d
  huart->RxState = HAL_UART_STATE_READY;
 80047b0:	687b      	ldr	r3, [r7, #4]
 80047b2:	2220      	movs	r2, #32
 80047b4:	f883 203e 	strb.w	r2, [r3, #62]	; 0x3e

  return HAL_OK;
 80047b8:	2300      	movs	r3, #0
}
 80047ba:	4618      	mov	r0, r3
 80047bc:	3708      	adds	r7, #8
 80047be:	46bd      	mov	sp, r7
 80047c0:	bd80      	pop	{r7, pc}

080047c2 <HAL_UART_Transmit>:
  * @param  Size  Amount of data elements (u8 or u16) to be sent
  * @param  Timeout Timeout duration
  * @retval HAL status
  */
HAL_StatusTypeDef HAL_UART_Transmit(UART_HandleTypeDef *huart, uint8_t *pData, uint16_t Size, uint32_t Timeout)
{
 80047c2:	b580      	push	{r7, lr}
 80047c4:	b08a      	sub	sp, #40	; 0x28
 80047c6:	af02      	add	r7, sp, #8
 80047c8:	60f8      	str	r0, [r7, #12]
 80047ca:	60b9      	str	r1, [r7, #8]
 80047cc:	603b      	str	r3, [r7, #0]
 80047ce:	4613      	mov	r3, r2
 80047d0:	80fb      	strh	r3, [r7, #6]
  uint8_t  *pdata8bits;
  uint16_t *pdata16bits;
  uint32_t tickstart = 0U;
 80047d2:	2300      	movs	r3, #0
 80047d4:	617b      	str	r3, [r7, #20]

  /* Check that a Tx process is not already ongoing */
  if (huart->gState == HAL_UART_STATE_READY)
 80047d6:	68fb      	ldr	r3, [r7, #12]
 80047d8:	f893 303d 	ldrb.w	r3, [r3, #61]	; 0x3d
 80047dc:	b2db      	uxtb	r3, r3
 80047de:	2b20      	cmp	r3, #32
 80047e0:	d17c      	bne.n	80048dc <HAL_UART_Transmit+0x11a>
  {
    if ((pData == NULL) || (Size == 0U))
 80047e2:	68bb      	ldr	r3, [r7, #8]
 80047e4:	2b00      	cmp	r3, #0
 80047e6:	d002      	beq.n	80047ee <HAL_UART_Transmit+0x2c>
 80047e8:	88fb      	ldrh	r3, [r7, #6]
 80047ea:	2b00      	cmp	r3, #0
 80047ec:	d101      	bne.n	80047f2 <HAL_UART_Transmit+0x30>
    {
      return  HAL_ERROR;
 80047ee:	2301      	movs	r3, #1
 80047f0:	e075      	b.n	80048de <HAL_UART_Transmit+0x11c>
    }

    /* Process Locked */
    __HAL_LOCK(huart);
 80047f2:	68fb      	ldr	r3, [r7, #12]
 80047f4:	f893 303c 	ldrb.w	r3, [r3, #60]	; 0x3c
 80047f8:	2b01      	cmp	r3, #1
 80047fa:	d101      	bne.n	8004800 <HAL_UART_Transmit+0x3e>
 80047fc:	2302      	movs	r3, #2
 80047fe:	e06e      	b.n	80048de <HAL_UART_Transmit+0x11c>
 8004800:	68fb      	ldr	r3, [r7, #12]
 8004802:	2201      	movs	r2, #1
 8004804:	f883 203c 	strb.w	r2, [r3, #60]	; 0x3c

    huart->ErrorCode = HAL_UART_ERROR_NONE;
 8004808:	68fb      	ldr	r3, [r7, #12]
 800480a:	2200      	movs	r2, #0
 800480c:	641a      	str	r2, [r3, #64]	; 0x40
    huart->gState = HAL_UART_STATE_BUSY_TX;
 800480e:	68fb      	ldr	r3, [r7, #12]
 8004810:	2221      	movs	r2, #33	; 0x21
 8004812:	f883 203d 	strb.w	r2, [r3, #61]	; 0x3d

    /* Init tickstart for timeout management */
    tickstart = HAL_GetTick();
 8004816:	f7fd fa67 	bl	8001ce8 <HAL_GetTick>
 800481a:	6178      	str	r0, [r7, #20]

    huart->TxXferSize = Size;
 800481c:	68fb      	ldr	r3, [r7, #12]
 800481e:	88fa      	ldrh	r2, [r7, #6]
 8004820:	849a      	strh	r2, [r3, #36]	; 0x24
    huart->TxXferCount = Size;
 8004822:	68fb      	ldr	r3, [r7, #12]
 8004824:	88fa      	ldrh	r2, [r7, #6]
 8004826:	84da      	strh	r2, [r3, #38]	; 0x26

    /* In case of 9bits/No Parity transfer, pData needs to be handled as a uint16_t pointer */
    if ((huart->Init.WordLength == UART_WORDLENGTH_9B) && (huart->Init.Parity == UART_PARITY_NONE))
 8004828:	68fb      	ldr	r3, [r7, #12]
 800482a:	689b      	ldr	r3, [r3, #8]
 800482c:	f5b3 5f80 	cmp.w	r3, #4096	; 0x1000
 8004830:	d108      	bne.n	8004844 <HAL_UART_Transmit+0x82>
 8004832:	68fb      	ldr	r3, [r7, #12]
 8004834:	691b      	ldr	r3, [r3, #16]
 8004836:	2b00      	cmp	r3, #0
 8004838:	d104      	bne.n	8004844 <HAL_UART_Transmit+0x82>
    {
      pdata8bits  = NULL;
 800483a:	2300      	movs	r3, #0
 800483c:	61fb      	str	r3, [r7, #28]
      pdata16bits = (uint16_t *) pData;
 800483e:	68bb      	ldr	r3, [r7, #8]
 8004840:	61bb      	str	r3, [r7, #24]
 8004842:	e003      	b.n	800484c <HAL_UART_Transmit+0x8a>
    }
    else
    {
      pdata8bits  = pData;
 8004844:	68bb      	ldr	r3, [r7, #8]
 8004846:	61fb      	str	r3, [r7, #28]
      pdata16bits = NULL;
 8004848:	2300      	movs	r3, #0
 800484a:	61bb      	str	r3, [r7, #24]
    }

    /* Process Unlocked */
    __HAL_UNLOCK(huart);
 800484c:	68fb      	ldr	r3, [r7, #12]
 800484e:	2200      	movs	r2, #0
 8004850:	f883 203c 	strb.w	r2, [r3, #60]	; 0x3c

    while (huart->TxXferCount > 0U)
 8004854:	e02a      	b.n	80048ac <HAL_UART_Transmit+0xea>
    {
      if (UART_WaitOnFlagUntilTimeout(huart, UART_FLAG_TXE, RESET, tickstart, Timeout) != HAL_OK)
 8004856:	683b      	ldr	r3, [r7, #0]
 8004858:	9300      	str	r3, [sp, #0]
 800485a:	697b      	ldr	r3, [r7, #20]
 800485c:	2200      	movs	r2, #0
 800485e:	2180      	movs	r1, #128	; 0x80
 8004860:	68f8      	ldr	r0, [r7, #12]
 8004862:	f000 f840 	bl	80048e6 <UART_WaitOnFlagUntilTimeout>
 8004866:	4603      	mov	r3, r0
 8004868:	2b00      	cmp	r3, #0
 800486a:	d001      	beq.n	8004870 <HAL_UART_Transmit+0xae>
      {
        return HAL_TIMEOUT;
 800486c:	2303      	movs	r3, #3
 800486e:	e036      	b.n	80048de <HAL_UART_Transmit+0x11c>
      }
      if (pdata8bits == NULL)
 8004870:	69fb      	ldr	r3, [r7, #28]
 8004872:	2b00      	cmp	r3, #0
 8004874:	d10b      	bne.n	800488e <HAL_UART_Transmit+0xcc>
      {
        huart->Instance->DR = (uint16_t)(*pdata16bits & 0x01FFU);
 8004876:	69bb      	ldr	r3, [r7, #24]
 8004878:	881b      	ldrh	r3, [r3, #0]
 800487a:	461a      	mov	r2, r3
 800487c:	68fb      	ldr	r3, [r7, #12]
 800487e:	681b      	ldr	r3, [r3, #0]
 8004880:	f3c2 0208 	ubfx	r2, r2, #0, #9
 8004884:	605a      	str	r2, [r3, #4]
        pdata16bits++;
 8004886:	69bb      	ldr	r3, [r7, #24]
 8004888:	3302      	adds	r3, #2
 800488a:	61bb      	str	r3, [r7, #24]
 800488c:	e007      	b.n	800489e <HAL_UART_Transmit+0xdc>
      }
      else
      {
        huart->Instance->DR = (uint8_t)(*pdata8bits & 0xFFU);
 800488e:	69fb      	ldr	r3, [r7, #28]
 8004890:	781a      	ldrb	r2, [r3, #0]
 8004892:	68fb      	ldr	r3, [r7, #12]
 8004894:	681b      	ldr	r3, [r3, #0]
 8004896:	605a      	str	r2, [r3, #4]
        pdata8bits++;
 8004898:	69fb      	ldr	r3, [r7, #28]
 800489a:	3301      	adds	r3, #1
 800489c:	61fb      	str	r3, [r7, #28]
      }
      huart->TxXferCount--;
 800489e:	68fb      	ldr	r3, [r7, #12]
 80048a0:	8cdb      	ldrh	r3, [r3, #38]	; 0x26
 80048a2:	b29b      	uxth	r3, r3
 80048a4:	3b01      	subs	r3, #1
 80048a6:	b29a      	uxth	r2, r3
 80048a8:	68fb      	ldr	r3, [r7, #12]
 80048aa:	84da      	strh	r2, [r3, #38]	; 0x26
    while (huart->TxXferCount > 0U)
 80048ac:	68fb      	ldr	r3, [r7, #12]
 80048ae:	8cdb      	ldrh	r3, [r3, #38]	; 0x26
 80048b0:	b29b      	uxth	r3, r3
 80048b2:	2b00      	cmp	r3, #0
 80048b4:	d1cf      	bne.n	8004856 <HAL_UART_Transmit+0x94>
    }

    if (UART_WaitOnFlagUntilTimeout(huart, UART_FLAG_TC, RESET, tickstart, Timeout) != HAL_OK)
 80048b6:	683b      	ldr	r3, [r7, #0]
 80048b8:	9300      	str	r3, [sp, #0]
 80048ba:	697b      	ldr	r3, [r7, #20]
 80048bc:	2200      	movs	r2, #0
 80048be:	2140      	movs	r1, #64	; 0x40
 80048c0:	68f8      	ldr	r0, [r7, #12]
 80048c2:	f000 f810 	bl	80048e6 <UART_WaitOnFlagUntilTimeout>
 80048c6:	4603      	mov	r3, r0
 80048c8:	2b00      	cmp	r3, #0
 80048ca:	d001      	beq.n	80048d0 <HAL_UART_Transmit+0x10e>
    {
      return HAL_TIMEOUT;
 80048cc:	2303      	movs	r3, #3
 80048ce:	e006      	b.n	80048de <HAL_UART_Transmit+0x11c>
    }

    /* At end of Tx process, restore huart->gState to Ready */
    huart->gState = HAL_UART_STATE_READY;
 80048d0:	68fb      	ldr	r3, [r7, #12]
 80048d2:	2220      	movs	r2, #32
 80048d4:	f883 203d 	strb.w	r2, [r3, #61]	; 0x3d

    return HAL_OK;
 80048d8:	2300      	movs	r3, #0
 80048da:	e000      	b.n	80048de <HAL_UART_Transmit+0x11c>
  }
  else
  {
    return HAL_BUSY;
 80048dc:	2302      	movs	r3, #2
  }
}
 80048de:	4618      	mov	r0, r3
 80048e0:	3720      	adds	r7, #32
 80048e2:	46bd      	mov	sp, r7
 80048e4:	bd80      	pop	{r7, pc}

080048e6 <UART_WaitOnFlagUntilTimeout>:
  * @param  Timeout Timeout duration
  * @retval HAL status
  */
static HAL_StatusTypeDef UART_WaitOnFlagUntilTimeout(UART_HandleTypeDef *huart, uint32_t Flag, FlagStatus Status,
                                                     uint32_t Tickstart, uint32_t Timeout)
{
 80048e6:	b580      	push	{r7, lr}
 80048e8:	b090      	sub	sp, #64	; 0x40
 80048ea:	af00      	add	r7, sp, #0
 80048ec:	60f8      	str	r0, [r7, #12]
 80048ee:	60b9      	str	r1, [r7, #8]
 80048f0:	603b      	str	r3, [r7, #0]
 80048f2:	4613      	mov	r3, r2
 80048f4:	71fb      	strb	r3, [r7, #7]
  /* Wait until flag is set */
  while ((__HAL_UART_GET_FLAG(huart, Flag) ? SET : RESET) == Status)
 80048f6:	e050      	b.n	800499a <UART_WaitOnFlagUntilTimeout+0xb4>
  {
    /* Check for the Timeout */
    if (Timeout != HAL_MAX_DELAY)
 80048f8:	6cbb      	ldr	r3, [r7, #72]	; 0x48
 80048fa:	f1b3 3fff 	cmp.w	r3, #4294967295
 80048fe:	d04c      	beq.n	800499a <UART_WaitOnFlagUntilTimeout+0xb4>
    {
      if ((Timeout == 0U) || ((HAL_GetTick() - Tickstart) > Timeout))
 8004900:	6cbb      	ldr	r3, [r7, #72]	; 0x48
 8004902:	2b00      	cmp	r3, #0
 8004904:	d007      	beq.n	8004916 <UART_WaitOnFlagUntilTimeout+0x30>
 8004906:	f7fd f9ef 	bl	8001ce8 <HAL_GetTick>
 800490a:	4602      	mov	r2, r0
 800490c:	683b      	ldr	r3, [r7, #0]
 800490e:	1ad3      	subs	r3, r2, r3
 8004910:	6cba      	ldr	r2, [r7, #72]	; 0x48
 8004912:	429a      	cmp	r2, r3
 8004914:	d241      	bcs.n	800499a <UART_WaitOnFlagUntilTimeout+0xb4>
      {
        /* Disable TXE, RXNE, PE and ERR (Frame error, noise error, overrun error) interrupts for the interrupt process */
        ATOMIC_CLEAR_BIT(huart->Instance->CR1, (USART_CR1_RXNEIE | USART_CR1_PEIE | USART_CR1_TXEIE));
 8004916:	68fb      	ldr	r3, [r7, #12]
 8004918:	681b      	ldr	r3, [r3, #0]
 800491a:	330c      	adds	r3, #12
 800491c:	62bb      	str	r3, [r7, #40]	; 0x28
 */
__STATIC_FORCEINLINE uint32_t __LDREXW(volatile uint32_t *addr)
{
    uint32_t result;

   __ASM volatile ("ldrex %0, %1" : "=r" (result) : "Q" (*addr) );
 800491e:	6abb      	ldr	r3, [r7, #40]	; 0x28
 8004920:	e853 3f00 	ldrex	r3, [r3]
 8004924:	627b      	str	r3, [r7, #36]	; 0x24
   return(result);
 8004926:	6a7b      	ldr	r3, [r7, #36]	; 0x24
 8004928:	f423 73d0 	bic.w	r3, r3, #416	; 0x1a0
 800492c:	63fb      	str	r3, [r7, #60]	; 0x3c
 800492e:	68fb      	ldr	r3, [r7, #12]
 8004930:	681b      	ldr	r3, [r3, #0]
 8004932:	330c      	adds	r3, #12
 8004934:	6bfa      	ldr	r2, [r7, #60]	; 0x3c
 8004936:	637a      	str	r2, [r7, #52]	; 0x34
 8004938:	633b      	str	r3, [r7, #48]	; 0x30
 */
__STATIC_FORCEINLINE uint32_t __STREXW(uint32_t value, volatile uint32_t *addr)
{
   uint32_t result;

   __ASM volatile ("strex %0, %2, %1" : "=&r" (result), "=Q" (*addr) : "r" (value) );
 800493a:	6b39      	ldr	r1, [r7, #48]	; 0x30
 800493c:	6b7a      	ldr	r2, [r7, #52]	; 0x34
 800493e:	e841 2300 	strex	r3, r2, [r1]
 8004942:	62fb      	str	r3, [r7, #44]	; 0x2c
   return(result);
 8004944:	6afb      	ldr	r3, [r7, #44]	; 0x2c
 8004946:	2b00      	cmp	r3, #0
 8004948:	d1e5      	bne.n	8004916 <UART_WaitOnFlagUntilTimeout+0x30>
        ATOMIC_CLEAR_BIT(huart->Instance->CR3, USART_CR3_EIE);
 800494a:	68fb      	ldr	r3, [r7, #12]
 800494c:	681b      	ldr	r3, [r3, #0]
 800494e:	3314      	adds	r3, #20
 8004950:	617b      	str	r3, [r7, #20]
   __ASM volatile ("ldrex %0, %1" : "=r" (result) : "Q" (*addr) );
 8004952:	697b      	ldr	r3, [r7, #20]
 8004954:	e853 3f00 	ldrex	r3, [r3]
 8004958:	613b      	str	r3, [r7, #16]
   return(result);
 800495a:	693b      	ldr	r3, [r7, #16]
 800495c:	f023 0301 	bic.w	r3, r3, #1
 8004960:	63bb      	str	r3, [r7, #56]	; 0x38
 8004962:	68fb      	ldr	r3, [r7, #12]
 8004964:	681b      	ldr	r3, [r3, #0]
 8004966:	3314      	adds	r3, #20
 8004968:	6bba      	ldr	r2, [r7, #56]	; 0x38
 800496a:	623a      	str	r2, [r7, #32]
 800496c:	61fb      	str	r3, [r7, #28]
   __ASM volatile ("strex %0, %2, %1" : "=&r" (result), "=Q" (*addr) : "r" (value) );
 800496e:	69f9      	ldr	r1, [r7, #28]
 8004970:	6a3a      	ldr	r2, [r7, #32]
 8004972:	e841 2300 	strex	r3, r2, [r1]
 8004976:	61bb      	str	r3, [r7, #24]
   return(result);
 8004978:	69bb      	ldr	r3, [r7, #24]
 800497a:	2b00      	cmp	r3, #0
 800497c:	d1e5      	bne.n	800494a <UART_WaitOnFlagUntilTimeout+0x64>

        huart->gState  = HAL_UART_STATE_READY;
 800497e:	68fb      	ldr	r3, [r7, #12]
 8004980:	2220      	movs	r2, #32
 8004982:	f883 203d 	strb.w	r2, [r3, #61]	; 0x3d
        huart->RxState = HAL_UART_STATE_READY;
 8004986:	68fb      	ldr	r3, [r7, #12]
 8004988:	2220      	movs	r2, #32
 800498a:	f883 203e 	strb.w	r2, [r3, #62]	; 0x3e

        /* Process Unlocked */
        __HAL_UNLOCK(huart);
 800498e:	68fb      	ldr	r3, [r7, #12]
 8004990:	2200      	movs	r2, #0
 8004992:	f883 203c 	strb.w	r2, [r3, #60]	; 0x3c

        return HAL_TIMEOUT;
 8004996:	2303      	movs	r3, #3
 8004998:	e00f      	b.n	80049ba <UART_WaitOnFlagUntilTimeout+0xd4>
  while ((__HAL_UART_GET_FLAG(huart, Flag) ? SET : RESET) == Status)
 800499a:	68fb      	ldr	r3, [r7, #12]
 800499c:	681b      	ldr	r3, [r3, #0]
 800499e:	681a      	ldr	r2, [r3, #0]
 80049a0:	68bb      	ldr	r3, [r7, #8]
 80049a2:	4013      	ands	r3, r2
 80049a4:	68ba      	ldr	r2, [r7, #8]
 80049a6:	429a      	cmp	r2, r3
 80049a8:	bf0c      	ite	eq
 80049aa:	2301      	moveq	r3, #1
 80049ac:	2300      	movne	r3, #0
 80049ae:	b2db      	uxtb	r3, r3
 80049b0:	461a      	mov	r2, r3
 80049b2:	79fb      	ldrb	r3, [r7, #7]
 80049b4:	429a      	cmp	r2, r3
 80049b6:	d09f      	beq.n	80048f8 <UART_WaitOnFlagUntilTimeout+0x12>
      }
    }
  }
  return HAL_OK;
 80049b8:	2300      	movs	r3, #0
}
 80049ba:	4618      	mov	r0, r3
 80049bc:	3740      	adds	r7, #64	; 0x40
 80049be:	46bd      	mov	sp, r7
 80049c0:	bd80      	pop	{r7, pc}
	...

080049c4 <UART_SetConfig>:
  * @param  huart  Pointer to a UART_HandleTypeDef structure that contains
  *                the configuration information for the specified UART module.
  * @retval None
  */
static void UART_SetConfig(UART_HandleTypeDef *huart)
{
 80049c4:	e92d 4fb0 	stmdb	sp!, {r4, r5, r7, r8, r9, sl, fp, lr}
 80049c8:	b0c0      	sub	sp, #256	; 0x100
 80049ca:	af00      	add	r7, sp, #0
 80049cc:	f8c7 00f4 	str.w	r0, [r7, #244]	; 0xf4
  assert_param(IS_UART_MODE(huart->Init.Mode));

  /*-------------------------- USART CR2 Configuration -----------------------*/
  /* Configure the UART Stop Bits: Set STOP[13:12] bits
     according to huart->Init.StopBits value */
  MODIFY_REG(huart->Instance->CR2, USART_CR2_STOP, huart->Init.StopBits);
 80049d0:	f8d7 30f4 	ldr.w	r3, [r7, #244]	; 0xf4
 80049d4:	681b      	ldr	r3, [r3, #0]
 80049d6:	691b      	ldr	r3, [r3, #16]
 80049d8:	f423 5040 	bic.w	r0, r3, #12288	; 0x3000
 80049dc:	f8d7 30f4 	ldr.w	r3, [r7, #244]	; 0xf4
 80049e0:	68d9      	ldr	r1, [r3, #12]
 80049e2:	f8d7 30f4 	ldr.w	r3, [r7, #244]	; 0xf4
 80049e6:	681a      	ldr	r2, [r3, #0]
 80049e8:	ea40 0301 	orr.w	r3, r0, r1
 80049ec:	6113      	str	r3, [r2, #16]
     Set the M bits according to huart->Init.WordLength value
     Set PCE and PS bits according to huart->Init.Parity value
     Set TE and RE bits according to huart->Init.Mode value
     Set OVER8 bit according to huart->Init.OverSampling value */

  tmpreg = (uint32_t)huart->Init.WordLength | huart->Init.Parity | huart->Init.Mode | huart->Init.OverSampling;
 80049ee:	f8d7 30f4 	ldr.w	r3, [r7, #244]	; 0xf4
 80049f2:	689a      	ldr	r2, [r3, #8]
 80049f4:	f8d7 30f4 	ldr.w	r3, [r7, #244]	; 0xf4
 80049f8:	691b      	ldr	r3, [r3, #16]
 80049fa:	431a      	orrs	r2, r3
 80049fc:	f8d7 30f4 	ldr.w	r3, [r7, #244]	; 0xf4
 8004a00:	695b      	ldr	r3, [r3, #20]
 8004a02:	431a      	orrs	r2, r3
 8004a04:	f8d7 30f4 	ldr.w	r3, [r7, #244]	; 0xf4
 8004a08:	69db      	ldr	r3, [r3, #28]
 8004a0a:	4313      	orrs	r3, r2
 8004a0c:	f8c7 30f8 	str.w	r3, [r7, #248]	; 0xf8
  MODIFY_REG(huart->Instance->CR1,
 8004a10:	f8d7 30f4 	ldr.w	r3, [r7, #244]	; 0xf4
 8004a14:	681b      	ldr	r3, [r3, #0]
 8004a16:	68db      	ldr	r3, [r3, #12]
 8004a18:	f423 4116 	bic.w	r1, r3, #38400	; 0x9600
 8004a1c:	f021 010c 	bic.w	r1, r1, #12
 8004a20:	f8d7 30f4 	ldr.w	r3, [r7, #244]	; 0xf4
 8004a24:	681a      	ldr	r2, [r3, #0]
 8004a26:	f8d7 30f8 	ldr.w	r3, [r7, #248]	; 0xf8
 8004a2a:	430b      	orrs	r3, r1
 8004a2c:	60d3      	str	r3, [r2, #12]
             (uint32_t)(USART_CR1_M | USART_CR1_PCE | USART_CR1_PS | USART_CR1_TE | USART_CR1_RE | USART_CR1_OVER8),
             tmpreg);

  /*-------------------------- USART CR3 Configuration -----------------------*/
  /* Configure the UART HFC: Set CTSE and RTSE bits according to huart->Init.HwFlowCtl value */
  MODIFY_REG(huart->Instance->CR3, (USART_CR3_RTSE | USART_CR3_CTSE), huart->Init.HwFlowCtl);
 8004a2e:	f8d7 30f4 	ldr.w	r3, [r7, #244]	; 0xf4
 8004a32:	681b      	ldr	r3, [r3, #0]
 8004a34:	695b      	ldr	r3, [r3, #20]
 8004a36:	f423 7040 	bic.w	r0, r3, #768	; 0x300
 8004a3a:	f8d7 30f4 	ldr.w	r3, [r7, #244]	; 0xf4
 8004a3e:	6999      	ldr	r1, [r3, #24]
 8004a40:	f8d7 30f4 	ldr.w	r3, [r7, #244]	; 0xf4
 8004a44:	681a      	ldr	r2, [r3, #0]
 8004a46:	ea40 0301 	orr.w	r3, r0, r1
 8004a4a:	6153      	str	r3, [r2, #20]
    if ((huart->Instance == USART1) || (huart->Instance == USART6) || (huart->Instance == UART9) || (huart->Instance == UART10))
    {
      pclk = HAL_RCC_GetPCLK2Freq();
    }
#elif defined(USART6)
    if ((huart->Instance == USART1) || (huart->Instance == USART6))
 8004a4c:	f8d7 30f4 	ldr.w	r3, [r7, #244]	; 0xf4
 8004a50:	681a      	ldr	r2, [r3, #0]
 8004a52:	4b8f      	ldr	r3, [pc, #572]	; (8004c90 <UART_SetConfig+0x2cc>)
 8004a54:	429a      	cmp	r2, r3
 8004a56:	d005      	beq.n	8004a64 <UART_SetConfig+0xa0>
 8004a58:	f8d7 30f4 	ldr.w	r3, [r7, #244]	; 0xf4
 8004a5c:	681a      	ldr	r2, [r3, #0]
 8004a5e:	4b8d      	ldr	r3, [pc, #564]	; (8004c94 <UART_SetConfig+0x2d0>)
 8004a60:	429a      	cmp	r2, r3
 8004a62:	d104      	bne.n	8004a6e <UART_SetConfig+0xaa>
    {
      pclk = HAL_RCC_GetPCLK2Freq();
 8004a64:	f7fe f87c 	bl	8002b60 <HAL_RCC_GetPCLK2Freq>
 8004a68:	f8c7 00fc 	str.w	r0, [r7, #252]	; 0xfc
 8004a6c:	e003      	b.n	8004a76 <UART_SetConfig+0xb2>
      pclk = HAL_RCC_GetPCLK2Freq();
    }
#endif /* USART6 */
    else
    {
      pclk = HAL_RCC_GetPCLK1Freq();
 8004a6e:	f7fe f863 	bl	8002b38 <HAL_RCC_GetPCLK1Freq>
 8004a72:	f8c7 00fc 	str.w	r0, [r7, #252]	; 0xfc
    }
  /*-------------------------- USART BRR Configuration ---------------------*/
  if (huart->Init.OverSampling == UART_OVERSAMPLING_8)
 8004a76:	f8d7 30f4 	ldr.w	r3, [r7, #244]	; 0xf4
 8004a7a:	69db      	ldr	r3, [r3, #28]
 8004a7c:	f5b3 4f00 	cmp.w	r3, #32768	; 0x8000
 8004a80:	f040 810c 	bne.w	8004c9c <UART_SetConfig+0x2d8>
  {
    huart->Instance->BRR = UART_BRR_SAMPLING8(pclk, huart->Init.BaudRate);
 8004a84:	f8d7 30fc 	ldr.w	r3, [r7, #252]	; 0xfc
 8004a88:	2200      	movs	r2, #0
 8004a8a:	f8c7 30e8 	str.w	r3, [r7, #232]	; 0xe8
 8004a8e:	f8c7 20ec 	str.w	r2, [r7, #236]	; 0xec
 8004a92:	e9d7 453a 	ldrd	r4, r5, [r7, #232]	; 0xe8
 8004a96:	4622      	mov	r2, r4
 8004a98:	462b      	mov	r3, r5
 8004a9a:	1891      	adds	r1, r2, r2
 8004a9c:	65b9      	str	r1, [r7, #88]	; 0x58
 8004a9e:	415b      	adcs	r3, r3
 8004aa0:	65fb      	str	r3, [r7, #92]	; 0x5c
 8004aa2:	e9d7 2316 	ldrd	r2, r3, [r7, #88]	; 0x58
 8004aa6:	4621      	mov	r1, r4
 8004aa8:	eb12 0801 	adds.w	r8, r2, r1
 8004aac:	4629      	mov	r1, r5
 8004aae:	eb43 0901 	adc.w	r9, r3, r1
 8004ab2:	f04f 0200 	mov.w	r2, #0
 8004ab6:	f04f 0300 	mov.w	r3, #0
 8004aba:	ea4f 03c9 	mov.w	r3, r9, lsl #3
 8004abe:	ea43 7358 	orr.w	r3, r3, r8, lsr #29
 8004ac2:	ea4f 02c8 	mov.w	r2, r8, lsl #3
 8004ac6:	4690      	mov	r8, r2
 8004ac8:	4699      	mov	r9, r3
 8004aca:	4623      	mov	r3, r4
 8004acc:	eb18 0303 	adds.w	r3, r8, r3
 8004ad0:	f8c7 30e0 	str.w	r3, [r7, #224]	; 0xe0
 8004ad4:	462b      	mov	r3, r5
 8004ad6:	eb49 0303 	adc.w	r3, r9, r3
 8004ada:	f8c7 30e4 	str.w	r3, [r7, #228]	; 0xe4
 8004ade:	f8d7 30f4 	ldr.w	r3, [r7, #244]	; 0xf4
 8004ae2:	685b      	ldr	r3, [r3, #4]
 8004ae4:	2200      	movs	r2, #0
 8004ae6:	f8c7 30d8 	str.w	r3, [r7, #216]	; 0xd8
 8004aea:	f8c7 20dc 	str.w	r2, [r7, #220]	; 0xdc
 8004aee:	e9d7 1236 	ldrd	r1, r2, [r7, #216]	; 0xd8
 8004af2:	460b      	mov	r3, r1
 8004af4:	18db      	adds	r3, r3, r3
 8004af6:	653b      	str	r3, [r7, #80]	; 0x50
 8004af8:	4613      	mov	r3, r2
 8004afa:	eb42 0303 	adc.w	r3, r2, r3
 8004afe:	657b      	str	r3, [r7, #84]	; 0x54
 8004b00:	e9d7 2314 	ldrd	r2, r3, [r7, #80]	; 0x50
 8004b04:	e9d7 0138 	ldrd	r0, r1, [r7, #224]	; 0xe0
 8004b08:	f7fc f856 	bl	8000bb8 <__aeabi_uldivmod>
 8004b0c:	4602      	mov	r2, r0
 8004b0e:	460b      	mov	r3, r1
 8004b10:	4b61      	ldr	r3, [pc, #388]	; (8004c98 <UART_SetConfig+0x2d4>)
 8004b12:	fba3 2302 	umull	r2, r3, r3, r2
 8004b16:	095b      	lsrs	r3, r3, #5
 8004b18:	011c      	lsls	r4, r3, #4
 8004b1a:	f8d7 30fc 	ldr.w	r3, [r7, #252]	; 0xfc
 8004b1e:	2200      	movs	r2, #0
 8004b20:	f8c7 30d0 	str.w	r3, [r7, #208]	; 0xd0
 8004b24:	f8c7 20d4 	str.w	r2, [r7, #212]	; 0xd4
 8004b28:	e9d7 8934 	ldrd	r8, r9, [r7, #208]	; 0xd0
 8004b2c:	4642      	mov	r2, r8
 8004b2e:	464b      	mov	r3, r9
 8004b30:	1891      	adds	r1, r2, r2
 8004b32:	64b9      	str	r1, [r7, #72]	; 0x48
 8004b34:	415b      	adcs	r3, r3
 8004b36:	64fb      	str	r3, [r7, #76]	; 0x4c
 8004b38:	e9d7 2312 	ldrd	r2, r3, [r7, #72]	; 0x48
 8004b3c:	4641      	mov	r1, r8
 8004b3e:	eb12 0a01 	adds.w	sl, r2, r1
 8004b42:	4649      	mov	r1, r9
 8004b44:	eb43 0b01 	adc.w	fp, r3, r1
 8004b48:	f04f 0200 	mov.w	r2, #0
 8004b4c:	f04f 0300 	mov.w	r3, #0
 8004b50:	ea4f 03cb 	mov.w	r3, fp, lsl #3
 8004b54:	ea43 735a 	orr.w	r3, r3, sl, lsr #29
 8004b58:	ea4f 02ca 	mov.w	r2, sl, lsl #3
 8004b5c:	4692      	mov	sl, r2
 8004b5e:	469b      	mov	fp, r3
 8004b60:	4643      	mov	r3, r8
 8004b62:	eb1a 0303 	adds.w	r3, sl, r3
 8004b66:	f8c7 30c8 	str.w	r3, [r7, #200]	; 0xc8
 8004b6a:	464b      	mov	r3, r9
 8004b6c:	eb4b 0303 	adc.w	r3, fp, r3
 8004b70:	f8c7 30cc 	str.w	r3, [r7, #204]	; 0xcc
 8004b74:	f8d7 30f4 	ldr.w	r3, [r7, #244]	; 0xf4
 8004b78:	685b      	ldr	r3, [r3, #4]
 8004b7a:	2200      	movs	r2, #0
 8004b7c:	f8c7 30c0 	str.w	r3, [r7, #192]	; 0xc0
 8004b80:	f8c7 20c4 	str.w	r2, [r7, #196]	; 0xc4
 8004b84:	e9d7 1230 	ldrd	r1, r2, [r7, #192]	; 0xc0
 8004b88:	460b      	mov	r3, r1
 8004b8a:	18db      	adds	r3, r3, r3
 8004b8c:	643b      	str	r3, [r7, #64]	; 0x40
 8004b8e:	4613      	mov	r3, r2
 8004b90:	eb42 0303 	adc.w	r3, r2, r3
 8004b94:	647b      	str	r3, [r7, #68]	; 0x44
 8004b96:	e9d7 2310 	ldrd	r2, r3, [r7, #64]	; 0x40
 8004b9a:	e9d7 0132 	ldrd	r0, r1, [r7, #200]	; 0xc8
 8004b9e:	f7fc f80b 	bl	8000bb8 <__aeabi_uldivmod>
 8004ba2:	4602      	mov	r2, r0
 8004ba4:	460b      	mov	r3, r1
 8004ba6:	4611      	mov	r1, r2
 8004ba8:	4b3b      	ldr	r3, [pc, #236]	; (8004c98 <UART_SetConfig+0x2d4>)
 8004baa:	fba3 2301 	umull	r2, r3, r3, r1
 8004bae:	095b      	lsrs	r3, r3, #5
 8004bb0:	2264      	movs	r2, #100	; 0x64
 8004bb2:	fb02 f303 	mul.w	r3, r2, r3
 8004bb6:	1acb      	subs	r3, r1, r3
 8004bb8:	00db      	lsls	r3, r3, #3
 8004bba:	f103 0232 	add.w	r2, r3, #50	; 0x32
 8004bbe:	4b36      	ldr	r3, [pc, #216]	; (8004c98 <UART_SetConfig+0x2d4>)
 8004bc0:	fba3 2302 	umull	r2, r3, r3, r2
 8004bc4:	095b      	lsrs	r3, r3, #5
 8004bc6:	005b      	lsls	r3, r3, #1
 8004bc8:	f403 73f8 	and.w	r3, r3, #496	; 0x1f0
 8004bcc:	441c      	add	r4, r3
 8004bce:	f8d7 30fc 	ldr.w	r3, [r7, #252]	; 0xfc
 8004bd2:	2200      	movs	r2, #0
 8004bd4:	f8c7 30b8 	str.w	r3, [r7, #184]	; 0xb8
 8004bd8:	f8c7 20bc 	str.w	r2, [r7, #188]	; 0xbc
 8004bdc:	e9d7 892e 	ldrd	r8, r9, [r7, #184]	; 0xb8
 8004be0:	4642      	mov	r2, r8
 8004be2:	464b      	mov	r3, r9
 8004be4:	1891      	adds	r1, r2, r2
 8004be6:	63b9      	str	r1, [r7, #56]	; 0x38
 8004be8:	415b      	adcs	r3, r3
 8004bea:	63fb      	str	r3, [r7, #60]	; 0x3c
 8004bec:	e9d7 230e 	ldrd	r2, r3, [r7, #56]	; 0x38
 8004bf0:	4641      	mov	r1, r8
 8004bf2:	1851      	adds	r1, r2, r1
 8004bf4:	6339      	str	r1, [r7, #48]	; 0x30
 8004bf6:	4649      	mov	r1, r9
 8004bf8:	414b      	adcs	r3, r1
 8004bfa:	637b      	str	r3, [r7, #52]	; 0x34
 8004bfc:	f04f 0200 	mov.w	r2, #0
 8004c00:	f04f 0300 	mov.w	r3, #0
 8004c04:	e9d7 ab0c 	ldrd	sl, fp, [r7, #48]	; 0x30
 8004c08:	4659      	mov	r1, fp
 8004c0a:	00cb      	lsls	r3, r1, #3
 8004c0c:	4651      	mov	r1, sl
 8004c0e:	ea43 7351 	orr.w	r3, r3, r1, lsr #29
 8004c12:	4651      	mov	r1, sl
 8004c14:	00ca      	lsls	r2, r1, #3
 8004c16:	4610      	mov	r0, r2
 8004c18:	4619      	mov	r1, r3
 8004c1a:	4603      	mov	r3, r0
 8004c1c:	4642      	mov	r2, r8
 8004c1e:	189b      	adds	r3, r3, r2
 8004c20:	f8c7 30b0 	str.w	r3, [r7, #176]	; 0xb0
 8004c24:	464b      	mov	r3, r9
 8004c26:	460a      	mov	r2, r1
 8004c28:	eb42 0303 	adc.w	r3, r2, r3
 8004c2c:	f8c7 30b4 	str.w	r3, [r7, #180]	; 0xb4
 8004c30:	f8d7 30f4 	ldr.w	r3, [r7, #244]	; 0xf4
 8004c34:	685b      	ldr	r3, [r3, #4]
 8004c36:	2200      	movs	r2, #0
 8004c38:	f8c7 30a8 	str.w	r3, [r7, #168]	; 0xa8
 8004c3c:	f8c7 20ac 	str.w	r2, [r7, #172]	; 0xac
 8004c40:	e9d7 122a 	ldrd	r1, r2, [r7, #168]	; 0xa8
 8004c44:	460b      	mov	r3, r1
 8004c46:	18db      	adds	r3, r3, r3
 8004c48:	62bb      	str	r3, [r7, #40]	; 0x28
 8004c4a:	4613      	mov	r3, r2
 8004c4c:	eb42 0303 	adc.w	r3, r2, r3
 8004c50:	62fb      	str	r3, [r7, #44]	; 0x2c
 8004c52:	e9d7 230a 	ldrd	r2, r3, [r7, #40]	; 0x28
 8004c56:	e9d7 012c 	ldrd	r0, r1, [r7, #176]	; 0xb0
 8004c5a:	f7fb ffad 	bl	8000bb8 <__aeabi_uldivmod>
 8004c5e:	4602      	mov	r2, r0
 8004c60:	460b      	mov	r3, r1
 8004c62:	4b0d      	ldr	r3, [pc, #52]	; (8004c98 <UART_SetConfig+0x2d4>)
 8004c64:	fba3 1302 	umull	r1, r3, r3, r2
 8004c68:	095b      	lsrs	r3, r3, #5
 8004c6a:	2164      	movs	r1, #100	; 0x64
 8004c6c:	fb01 f303 	mul.w	r3, r1, r3
 8004c70:	1ad3      	subs	r3, r2, r3
 8004c72:	00db      	lsls	r3, r3, #3
 8004c74:	3332      	adds	r3, #50	; 0x32
 8004c76:	4a08      	ldr	r2, [pc, #32]	; (8004c98 <UART_SetConfig+0x2d4>)
 8004c78:	fba2 2303 	umull	r2, r3, r2, r3
 8004c7c:	095b      	lsrs	r3, r3, #5
 8004c7e:	f003 0207 	and.w	r2, r3, #7
 8004c82:	f8d7 30f4 	ldr.w	r3, [r7, #244]	; 0xf4
 8004c86:	681b      	ldr	r3, [r3, #0]
 8004c88:	4422      	add	r2, r4
 8004c8a:	609a      	str	r2, [r3, #8]
  }
  else
  {
    huart->Instance->BRR = UART_BRR_SAMPLING16(pclk, huart->Init.BaudRate);
  }
}
 8004c8c:	e105      	b.n	8004e9a <UART_SetConfig+0x4d6>
 8004c8e:	bf00      	nop
 8004c90:	40011000 	.word	0x40011000
 8004c94:	40011400 	.word	0x40011400
 8004c98:	51eb851f 	.word	0x51eb851f
    huart->Instance->BRR = UART_BRR_SAMPLING16(pclk, huart->Init.BaudRate);
 8004c9c:	f8d7 30fc 	ldr.w	r3, [r7, #252]	; 0xfc
 8004ca0:	2200      	movs	r2, #0
 8004ca2:	f8c7 30a0 	str.w	r3, [r7, #160]	; 0xa0
 8004ca6:	f8c7 20a4 	str.w	r2, [r7, #164]	; 0xa4
 8004caa:	e9d7 8928 	ldrd	r8, r9, [r7, #160]	; 0xa0
 8004cae:	4642      	mov	r2, r8
 8004cb0:	464b      	mov	r3, r9
 8004cb2:	1891      	adds	r1, r2, r2
 8004cb4:	6239      	str	r1, [r7, #32]
 8004cb6:	415b      	adcs	r3, r3
 8004cb8:	627b      	str	r3, [r7, #36]	; 0x24
 8004cba:	e9d7 2308 	ldrd	r2, r3, [r7, #32]
 8004cbe:	4641      	mov	r1, r8
 8004cc0:	1854      	adds	r4, r2, r1
 8004cc2:	4649      	mov	r1, r9
 8004cc4:	eb43 0501 	adc.w	r5, r3, r1
 8004cc8:	f04f 0200 	mov.w	r2, #0
 8004ccc:	f04f 0300 	mov.w	r3, #0
 8004cd0:	00eb      	lsls	r3, r5, #3
 8004cd2:	ea43 7354 	orr.w	r3, r3, r4, lsr #29
 8004cd6:	00e2      	lsls	r2, r4, #3
 8004cd8:	4614      	mov	r4, r2
 8004cda:	461d      	mov	r5, r3
 8004cdc:	4643      	mov	r3, r8
 8004cde:	18e3      	adds	r3, r4, r3
 8004ce0:	f8c7 3098 	str.w	r3, [r7, #152]	; 0x98
 8004ce4:	464b      	mov	r3, r9
 8004ce6:	eb45 0303 	adc.w	r3, r5, r3
 8004cea:	f8c7 309c 	str.w	r3, [r7, #156]	; 0x9c
 8004cee:	f8d7 30f4 	ldr.w	r3, [r7, #244]	; 0xf4
 8004cf2:	685b      	ldr	r3, [r3, #4]
 8004cf4:	2200      	movs	r2, #0
 8004cf6:	f8c7 3090 	str.w	r3, [r7, #144]	; 0x90
 8004cfa:	f8c7 2094 	str.w	r2, [r7, #148]	; 0x94
 8004cfe:	f04f 0200 	mov.w	r2, #0
 8004d02:	f04f 0300 	mov.w	r3, #0
 8004d06:	e9d7 4524 	ldrd	r4, r5, [r7, #144]	; 0x90
 8004d0a:	4629      	mov	r1, r5
 8004d0c:	008b      	lsls	r3, r1, #2
 8004d0e:	4621      	mov	r1, r4
 8004d10:	ea43 7391 	orr.w	r3, r3, r1, lsr #30
 8004d14:	4621      	mov	r1, r4
 8004d16:	008a      	lsls	r2, r1, #2
 8004d18:	e9d7 0126 	ldrd	r0, r1, [r7, #152]	; 0x98
 8004d1c:	f7fb ff4c 	bl	8000bb8 <__aeabi_uldivmod>
 8004d20:	4602      	mov	r2, r0
 8004d22:	460b      	mov	r3, r1
 8004d24:	4b60      	ldr	r3, [pc, #384]	; (8004ea8 <UART_SetConfig+0x4e4>)
 8004d26:	fba3 2302 	umull	r2, r3, r3, r2
 8004d2a:	095b      	lsrs	r3, r3, #5
 8004d2c:	011c      	lsls	r4, r3, #4
 8004d2e:	f8d7 30fc 	ldr.w	r3, [r7, #252]	; 0xfc
 8004d32:	2200      	movs	r2, #0
 8004d34:	f8c7 3088 	str.w	r3, [r7, #136]	; 0x88
 8004d38:	f8c7 208c 	str.w	r2, [r7, #140]	; 0x8c
 8004d3c:	e9d7 8922 	ldrd	r8, r9, [r7, #136]	; 0x88
 8004d40:	4642      	mov	r2, r8
 8004d42:	464b      	mov	r3, r9
 8004d44:	1891      	adds	r1, r2, r2
 8004d46:	61b9      	str	r1, [r7, #24]
 8004d48:	415b      	adcs	r3, r3
 8004d4a:	61fb      	str	r3, [r7, #28]
 8004d4c:	e9d7 2306 	ldrd	r2, r3, [r7, #24]
 8004d50:	4641      	mov	r1, r8
 8004d52:	1851      	adds	r1, r2, r1
 8004d54:	6139      	str	r1, [r7, #16]
 8004d56:	4649      	mov	r1, r9
 8004d58:	414b      	adcs	r3, r1
 8004d5a:	617b      	str	r3, [r7, #20]
 8004d5c:	f04f 0200 	mov.w	r2, #0
 8004d60:	f04f 0300 	mov.w	r3, #0
 8004d64:	e9d7 ab04 	ldrd	sl, fp, [r7, #16]
 8004d68:	4659      	mov	r1, fp
 8004d6a:	00cb      	lsls	r3, r1, #3
 8004d6c:	4651      	mov	r1, sl
 8004d6e:	ea43 7351 	orr.w	r3, r3, r1, lsr #29
 8004d72:	4651      	mov	r1, sl
 8004d74:	00ca      	lsls	r2, r1, #3
 8004d76:	4610      	mov	r0, r2
 8004d78:	4619      	mov	r1, r3
 8004d7a:	4603      	mov	r3, r0
 8004d7c:	4642      	mov	r2, r8
 8004d7e:	189b      	adds	r3, r3, r2
 8004d80:	f8c7 3080 	str.w	r3, [r7, #128]	; 0x80
 8004d84:	464b      	mov	r3, r9
 8004d86:	460a      	mov	r2, r1
 8004d88:	eb42 0303 	adc.w	r3, r2, r3
 8004d8c:	f8c7 3084 	str.w	r3, [r7, #132]	; 0x84
 8004d90:	f8d7 30f4 	ldr.w	r3, [r7, #244]	; 0xf4
 8004d94:	685b      	ldr	r3, [r3, #4]
 8004d96:	2200      	movs	r2, #0
 8004d98:	67bb      	str	r3, [r7, #120]	; 0x78
 8004d9a:	67fa      	str	r2, [r7, #124]	; 0x7c
 8004d9c:	f04f 0200 	mov.w	r2, #0
 8004da0:	f04f 0300 	mov.w	r3, #0
 8004da4:	e9d7 891e 	ldrd	r8, r9, [r7, #120]	; 0x78
 8004da8:	4649      	mov	r1, r9
 8004daa:	008b      	lsls	r3, r1, #2
 8004dac:	4641      	mov	r1, r8
 8004dae:	ea43 7391 	orr.w	r3, r3, r1, lsr #30
 8004db2:	4641      	mov	r1, r8
 8004db4:	008a      	lsls	r2, r1, #2
 8004db6:	e9d7 0120 	ldrd	r0, r1, [r7, #128]	; 0x80
 8004dba:	f7fb fefd 	bl	8000bb8 <__aeabi_uldivmod>
 8004dbe:	4602      	mov	r2, r0
 8004dc0:	460b      	mov	r3, r1
 8004dc2:	4b39      	ldr	r3, [pc, #228]	; (8004ea8 <UART_SetConfig+0x4e4>)
 8004dc4:	fba3 1302 	umull	r1, r3, r3, r2
 8004dc8:	095b      	lsrs	r3, r3, #5
 8004dca:	2164      	movs	r1, #100	; 0x64
 8004dcc:	fb01 f303 	mul.w	r3, r1, r3
 8004dd0:	1ad3      	subs	r3, r2, r3
 8004dd2:	011b      	lsls	r3, r3, #4
 8004dd4:	3332      	adds	r3, #50	; 0x32
 8004dd6:	4a34      	ldr	r2, [pc, #208]	; (8004ea8 <UART_SetConfig+0x4e4>)
 8004dd8:	fba2 2303 	umull	r2, r3, r2, r3
 8004ddc:	095b      	lsrs	r3, r3, #5
 8004dde:	f003 03f0 	and.w	r3, r3, #240	; 0xf0
 8004de2:	441c      	add	r4, r3
 8004de4:	f8d7 30fc 	ldr.w	r3, [r7, #252]	; 0xfc
 8004de8:	2200      	movs	r2, #0
 8004dea:	673b      	str	r3, [r7, #112]	; 0x70
 8004dec:	677a      	str	r2, [r7, #116]	; 0x74
 8004dee:	e9d7 891c 	ldrd	r8, r9, [r7, #112]	; 0x70
 8004df2:	4642      	mov	r2, r8
 8004df4:	464b      	mov	r3, r9
 8004df6:	1891      	adds	r1, r2, r2
 8004df8:	60b9      	str	r1, [r7, #8]
 8004dfa:	415b      	adcs	r3, r3
 8004dfc:	60fb      	str	r3, [r7, #12]
 8004dfe:	e9d7 2302 	ldrd	r2, r3, [r7, #8]
 8004e02:	4641      	mov	r1, r8
 8004e04:	1851      	adds	r1, r2, r1
 8004e06:	6039      	str	r1, [r7, #0]
 8004e08:	4649      	mov	r1, r9
 8004e0a:	414b      	adcs	r3, r1
 8004e0c:	607b      	str	r3, [r7, #4]
 8004e0e:	f04f 0200 	mov.w	r2, #0
 8004e12:	f04f 0300 	mov.w	r3, #0
 8004e16:	e9d7 ab00 	ldrd	sl, fp, [r7]
 8004e1a:	4659      	mov	r1, fp
 8004e1c:	00cb      	lsls	r3, r1, #3
 8004e1e:	4651      	mov	r1, sl
 8004e20:	ea43 7351 	orr.w	r3, r3, r1, lsr #29
 8004e24:	4651      	mov	r1, sl
 8004e26:	00ca      	lsls	r2, r1, #3
 8004e28:	4610      	mov	r0, r2
 8004e2a:	4619      	mov	r1, r3
 8004e2c:	4603      	mov	r3, r0
 8004e2e:	4642      	mov	r2, r8
 8004e30:	189b      	adds	r3, r3, r2
 8004e32:	66bb      	str	r3, [r7, #104]	; 0x68
 8004e34:	464b      	mov	r3, r9
 8004e36:	460a      	mov	r2, r1
 8004e38:	eb42 0303 	adc.w	r3, r2, r3
 8004e3c:	66fb      	str	r3, [r7, #108]	; 0x6c
 8004e3e:	f8d7 30f4 	ldr.w	r3, [r7, #244]	; 0xf4
 8004e42:	685b      	ldr	r3, [r3, #4]
 8004e44:	2200      	movs	r2, #0
 8004e46:	663b      	str	r3, [r7, #96]	; 0x60
 8004e48:	667a      	str	r2, [r7, #100]	; 0x64
 8004e4a:	f04f 0200 	mov.w	r2, #0
 8004e4e:	f04f 0300 	mov.w	r3, #0
 8004e52:	e9d7 8918 	ldrd	r8, r9, [r7, #96]	; 0x60
 8004e56:	4649      	mov	r1, r9
 8004e58:	008b      	lsls	r3, r1, #2
 8004e5a:	4641      	mov	r1, r8
 8004e5c:	ea43 7391 	orr.w	r3, r3, r1, lsr #30
 8004e60:	4641      	mov	r1, r8
 8004e62:	008a      	lsls	r2, r1, #2
 8004e64:	e9d7 011a 	ldrd	r0, r1, [r7, #104]	; 0x68
 8004e68:	f7fb fea6 	bl	8000bb8 <__aeabi_uldivmod>
 8004e6c:	4602      	mov	r2, r0
 8004e6e:	460b      	mov	r3, r1
 8004e70:	4b0d      	ldr	r3, [pc, #52]	; (8004ea8 <UART_SetConfig+0x4e4>)
 8004e72:	fba3 1302 	umull	r1, r3, r3, r2
 8004e76:	095b      	lsrs	r3, r3, #5
 8004e78:	2164      	movs	r1, #100	; 0x64
 8004e7a:	fb01 f303 	mul.w	r3, r1, r3
 8004e7e:	1ad3      	subs	r3, r2, r3
 8004e80:	011b      	lsls	r3, r3, #4
 8004e82:	3332      	adds	r3, #50	; 0x32
 8004e84:	4a08      	ldr	r2, [pc, #32]	; (8004ea8 <UART_SetConfig+0x4e4>)
 8004e86:	fba2 2303 	umull	r2, r3, r2, r3
 8004e8a:	095b      	lsrs	r3, r3, #5
 8004e8c:	f003 020f 	and.w	r2, r3, #15
 8004e90:	f8d7 30f4 	ldr.w	r3, [r7, #244]	; 0xf4
 8004e94:	681b      	ldr	r3, [r3, #0]
 8004e96:	4422      	add	r2, r4
 8004e98:	609a      	str	r2, [r3, #8]
}
 8004e9a:	bf00      	nop
 8004e9c:	f507 7780 	add.w	r7, r7, #256	; 0x100
 8004ea0:	46bd      	mov	sp, r7
 8004ea2:	e8bd 8fb0 	ldmia.w	sp!, {r4, r5, r7, r8, r9, sl, fp, pc}
 8004ea6:	bf00      	nop
 8004ea8:	51eb851f 	.word	0x51eb851f

08004eac <OLED_CS_Set>:
		0x7C, 0x7C, 0x7C, 0x7C, 0x7C, //Full Square(/Q)
		0x7C, 0x44, 0x44, 0x44, 0x7C, //Empty Square(/q)
		0x38, 0x7C, 0x7C, 0x7C, 0x38, //Full Circle(/*)
};

static void inline OLED_CS_Set(uint8_t state){
 8004eac:	b580      	push	{r7, lr}
 8004eae:	b082      	sub	sp, #8
 8004eb0:	af00      	add	r7, sp, #0
 8004eb2:	4603      	mov	r3, r0
 8004eb4:	71fb      	strb	r3, [r7, #7]
	HAL_GPIO_WritePin(OLED_CS_GPIO_Port, OLED_CS_Pin, state);
 8004eb6:	79fb      	ldrb	r3, [r7, #7]
 8004eb8:	461a      	mov	r2, r3
 8004eba:	2104      	movs	r1, #4
 8004ebc:	4803      	ldr	r0, [pc, #12]	; (8004ecc <OLED_CS_Set+0x20>)
 8004ebe:	f7fd f9f1 	bl	80022a4 <HAL_GPIO_WritePin>
}
 8004ec2:	bf00      	nop
 8004ec4:	3708      	adds	r7, #8
 8004ec6:	46bd      	mov	sp, r7
 8004ec8:	bd80      	pop	{r7, pc}
 8004eca:	bf00      	nop
 8004ecc:	40020400 	.word	0x40020400

08004ed0 <OLED_DC_Set>:

static void inline OLED_DC_Set(uint8_t state){
 8004ed0:	b580      	push	{r7, lr}
 8004ed2:	b082      	sub	sp, #8
 8004ed4:	af00      	add	r7, sp, #0
 8004ed6:	4603      	mov	r3, r0
 8004ed8:	71fb      	strb	r3, [r7, #7]
	HAL_GPIO_WritePin(OLED_DC_GPIO_Port, OLED_DC_Pin, state);
 8004eda:	79fb      	ldrb	r3, [r7, #7]
 8004edc:	461a      	mov	r2, r3
 8004ede:	2110      	movs	r1, #16
 8004ee0:	4803      	ldr	r0, [pc, #12]	; (8004ef0 <OLED_DC_Set+0x20>)
 8004ee2:	f7fd f9df 	bl	80022a4 <HAL_GPIO_WritePin>
}
 8004ee6:	bf00      	nop
 8004ee8:	3708      	adds	r7, #8
 8004eea:	46bd      	mov	sp, r7
 8004eec:	bd80      	pop	{r7, pc}
 8004eee:	bf00      	nop
 8004ef0:	40020000 	.word	0x40020000

08004ef4 <OLED_RS_Set>:

static void inline OLED_RS_Set(uint8_t state){
 8004ef4:	b580      	push	{r7, lr}
 8004ef6:	b082      	sub	sp, #8
 8004ef8:	af00      	add	r7, sp, #0
 8004efa:	4603      	mov	r3, r0
 8004efc:	71fb      	strb	r3, [r7, #7]
	HAL_GPIO_WritePin(OLED_RS_GPIO_Port, OLED_RS_Pin, state);
 8004efe:	79fb      	ldrb	r3, [r7, #7]
 8004f00:	461a      	mov	r2, r3
 8004f02:	2102      	movs	r1, #2
 8004f04:	4803      	ldr	r0, [pc, #12]	; (8004f14 <OLED_RS_Set+0x20>)
 8004f06:	f7fd f9cd 	bl	80022a4 <HAL_GPIO_WritePin>
}
 8004f0a:	bf00      	nop
 8004f0c:	3708      	adds	r7, #8
 8004f0e:	46bd      	mov	sp, r7
 8004f10:	bd80      	pop	{r7, pc}
 8004f12:	bf00      	nop
 8004f14:	40020000 	.word	0x40020000

08004f18 <OLED_Send>:

static void inline OLED_Send(uint8_t data){
 8004f18:	b580      	push	{r7, lr}
 8004f1a:	b082      	sub	sp, #8
 8004f1c:	af00      	add	r7, sp, #0
 8004f1e:	4603      	mov	r3, r0
 8004f20:	71fb      	strb	r3, [r7, #7]
  __ASM volatile ("cpsid i" : : : "memory");
 8004f22:	b672      	cpsid	i
}
 8004f24:	bf00      	nop
	__disable_irq();//     .
	OLED_CS_Set(0);//OLED    CS Low  .
 8004f26:	2000      	movs	r0, #0
 8004f28:	f7ff ffc0 	bl	8004eac <OLED_CS_Set>
	HAL_SPI_Transmit(&hspi2, &data, 1, 1);
 8004f2c:	1df9      	adds	r1, r7, #7
 8004f2e:	2301      	movs	r3, #1
 8004f30:	2201      	movs	r2, #1
 8004f32:	4806      	ldr	r0, [pc, #24]	; (8004f4c <OLED_Send+0x34>)
 8004f34:	f7fd feb1 	bl	8002c9a <HAL_SPI_Transmit>
	OLED_CS_Set(1);//   CS High      .
 8004f38:	2001      	movs	r0, #1
 8004f3a:	f7ff ffb7 	bl	8004eac <OLED_CS_Set>
  __ASM volatile ("cpsie i" : : : "memory");
 8004f3e:	b662      	cpsie	i
}
 8004f40:	bf00      	nop
	__enable_irq();
}
 8004f42:	bf00      	nop
 8004f44:	3708      	adds	r7, #8
 8004f46:	46bd      	mov	sp, r7
 8004f48:	bd80      	pop	{r7, pc}
 8004f4a:	bf00      	nop
 8004f4c:	200004b4 	.word	0x200004b4

08004f50 <OLED_WriteCommand>:

static void inline OLED_WriteCommand(uint8_t data){
 8004f50:	b580      	push	{r7, lr}
 8004f52:	b082      	sub	sp, #8
 8004f54:	af00      	add	r7, sp, #0
 8004f56:	4603      	mov	r3, r0
 8004f58:	71fb      	strb	r3, [r7, #7]
	OLED_DC_Set(0);
 8004f5a:	2000      	movs	r0, #0
 8004f5c:	f7ff ffb8 	bl	8004ed0 <OLED_DC_Set>
	OLED_Send(data);
 8004f60:	79fb      	ldrb	r3, [r7, #7]
 8004f62:	4618      	mov	r0, r3
 8004f64:	f7ff ffd8 	bl	8004f18 <OLED_Send>
}
 8004f68:	bf00      	nop
 8004f6a:	3708      	adds	r7, #8
 8004f6c:	46bd      	mov	sp, r7
 8004f6e:	bd80      	pop	{r7, pc}

08004f70 <OLED_WriteData>:

static void inline OLED_WriteData(uint8_t data){
 8004f70:	b580      	push	{r7, lr}
 8004f72:	b082      	sub	sp, #8
 8004f74:	af00      	add	r7, sp, #0
 8004f76:	4603      	mov	r3, r0
 8004f78:	71fb      	strb	r3, [r7, #7]
	OLED_DC_Set(1);
 8004f7a:	2001      	movs	r0, #1
 8004f7c:	f7ff ffa8 	bl	8004ed0 <OLED_DC_Set>
	OLED_Send(data);
 8004f80:	79fb      	ldrb	r3, [r7, #7]
 8004f82:	4618      	mov	r0, r3
 8004f84:	f7ff ffc8 	bl	8004f18 <OLED_Send>
}
 8004f88:	bf00      	nop
 8004f8a:	3708      	adds	r7, #8
 8004f8c:	46bd      	mov	sp, r7
 8004f8e:	bd80      	pop	{r7, pc}

08004f90 <OLED_Clear>:

void OLED_Clear(){
 8004f90:	b580      	push	{r7, lr}
 8004f92:	b082      	sub	sp, #8
 8004f94:	af00      	add	r7, sp, #0
	OLED_row = 1;
 8004f96:	4b12      	ldr	r3, [pc, #72]	; (8004fe0 <OLED_Clear+0x50>)
 8004f98:	2201      	movs	r2, #1
 8004f9a:	701a      	strb	r2, [r3, #0]
	OLED_col = 1;
 8004f9c:	4b11      	ldr	r3, [pc, #68]	; (8004fe4 <OLED_Clear+0x54>)
 8004f9e:	2201      	movs	r2, #1
 8004fa0:	701a      	strb	r2, [r3, #0]
	OLED_charColor = 0xFFFFFF;
 8004fa2:	4b11      	ldr	r3, [pc, #68]	; (8004fe8 <OLED_Clear+0x58>)
 8004fa4:	f06f 427f 	mvn.w	r2, #4278190080	; 0xff000000
 8004fa8:	601a      	str	r2, [r3, #0]
	OLED_charPoint = 2;
 8004faa:	4b10      	ldr	r3, [pc, #64]	; (8004fec <OLED_Clear+0x5c>)
 8004fac:	2202      	movs	r2, #2
 8004fae:	701a      	strb	r2, [r3, #0]
	OLED_AddrWindow(0, 0, 96, 64);
 8004fb0:	2340      	movs	r3, #64	; 0x40
 8004fb2:	2260      	movs	r2, #96	; 0x60
 8004fb4:	2100      	movs	r1, #0
 8004fb6:	2000      	movs	r0, #0
 8004fb8:	f000 f8a1 	bl	80050fe <OLED_AddrWindow>
	for(int i=0; i<12288; i++){
 8004fbc:	2300      	movs	r3, #0
 8004fbe:	607b      	str	r3, [r7, #4]
 8004fc0:	e005      	b.n	8004fce <OLED_Clear+0x3e>
		OLED_WriteData(0);
 8004fc2:	2000      	movs	r0, #0
 8004fc4:	f7ff ffd4 	bl	8004f70 <OLED_WriteData>
	for(int i=0; i<12288; i++){
 8004fc8:	687b      	ldr	r3, [r7, #4]
 8004fca:	3301      	adds	r3, #1
 8004fcc:	607b      	str	r3, [r7, #4]
 8004fce:	687b      	ldr	r3, [r7, #4]
 8004fd0:	f5b3 5f40 	cmp.w	r3, #12288	; 0x3000
 8004fd4:	dbf5      	blt.n	8004fc2 <OLED_Clear+0x32>
	}
}
 8004fd6:	bf00      	nop
 8004fd8:	bf00      	nop
 8004fda:	3708      	adds	r7, #8
 8004fdc:	46bd      	mov	sp, r7
 8004fde:	bd80      	pop	{r7, pc}
 8004fe0:	20000009 	.word	0x20000009
 8004fe4:	2000000a 	.word	0x2000000a
 8004fe8:	2000000c 	.word	0x2000000c
 8004fec:	20000010 	.word	0x20000010

08004ff0 <OLED_Begin>:

void OLED_Begin(){
 8004ff0:	b580      	push	{r7, lr}
 8004ff2:	af00      	add	r7, sp, #0
	//15ms  
	HAL_Delay(100);
 8004ff4:	2064      	movs	r0, #100	; 0x64
 8004ff6:	f7fc fe83 	bl	8001d00 <HAL_Delay>

	// ()
	OLED_CS_Set(1);
 8004ffa:	2001      	movs	r0, #1
 8004ffc:	f7ff ff56 	bl	8004eac <OLED_CS_Set>
	OLED_RS_Set(0);
 8005000:	2000      	movs	r0, #0
 8005002:	f7ff ff77 	bl	8004ef4 <OLED_RS_Set>
	HAL_Delay(3);
 8005006:	2003      	movs	r0, #3
 8005008:	f7fc fe7a 	bl	8001d00 <HAL_Delay>
	OLED_RS_Set(1);
 800500c:	2001      	movs	r0, #1
 800500e:	f7ff ff71 	bl	8004ef4 <OLED_RS_Set>

	//  
	OLED_WriteCommand(0xAE);
 8005012:	20ae      	movs	r0, #174	; 0xae
 8005014:	f7ff ff9c 	bl	8004f50 <OLED_WriteCommand>
	OLED_WriteCommand(0xA0);
 8005018:	20a0      	movs	r0, #160	; 0xa0
 800501a:	f7ff ff99 	bl	8004f50 <OLED_WriteCommand>
	OLED_WriteCommand(0x72);
 800501e:	2072      	movs	r0, #114	; 0x72
 8005020:	f7ff ff96 	bl	8004f50 <OLED_WriteCommand>
	OLED_WriteCommand(0xA1);
 8005024:	20a1      	movs	r0, #161	; 0xa1
 8005026:	f7ff ff93 	bl	8004f50 <OLED_WriteCommand>
	OLED_WriteCommand(0x00);
 800502a:	2000      	movs	r0, #0
 800502c:	f7ff ff90 	bl	8004f50 <OLED_WriteCommand>
	OLED_WriteCommand(0xA2);
 8005030:	20a2      	movs	r0, #162	; 0xa2
 8005032:	f7ff ff8d 	bl	8004f50 <OLED_WriteCommand>
	OLED_WriteCommand(0x00);
 8005036:	2000      	movs	r0, #0
 8005038:	f7ff ff8a 	bl	8004f50 <OLED_WriteCommand>
	OLED_WriteCommand(0xA4);
 800503c:	20a4      	movs	r0, #164	; 0xa4
 800503e:	f7ff ff87 	bl	8004f50 <OLED_WriteCommand>
	OLED_WriteCommand(0xA8);
 8005042:	20a8      	movs	r0, #168	; 0xa8
 8005044:	f7ff ff84 	bl	8004f50 <OLED_WriteCommand>
	OLED_WriteCommand(0x3F);
 8005048:	203f      	movs	r0, #63	; 0x3f
 800504a:	f7ff ff81 	bl	8004f50 <OLED_WriteCommand>
	OLED_WriteCommand(0xAD);
 800504e:	20ad      	movs	r0, #173	; 0xad
 8005050:	f7ff ff7e 	bl	8004f50 <OLED_WriteCommand>
	OLED_WriteCommand(0x8E);
 8005054:	208e      	movs	r0, #142	; 0x8e
 8005056:	f7ff ff7b 	bl	8004f50 <OLED_WriteCommand>
	OLED_WriteCommand(0xB0);
 800505a:	20b0      	movs	r0, #176	; 0xb0
 800505c:	f7ff ff78 	bl	8004f50 <OLED_WriteCommand>
	OLED_WriteCommand(0x0B);
 8005060:	200b      	movs	r0, #11
 8005062:	f7ff ff75 	bl	8004f50 <OLED_WriteCommand>
	OLED_WriteCommand(0xB1);
 8005066:	20b1      	movs	r0, #177	; 0xb1
 8005068:	f7ff ff72 	bl	8004f50 <OLED_WriteCommand>
	OLED_WriteCommand(0x31);
 800506c:	2031      	movs	r0, #49	; 0x31
 800506e:	f7ff ff6f 	bl	8004f50 <OLED_WriteCommand>
	OLED_WriteCommand(0xB3);
 8005072:	20b3      	movs	r0, #179	; 0xb3
 8005074:	f7ff ff6c 	bl	8004f50 <OLED_WriteCommand>
	OLED_WriteCommand(0xF0);
 8005078:	20f0      	movs	r0, #240	; 0xf0
 800507a:	f7ff ff69 	bl	8004f50 <OLED_WriteCommand>
	OLED_WriteCommand(0x8A);
 800507e:	208a      	movs	r0, #138	; 0x8a
 8005080:	f7ff ff66 	bl	8004f50 <OLED_WriteCommand>
	OLED_WriteCommand(0x64);
 8005084:	2064      	movs	r0, #100	; 0x64
 8005086:	f7ff ff63 	bl	8004f50 <OLED_WriteCommand>
	OLED_WriteCommand(0x8B);
 800508a:	208b      	movs	r0, #139	; 0x8b
 800508c:	f7ff ff60 	bl	8004f50 <OLED_WriteCommand>
	OLED_WriteCommand(0x78);
 8005090:	2078      	movs	r0, #120	; 0x78
 8005092:	f7ff ff5d 	bl	8004f50 <OLED_WriteCommand>
	OLED_WriteCommand(0x8C);
 8005096:	208c      	movs	r0, #140	; 0x8c
 8005098:	f7ff ff5a 	bl	8004f50 <OLED_WriteCommand>
	OLED_WriteCommand(0x64);
 800509c:	2064      	movs	r0, #100	; 0x64
 800509e:	f7ff ff57 	bl	8004f50 <OLED_WriteCommand>
	OLED_WriteCommand(0xBB);
 80050a2:	20bb      	movs	r0, #187	; 0xbb
 80050a4:	f7ff ff54 	bl	8004f50 <OLED_WriteCommand>
	OLED_WriteCommand(0x3A);
 80050a8:	203a      	movs	r0, #58	; 0x3a
 80050aa:	f7ff ff51 	bl	8004f50 <OLED_WriteCommand>
	OLED_WriteCommand(0xBE);
 80050ae:	20be      	movs	r0, #190	; 0xbe
 80050b0:	f7ff ff4e 	bl	8004f50 <OLED_WriteCommand>
	OLED_WriteCommand(0x3E);
 80050b4:	203e      	movs	r0, #62	; 0x3e
 80050b6:	f7ff ff4b 	bl	8004f50 <OLED_WriteCommand>
	OLED_WriteCommand(0x87);
 80050ba:	2087      	movs	r0, #135	; 0x87
 80050bc:	f7ff ff48 	bl	8004f50 <OLED_WriteCommand>
	OLED_WriteCommand(0x06);
 80050c0:	2006      	movs	r0, #6
 80050c2:	f7ff ff45 	bl	8004f50 <OLED_WriteCommand>
	OLED_WriteCommand(0x81);
 80050c6:	2081      	movs	r0, #129	; 0x81
 80050c8:	f7ff ff42 	bl	8004f50 <OLED_WriteCommand>
	OLED_WriteCommand(0x91);
 80050cc:	2091      	movs	r0, #145	; 0x91
 80050ce:	f7ff ff3f 	bl	8004f50 <OLED_WriteCommand>
	OLED_WriteCommand(0x82);
 80050d2:	2082      	movs	r0, #130	; 0x82
 80050d4:	f7ff ff3c 	bl	8004f50 <OLED_WriteCommand>
	OLED_WriteCommand(0x50);
 80050d8:	2050      	movs	r0, #80	; 0x50
 80050da:	f7ff ff39 	bl	8004f50 <OLED_WriteCommand>
	OLED_WriteCommand(0x83);
 80050de:	2083      	movs	r0, #131	; 0x83
 80050e0:	f7ff ff36 	bl	8004f50 <OLED_WriteCommand>
	OLED_WriteCommand(0x7D);
 80050e4:	207d      	movs	r0, #125	; 0x7d
 80050e6:	f7ff ff33 	bl	8004f50 <OLED_WriteCommand>

	OLED_Clear();
 80050ea:	f7ff ff51 	bl	8004f90 <OLED_Clear>
	OLED_WriteCommand(0xAF);
 80050ee:	20af      	movs	r0, #175	; 0xaf
 80050f0:	f7ff ff2e 	bl	8004f50 <OLED_WriteCommand>
	HAL_Delay(100);
 80050f4:	2064      	movs	r0, #100	; 0x64
 80050f6:	f7fc fe03 	bl	8001d00 <HAL_Delay>

}
 80050fa:	bf00      	nop
 80050fc:	bd80      	pop	{r7, pc}

080050fe <OLED_AddrWindow>:

void OLED_AddrWindow(uint8_t x, uint8_t y, uint8_t w, uint8_t h){
 80050fe:	b590      	push	{r4, r7, lr}
 8005100:	b085      	sub	sp, #20
 8005102:	af00      	add	r7, sp, #0
 8005104:	4604      	mov	r4, r0
 8005106:	4608      	mov	r0, r1
 8005108:	4611      	mov	r1, r2
 800510a:	461a      	mov	r2, r3
 800510c:	4623      	mov	r3, r4
 800510e:	71fb      	strb	r3, [r7, #7]
 8005110:	4603      	mov	r3, r0
 8005112:	71bb      	strb	r3, [r7, #6]
 8005114:	460b      	mov	r3, r1
 8005116:	717b      	strb	r3, [r7, #5]
 8005118:	4613      	mov	r3, r2
 800511a:	713b      	strb	r3, [r7, #4]
	uint8_t x1 = x;
 800511c:	79fb      	ldrb	r3, [r7, #7]
 800511e:	73fb      	strb	r3, [r7, #15]
	uint8_t y1 = y;
 8005120:	79bb      	ldrb	r3, [r7, #6]
 8005122:	73bb      	strb	r3, [r7, #14]
	if(x1 > 95){
 8005124:	7bfb      	ldrb	r3, [r7, #15]
 8005126:	2b5f      	cmp	r3, #95	; 0x5f
 8005128:	d901      	bls.n	800512e <OLED_AddrWindow+0x30>
		x1 = 95;
 800512a:	235f      	movs	r3, #95	; 0x5f
 800512c:	73fb      	strb	r3, [r7, #15]
	}
	if(y1 > 63){
 800512e:	7bbb      	ldrb	r3, [r7, #14]
 8005130:	2b3f      	cmp	r3, #63	; 0x3f
 8005132:	d901      	bls.n	8005138 <OLED_AddrWindow+0x3a>
		y1 = 63;
 8005134:	233f      	movs	r3, #63	; 0x3f
 8005136:	73bb      	strb	r3, [r7, #14]
	}

	uint8_t x2 = x + w - 1;
 8005138:	79fa      	ldrb	r2, [r7, #7]
 800513a:	797b      	ldrb	r3, [r7, #5]
 800513c:	4413      	add	r3, r2
 800513e:	b2db      	uxtb	r3, r3
 8005140:	3b01      	subs	r3, #1
 8005142:	737b      	strb	r3, [r7, #13]
	uint8_t y2 = y + h - 1;
 8005144:	79ba      	ldrb	r2, [r7, #6]
 8005146:	793b      	ldrb	r3, [r7, #4]
 8005148:	4413      	add	r3, r2
 800514a:	b2db      	uxtb	r3, r3
 800514c:	3b01      	subs	r3, #1
 800514e:	733b      	strb	r3, [r7, #12]
	if(x2>95)
 8005150:	7b7b      	ldrb	r3, [r7, #13]
 8005152:	2b5f      	cmp	r3, #95	; 0x5f
 8005154:	d901      	bls.n	800515a <OLED_AddrWindow+0x5c>
		x2 = 95;
 8005156:	235f      	movs	r3, #95	; 0x5f
 8005158:	737b      	strb	r3, [r7, #13]
	if(y2>63)
 800515a:	7b3b      	ldrb	r3, [r7, #12]
 800515c:	2b3f      	cmp	r3, #63	; 0x3f
 800515e:	d901      	bls.n	8005164 <OLED_AddrWindow+0x66>
		y2 = 63;
 8005160:	233f      	movs	r3, #63	; 0x3f
 8005162:	733b      	strb	r3, [r7, #12]

	if(x1>x2){
 8005164:	7bfa      	ldrb	r2, [r7, #15]
 8005166:	7b7b      	ldrb	r3, [r7, #13]
 8005168:	429a      	cmp	r2, r3
 800516a:	d905      	bls.n	8005178 <OLED_AddrWindow+0x7a>
		uint8_t temp = x2;
 800516c:	7b7b      	ldrb	r3, [r7, #13]
 800516e:	72fb      	strb	r3, [r7, #11]
		x2=x1;
 8005170:	7bfb      	ldrb	r3, [r7, #15]
 8005172:	737b      	strb	r3, [r7, #13]
		x1=temp;
 8005174:	7afb      	ldrb	r3, [r7, #11]
 8005176:	73fb      	strb	r3, [r7, #15]
	}
	if(y1>y2){
 8005178:	7bba      	ldrb	r2, [r7, #14]
 800517a:	7b3b      	ldrb	r3, [r7, #12]
 800517c:	429a      	cmp	r2, r3
 800517e:	d905      	bls.n	800518c <OLED_AddrWindow+0x8e>
		uint8_t temp = y2;
 8005180:	7b3b      	ldrb	r3, [r7, #12]
 8005182:	72bb      	strb	r3, [r7, #10]
		y2=y1;
 8005184:	7bbb      	ldrb	r3, [r7, #14]
 8005186:	733b      	strb	r3, [r7, #12]
		y1=temp;
 8005188:	7abb      	ldrb	r3, [r7, #10]
 800518a:	73bb      	strb	r3, [r7, #14]
	}

	OLED_WriteCommand(0x15);
 800518c:	2015      	movs	r0, #21
 800518e:	f7ff fedf 	bl	8004f50 <OLED_WriteCommand>
	OLED_WriteCommand(x1);
 8005192:	7bfb      	ldrb	r3, [r7, #15]
 8005194:	4618      	mov	r0, r3
 8005196:	f7ff fedb 	bl	8004f50 <OLED_WriteCommand>
	OLED_WriteCommand(x2);
 800519a:	7b7b      	ldrb	r3, [r7, #13]
 800519c:	4618      	mov	r0, r3
 800519e:	f7ff fed7 	bl	8004f50 <OLED_WriteCommand>
	OLED_WriteCommand(0x75);
 80051a2:	2075      	movs	r0, #117	; 0x75
 80051a4:	f7ff fed4 	bl	8004f50 <OLED_WriteCommand>
	OLED_WriteCommand(y1);
 80051a8:	7bbb      	ldrb	r3, [r7, #14]
 80051aa:	4618      	mov	r0, r3
 80051ac:	f7ff fed0 	bl	8004f50 <OLED_WriteCommand>
	OLED_WriteCommand(y2);
 80051b0:	7b3b      	ldrb	r3, [r7, #12]
 80051b2:	4618      	mov	r0, r3
 80051b4:	f7ff fecc 	bl	8004f50 <OLED_WriteCommand>
}
 80051b8:	bf00      	nop
 80051ba:	3714      	adds	r7, #20
 80051bc:	46bd      	mov	sp, r7
 80051be:	bd90      	pop	{r4, r7, pc}

080051c0 <OLED_Rectangle>:



void OLED_Rectangle(uint8_t x, uint8_t y, uint8_t w, uint8_t h, int32_t color){
 80051c0:	b590      	push	{r4, r7, lr}
 80051c2:	b089      	sub	sp, #36	; 0x24
 80051c4:	af00      	add	r7, sp, #0
 80051c6:	4604      	mov	r4, r0
 80051c8:	4608      	mov	r0, r1
 80051ca:	4611      	mov	r1, r2
 80051cc:	461a      	mov	r2, r3
 80051ce:	4623      	mov	r3, r4
 80051d0:	71fb      	strb	r3, [r7, #7]
 80051d2:	4603      	mov	r3, r0
 80051d4:	71bb      	strb	r3, [r7, #6]
 80051d6:	460b      	mov	r3, r1
 80051d8:	717b      	strb	r3, [r7, #5]
 80051da:	4613      	mov	r3, r2
 80051dc:	713b      	strb	r3, [r7, #4]
	OLED_AddrWindow(x, y, w, h);
 80051de:	793b      	ldrb	r3, [r7, #4]
 80051e0:	797a      	ldrb	r2, [r7, #5]
 80051e2:	79b9      	ldrb	r1, [r7, #6]
 80051e4:	79f8      	ldrb	r0, [r7, #7]
 80051e6:	f7ff ff8a 	bl	80050fe <OLED_AddrWindow>
	uint32_t red = (color >> 19) & 0x1F;
 80051ea:	6b3b      	ldr	r3, [r7, #48]	; 0x30
 80051ec:	14db      	asrs	r3, r3, #19
 80051ee:	f003 031f 	and.w	r3, r3, #31
 80051f2:	61bb      	str	r3, [r7, #24]
	uint32_t gre = (color >> 10) & 0x3F;
 80051f4:	6b3b      	ldr	r3, [r7, #48]	; 0x30
 80051f6:	129b      	asrs	r3, r3, #10
 80051f8:	f003 033f 	and.w	r3, r3, #63	; 0x3f
 80051fc:	617b      	str	r3, [r7, #20]
	uint32_t blu = (color >> 3) & 0x1F;
 80051fe:	6b3b      	ldr	r3, [r7, #48]	; 0x30
 8005200:	10db      	asrs	r3, r3, #3
 8005202:	f003 031f 	and.w	r3, r3, #31
 8005206:	613b      	str	r3, [r7, #16]
	uint32_t data = (red << 11) | (gre << 5) | blu;
 8005208:	69bb      	ldr	r3, [r7, #24]
 800520a:	02da      	lsls	r2, r3, #11
 800520c:	697b      	ldr	r3, [r7, #20]
 800520e:	015b      	lsls	r3, r3, #5
 8005210:	4313      	orrs	r3, r2
 8005212:	693a      	ldr	r2, [r7, #16]
 8005214:	4313      	orrs	r3, r2
 8005216:	60fb      	str	r3, [r7, #12]
	uint16_t size = (uint32_t)w * (uint32_t)h;
 8005218:	797b      	ldrb	r3, [r7, #5]
 800521a:	b29a      	uxth	r2, r3
 800521c:	793b      	ldrb	r3, [r7, #4]
 800521e:	b29b      	uxth	r3, r3
 8005220:	fb12 f303 	smulbb	r3, r2, r3
 8005224:	817b      	strh	r3, [r7, #10]
	for(uint16_t i=0; i<size; i++){
 8005226:	2300      	movs	r3, #0
 8005228:	83fb      	strh	r3, [r7, #30]
 800522a:	e00d      	b.n	8005248 <OLED_Rectangle+0x88>
		OLED_WriteData(data >> 8);
 800522c:	68fb      	ldr	r3, [r7, #12]
 800522e:	0a1b      	lsrs	r3, r3, #8
 8005230:	b2db      	uxtb	r3, r3
 8005232:	4618      	mov	r0, r3
 8005234:	f7ff fe9c 	bl	8004f70 <OLED_WriteData>
		OLED_WriteData(data & 0xFF);
 8005238:	68fb      	ldr	r3, [r7, #12]
 800523a:	b2db      	uxtb	r3, r3
 800523c:	4618      	mov	r0, r3
 800523e:	f7ff fe97 	bl	8004f70 <OLED_WriteData>
	for(uint16_t i=0; i<size; i++){
 8005242:	8bfb      	ldrh	r3, [r7, #30]
 8005244:	3301      	adds	r3, #1
 8005246:	83fb      	strh	r3, [r7, #30]
 8005248:	8bfa      	ldrh	r2, [r7, #30]
 800524a:	897b      	ldrh	r3, [r7, #10]
 800524c:	429a      	cmp	r2, r3
 800524e:	d3ed      	bcc.n	800522c <OLED_Rectangle+0x6c>
	}
}
 8005250:	bf00      	nop
 8005252:	bf00      	nop
 8005254:	3724      	adds	r7, #36	; 0x24
 8005256:	46bd      	mov	sp, r7
 8005258:	bd90      	pop	{r4, r7, pc}

0800525a <OLED_Dot>:


void OLED_Dot(uint8_t x,uint8_t y,uint8_t size, uint32_t color){
 800525a:	b590      	push	{r4, r7, lr}
 800525c:	b085      	sub	sp, #20
 800525e:	af02      	add	r7, sp, #8
 8005260:	603b      	str	r3, [r7, #0]
 8005262:	4603      	mov	r3, r0
 8005264:	71fb      	strb	r3, [r7, #7]
 8005266:	460b      	mov	r3, r1
 8005268:	71bb      	strb	r3, [r7, #6]
 800526a:	4613      	mov	r3, r2
 800526c:	717b      	strb	r3, [r7, #5]
	OLED_Rectangle(x, y, size, size, color);
 800526e:	683b      	ldr	r3, [r7, #0]
 8005270:	797c      	ldrb	r4, [r7, #5]
 8005272:	797a      	ldrb	r2, [r7, #5]
 8005274:	79b9      	ldrb	r1, [r7, #6]
 8005276:	79f8      	ldrb	r0, [r7, #7]
 8005278:	9300      	str	r3, [sp, #0]
 800527a:	4623      	mov	r3, r4
 800527c:	f7ff ffa0 	bl	80051c0 <OLED_Rectangle>
}
 8005280:	bf00      	nop
 8005282:	370c      	adds	r7, #12
 8005284:	46bd      	mov	sp, r7
 8005286:	bd90      	pop	{r4, r7, pc}

08005288 <OLED_WriteChar>:


void OLED_WriteChar(int16_t ch){
 8005288:	b590      	push	{r4, r7, lr}
 800528a:	b085      	sub	sp, #20
 800528c:	af00      	add	r7, sp, #0
 800528e:	4603      	mov	r3, r0
 8005290:	80fb      	strh	r3, [r7, #6]
	if(ch <= -1 && ch >= -3){
 8005292:	f9b7 3006 	ldrsh.w	r3, [r7, #6]
 8005296:	2b00      	cmp	r3, #0
 8005298:	da09      	bge.n	80052ae <OLED_WriteChar+0x26>
 800529a:	f9b7 3006 	ldrsh.w	r3, [r7, #6]
 800529e:	f113 0f03 	cmn.w	r3, #3
 80052a2:	db04      	blt.n	80052ae <OLED_WriteChar+0x26>
		ch = 131 + ch;
 80052a4:	88fb      	ldrh	r3, [r7, #6]
 80052a6:	3383      	adds	r3, #131	; 0x83
 80052a8:	b29b      	uxth	r3, r3
 80052aa:	80fb      	strh	r3, [r7, #6]
 80052ac:	e009      	b.n	80052c2 <OLED_WriteChar+0x3a>
	}
	else if(ch < 32 || ch >= 128){
 80052ae:	f9b7 3006 	ldrsh.w	r3, [r7, #6]
 80052b2:	2b1f      	cmp	r3, #31
 80052b4:	dd03      	ble.n	80052be <OLED_WriteChar+0x36>
 80052b6:	f9b7 3006 	ldrsh.w	r3, [r7, #6]
 80052ba:	2b7f      	cmp	r3, #127	; 0x7f
 80052bc:	dd01      	ble.n	80052c2 <OLED_WriteChar+0x3a>
		ch = 63;
 80052be:	233f      	movs	r3, #63	; 0x3f
 80052c0:	80fb      	strh	r3, [r7, #6]
	}

	ch -= 32;
 80052c2:	88fb      	ldrh	r3, [r7, #6]
 80052c4:	3b20      	subs	r3, #32
 80052c6:	b29b      	uxth	r3, r3
 80052c8:	80fb      	strh	r3, [r7, #6]
	for(uint8_t i=0; i<5; i++){
 80052ca:	2300      	movs	r3, #0
 80052cc:	73fb      	strb	r3, [r7, #15]
 80052ce:	e03d      	b.n	800534c <OLED_WriteChar+0xc4>
		uint8_t byte = characters[ch * 5 + i];
 80052d0:	f9b7 2006 	ldrsh.w	r2, [r7, #6]
 80052d4:	4613      	mov	r3, r2
 80052d6:	009b      	lsls	r3, r3, #2
 80052d8:	441a      	add	r2, r3
 80052da:	7bfb      	ldrb	r3, [r7, #15]
 80052dc:	4413      	add	r3, r2
 80052de:	4a25      	ldr	r2, [pc, #148]	; (8005374 <OLED_WriteChar+0xec>)
 80052e0:	5cd3      	ldrb	r3, [r2, r3]
 80052e2:	737b      	strb	r3, [r7, #13]
		for(uint8_t j=0; j<8; j++){
 80052e4:	2300      	movs	r3, #0
 80052e6:	73bb      	strb	r3, [r7, #14]
 80052e8:	e02a      	b.n	8005340 <OLED_WriteChar+0xb8>
			OLED_Dot(OLED_col + i * OLED_charPoint, OLED_row + j * OLED_charPoint, OLED_charPoint, \
 80052ea:	4b23      	ldr	r3, [pc, #140]	; (8005378 <OLED_WriteChar+0xf0>)
 80052ec:	781b      	ldrb	r3, [r3, #0]
 80052ee:	7bfa      	ldrb	r2, [r7, #15]
 80052f0:	fb12 f303 	smulbb	r3, r2, r3
 80052f4:	b2da      	uxtb	r2, r3
 80052f6:	4b21      	ldr	r3, [pc, #132]	; (800537c <OLED_WriteChar+0xf4>)
 80052f8:	781b      	ldrb	r3, [r3, #0]
 80052fa:	4413      	add	r3, r2
 80052fc:	b2d8      	uxtb	r0, r3
 80052fe:	4b1e      	ldr	r3, [pc, #120]	; (8005378 <OLED_WriteChar+0xf0>)
 8005300:	781b      	ldrb	r3, [r3, #0]
 8005302:	7bba      	ldrb	r2, [r7, #14]
 8005304:	fb12 f303 	smulbb	r3, r2, r3
 8005308:	b2da      	uxtb	r2, r3
 800530a:	4b1d      	ldr	r3, [pc, #116]	; (8005380 <OLED_WriteChar+0xf8>)
 800530c:	781b      	ldrb	r3, [r3, #0]
 800530e:	4413      	add	r3, r2
 8005310:	b2d9      	uxtb	r1, r3
 8005312:	4b19      	ldr	r3, [pc, #100]	; (8005378 <OLED_WriteChar+0xf0>)
 8005314:	781c      	ldrb	r4, [r3, #0]
					((byte>>(7-j))&0x01) ? OLED_charColor : OLED_bgColor);
 8005316:	7b7a      	ldrb	r2, [r7, #13]
 8005318:	7bbb      	ldrb	r3, [r7, #14]
 800531a:	f1c3 0307 	rsb	r3, r3, #7
 800531e:	fa42 f303 	asr.w	r3, r2, r3
 8005322:	f003 0301 	and.w	r3, r3, #1
			OLED_Dot(OLED_col + i * OLED_charPoint, OLED_row + j * OLED_charPoint, OLED_charPoint, \
 8005326:	2b00      	cmp	r3, #0
 8005328:	d002      	beq.n	8005330 <OLED_WriteChar+0xa8>
 800532a:	4b16      	ldr	r3, [pc, #88]	; (8005384 <OLED_WriteChar+0xfc>)
 800532c:	681b      	ldr	r3, [r3, #0]
 800532e:	e001      	b.n	8005334 <OLED_WriteChar+0xac>
 8005330:	4b15      	ldr	r3, [pc, #84]	; (8005388 <OLED_WriteChar+0x100>)
 8005332:	681b      	ldr	r3, [r3, #0]
 8005334:	4622      	mov	r2, r4
 8005336:	f7ff ff90 	bl	800525a <OLED_Dot>
		for(uint8_t j=0; j<8; j++){
 800533a:	7bbb      	ldrb	r3, [r7, #14]
 800533c:	3301      	adds	r3, #1
 800533e:	73bb      	strb	r3, [r7, #14]
 8005340:	7bbb      	ldrb	r3, [r7, #14]
 8005342:	2b07      	cmp	r3, #7
 8005344:	d9d1      	bls.n	80052ea <OLED_WriteChar+0x62>
	for(uint8_t i=0; i<5; i++){
 8005346:	7bfb      	ldrb	r3, [r7, #15]
 8005348:	3301      	adds	r3, #1
 800534a:	73fb      	strb	r3, [r7, #15]
 800534c:	7bfb      	ldrb	r3, [r7, #15]
 800534e:	2b04      	cmp	r3, #4
 8005350:	d9be      	bls.n	80052d0 <OLED_WriteChar+0x48>
		}
	}
	OLED_col += 6 * OLED_charPoint;
 8005352:	4b09      	ldr	r3, [pc, #36]	; (8005378 <OLED_WriteChar+0xf0>)
 8005354:	781b      	ldrb	r3, [r3, #0]
 8005356:	461a      	mov	r2, r3
 8005358:	0052      	lsls	r2, r2, #1
 800535a:	4413      	add	r3, r2
 800535c:	005b      	lsls	r3, r3, #1
 800535e:	b2da      	uxtb	r2, r3
 8005360:	4b06      	ldr	r3, [pc, #24]	; (800537c <OLED_WriteChar+0xf4>)
 8005362:	781b      	ldrb	r3, [r3, #0]
 8005364:	4413      	add	r3, r2
 8005366:	b2da      	uxtb	r2, r3
 8005368:	4b04      	ldr	r3, [pc, #16]	; (800537c <OLED_WriteChar+0xf4>)
 800536a:	701a      	strb	r2, [r3, #0]

}
 800536c:	bf00      	nop
 800536e:	3714      	adds	r7, #20
 8005370:	46bd      	mov	sp, r7
 8005372:	bd90      	pop	{r4, r7, pc}
 8005374:	20000014 	.word	0x20000014
 8005378:	20000010 	.word	0x20000010
 800537c:	2000000a 	.word	0x2000000a
 8005380:	20000009 	.word	0x20000009
 8005384:	2000000c 	.word	0x2000000c
 8005388:	200006dc 	.word	0x200006dc

0800538c <str2hex>:


static int str2hex(char * str){
 800538c:	b480      	push	{r7}
 800538e:	b085      	sub	sp, #20
 8005390:	af00      	add	r7, sp, #0
 8005392:	6078      	str	r0, [r7, #4]
	int result = 0;
 8005394:	2300      	movs	r3, #0
 8005396:	60fb      	str	r3, [r7, #12]
	for(int i=0; str[i]; i++){
 8005398:	2300      	movs	r3, #0
 800539a:	60bb      	str	r3, [r7, #8]
 800539c:	e049      	b.n	8005432 <str2hex+0xa6>
		if(str[i] >= '0' && str[i] <= '9'){
 800539e:	68bb      	ldr	r3, [r7, #8]
 80053a0:	687a      	ldr	r2, [r7, #4]
 80053a2:	4413      	add	r3, r2
 80053a4:	781b      	ldrb	r3, [r3, #0]
 80053a6:	2b2f      	cmp	r3, #47	; 0x2f
 80053a8:	d911      	bls.n	80053ce <str2hex+0x42>
 80053aa:	68bb      	ldr	r3, [r7, #8]
 80053ac:	687a      	ldr	r2, [r7, #4]
 80053ae:	4413      	add	r3, r2
 80053b0:	781b      	ldrb	r3, [r3, #0]
 80053b2:	2b39      	cmp	r3, #57	; 0x39
 80053b4:	d80b      	bhi.n	80053ce <str2hex+0x42>
			result <<= 4;
 80053b6:	68fb      	ldr	r3, [r7, #12]
 80053b8:	011b      	lsls	r3, r3, #4
 80053ba:	60fb      	str	r3, [r7, #12]
			result |= str[i] - '0';
 80053bc:	68bb      	ldr	r3, [r7, #8]
 80053be:	687a      	ldr	r2, [r7, #4]
 80053c0:	4413      	add	r3, r2
 80053c2:	781b      	ldrb	r3, [r3, #0]
 80053c4:	3b30      	subs	r3, #48	; 0x30
 80053c6:	68fa      	ldr	r2, [r7, #12]
 80053c8:	4313      	orrs	r3, r2
 80053ca:	60fb      	str	r3, [r7, #12]
 80053cc:	e02e      	b.n	800542c <str2hex+0xa0>
		}
		else if(str[i] >= 'A' && str[i] <= 'F'){
 80053ce:	68bb      	ldr	r3, [r7, #8]
 80053d0:	687a      	ldr	r2, [r7, #4]
 80053d2:	4413      	add	r3, r2
 80053d4:	781b      	ldrb	r3, [r3, #0]
 80053d6:	2b40      	cmp	r3, #64	; 0x40
 80053d8:	d911      	bls.n	80053fe <str2hex+0x72>
 80053da:	68bb      	ldr	r3, [r7, #8]
 80053dc:	687a      	ldr	r2, [r7, #4]
 80053de:	4413      	add	r3, r2
 80053e0:	781b      	ldrb	r3, [r3, #0]
 80053e2:	2b46      	cmp	r3, #70	; 0x46
 80053e4:	d80b      	bhi.n	80053fe <str2hex+0x72>
			result <<= 4;
 80053e6:	68fb      	ldr	r3, [r7, #12]
 80053e8:	011b      	lsls	r3, r3, #4
 80053ea:	60fb      	str	r3, [r7, #12]
			result |= str[i] - 'A' + 10;
 80053ec:	68bb      	ldr	r3, [r7, #8]
 80053ee:	687a      	ldr	r2, [r7, #4]
 80053f0:	4413      	add	r3, r2
 80053f2:	781b      	ldrb	r3, [r3, #0]
 80053f4:	3b37      	subs	r3, #55	; 0x37
 80053f6:	68fa      	ldr	r2, [r7, #12]
 80053f8:	4313      	orrs	r3, r2
 80053fa:	60fb      	str	r3, [r7, #12]
 80053fc:	e016      	b.n	800542c <str2hex+0xa0>
		}
		else if(str[i] >= 'a' && str[i] <= 'f'){
 80053fe:	68bb      	ldr	r3, [r7, #8]
 8005400:	687a      	ldr	r2, [r7, #4]
 8005402:	4413      	add	r3, r2
 8005404:	781b      	ldrb	r3, [r3, #0]
 8005406:	2b60      	cmp	r3, #96	; 0x60
 8005408:	d910      	bls.n	800542c <str2hex+0xa0>
 800540a:	68bb      	ldr	r3, [r7, #8]
 800540c:	687a      	ldr	r2, [r7, #4]
 800540e:	4413      	add	r3, r2
 8005410:	781b      	ldrb	r3, [r3, #0]
 8005412:	2b66      	cmp	r3, #102	; 0x66
 8005414:	d80a      	bhi.n	800542c <str2hex+0xa0>
			result <<= 4;
 8005416:	68fb      	ldr	r3, [r7, #12]
 8005418:	011b      	lsls	r3, r3, #4
 800541a:	60fb      	str	r3, [r7, #12]
			result |= str[i] - 'a' + 10;
 800541c:	68bb      	ldr	r3, [r7, #8]
 800541e:	687a      	ldr	r2, [r7, #4]
 8005420:	4413      	add	r3, r2
 8005422:	781b      	ldrb	r3, [r3, #0]
 8005424:	3b57      	subs	r3, #87	; 0x57
 8005426:	68fa      	ldr	r2, [r7, #12]
 8005428:	4313      	orrs	r3, r2
 800542a:	60fb      	str	r3, [r7, #12]
	for(int i=0; str[i]; i++){
 800542c:	68bb      	ldr	r3, [r7, #8]
 800542e:	3301      	adds	r3, #1
 8005430:	60bb      	str	r3, [r7, #8]
 8005432:	68bb      	ldr	r3, [r7, #8]
 8005434:	687a      	ldr	r2, [r7, #4]
 8005436:	4413      	add	r3, r2
 8005438:	781b      	ldrb	r3, [r3, #0]
 800543a:	2b00      	cmp	r3, #0
 800543c:	d1af      	bne.n	800539e <str2hex+0x12>
		}
	}
	return result;
 800543e:	68fb      	ldr	r3, [r7, #12]
}
 8005440:	4618      	mov	r0, r3
 8005442:	3714      	adds	r7, #20
 8005444:	46bd      	mov	sp, r7
 8005446:	f85d 7b04 	ldr.w	r7, [sp], #4
 800544a:	4770      	bx	lr

0800544c <OLED_Printf>:

#define OLED
void OLED_Printf(const char * format, ...){
 800544c:	b40f      	push	{r0, r1, r2, r3}
 800544e:	b580      	push	{r7, lr}
 8005450:	b0c4      	sub	sp, #272	; 0x110
 8005452:	af00      	add	r7, sp, #0
	/*
	 * buffer   static  ,   4GB     
	 * STM32F411      128kB       .
	 */
	char buffer[256] = { 0 };
 8005454:	f507 7388 	add.w	r3, r7, #272	; 0x110
 8005458:	f5a3 7382 	sub.w	r3, r3, #260	; 0x104
 800545c:	2200      	movs	r2, #0
 800545e:	601a      	str	r2, [r3, #0]
 8005460:	3304      	adds	r3, #4
 8005462:	22fc      	movs	r2, #252	; 0xfc
 8005464:	2100      	movs	r1, #0
 8005466:	4618      	mov	r0, r3
 8005468:	f001 fe2a 	bl	80070c0 <memset>

	//    buffer .
	va_list args;
	va_start(args, format);
 800546c:	f507 728e 	add.w	r2, r7, #284	; 0x11c
 8005470:	f507 7388 	add.w	r3, r7, #272	; 0x110
 8005474:	f5a3 7384 	sub.w	r3, r3, #264	; 0x108
 8005478:	601a      	str	r2, [r3, #0]
	vsprintf(buffer, format, args);
 800547a:	f507 7388 	add.w	r3, r7, #272	; 0x110
 800547e:	f5a3 7384 	sub.w	r3, r3, #264	; 0x108
 8005482:	f107 000c 	add.w	r0, r7, #12
 8005486:	681a      	ldr	r2, [r3, #0]
 8005488:	f8d7 1118 	ldr.w	r1, [r7, #280]	; 0x118
 800548c:	f002 fc48 	bl	8007d20 <vsiprintf>
//#ifdef OLED
//	oled_row = 0;
//	oled_col = 0;
//#endif
	//   /0, /1     .
	for (char *c = buffer; *c; c++) {
 8005490:	f107 030c 	add.w	r3, r7, #12
 8005494:	f8c7 310c 	str.w	r3, [r7, #268]	; 0x10c
 8005498:	e2f0      	b.n	8005a7c <OLED_Printf+0x630>
		if (*c == '/' && (*(c + 1) >= '0' && *(c + 1) <= '6')) {//  7 /   3
 800549a:	f8d7 310c 	ldr.w	r3, [r7, #268]	; 0x10c
 800549e:	781b      	ldrb	r3, [r3, #0]
 80054a0:	2b2f      	cmp	r3, #47	; 0x2f
 80054a2:	d13c      	bne.n	800551e <OLED_Printf+0xd2>
 80054a4:	f8d7 310c 	ldr.w	r3, [r7, #268]	; 0x10c
 80054a8:	3301      	adds	r3, #1
 80054aa:	781b      	ldrb	r3, [r3, #0]
 80054ac:	2b2f      	cmp	r3, #47	; 0x2f
 80054ae:	d936      	bls.n	800551e <OLED_Printf+0xd2>
 80054b0:	f8d7 310c 	ldr.w	r3, [r7, #268]	; 0x10c
 80054b4:	3301      	adds	r3, #1
 80054b6:	781b      	ldrb	r3, [r3, #0]
 80054b8:	2b36      	cmp	r3, #54	; 0x36
 80054ba:	d830      	bhi.n	800551e <OLED_Printf+0xd2>
			OLED_row = 1 + 9 * OLED_charPoint * (*(c + 1) - '0');
 80054bc:	f8d7 310c 	ldr.w	r3, [r7, #268]	; 0x10c
 80054c0:	3301      	adds	r3, #1
 80054c2:	781b      	ldrb	r3, [r3, #0]
 80054c4:	3b30      	subs	r3, #48	; 0x30
 80054c6:	b2da      	uxtb	r2, r3
 80054c8:	4ba7      	ldr	r3, [pc, #668]	; (8005768 <OLED_Printf+0x31c>)
 80054ca:	781b      	ldrb	r3, [r3, #0]
 80054cc:	fb12 f303 	smulbb	r3, r2, r3
 80054d0:	b2db      	uxtb	r3, r3
 80054d2:	461a      	mov	r2, r3
 80054d4:	00d2      	lsls	r2, r2, #3
 80054d6:	4413      	add	r3, r2
 80054d8:	b2db      	uxtb	r3, r3
 80054da:	3301      	adds	r3, #1
 80054dc:	b2da      	uxtb	r2, r3
 80054de:	4ba3      	ldr	r3, [pc, #652]	; (800576c <OLED_Printf+0x320>)
 80054e0:	701a      	strb	r2, [r3, #0]
			if(OLED_row > 60 || (OLED_row >= 54 && OLED_charPoint == 2)){
 80054e2:	4ba2      	ldr	r3, [pc, #648]	; (800576c <OLED_Printf+0x320>)
 80054e4:	781b      	ldrb	r3, [r3, #0]
 80054e6:	2b3c      	cmp	r3, #60	; 0x3c
 80054e8:	d807      	bhi.n	80054fa <OLED_Printf+0xae>
 80054ea:	4ba0      	ldr	r3, [pc, #640]	; (800576c <OLED_Printf+0x320>)
 80054ec:	781b      	ldrb	r3, [r3, #0]
 80054ee:	2b35      	cmp	r3, #53	; 0x35
 80054f0:	d90c      	bls.n	800550c <OLED_Printf+0xc0>
 80054f2:	4b9d      	ldr	r3, [pc, #628]	; (8005768 <OLED_Printf+0x31c>)
 80054f4:	781b      	ldrb	r3, [r3, #0]
 80054f6:	2b02      	cmp	r3, #2
 80054f8:	d108      	bne.n	800550c <OLED_Printf+0xc0>
				OLED_row = 18 * OLED_charPoint;
 80054fa:	4b9b      	ldr	r3, [pc, #620]	; (8005768 <OLED_Printf+0x31c>)
 80054fc:	781b      	ldrb	r3, [r3, #0]
 80054fe:	461a      	mov	r2, r3
 8005500:	00d2      	lsls	r2, r2, #3
 8005502:	4413      	add	r3, r2
 8005504:	005b      	lsls	r3, r3, #1
 8005506:	b2da      	uxtb	r2, r3
 8005508:	4b98      	ldr	r3, [pc, #608]	; (800576c <OLED_Printf+0x320>)
 800550a:	701a      	strb	r2, [r3, #0]
			}
			OLED_col = 1;
 800550c:	4b98      	ldr	r3, [pc, #608]	; (8005770 <OLED_Printf+0x324>)
 800550e:	2201      	movs	r2, #1
 8005510:	701a      	strb	r2, [r3, #0]
			c += 1;
 8005512:	f8d7 310c 	ldr.w	r3, [r7, #268]	; 0x10c
 8005516:	3301      	adds	r3, #1
 8005518:	f8c7 310c 	str.w	r3, [r7, #268]	; 0x10c
			continue;
 800551c:	e2a9      	b.n	8005a72 <OLED_Printf+0x626>
		}
		else if (*c == '/' && *(c + 1) == '#'){
 800551e:	f8d7 310c 	ldr.w	r3, [r7, #268]	; 0x10c
 8005522:	781b      	ldrb	r3, [r3, #0]
 8005524:	2b2f      	cmp	r3, #47	; 0x2f
 8005526:	d128      	bne.n	800557a <OLED_Printf+0x12e>
 8005528:	f8d7 310c 	ldr.w	r3, [r7, #268]	; 0x10c
 800552c:	3301      	adds	r3, #1
 800552e:	781b      	ldrb	r3, [r3, #0]
 8005530:	2b23      	cmp	r3, #35	; 0x23
 8005532:	d122      	bne.n	800557a <OLED_Printf+0x12e>
			char str[7] = {0,0,0,0,0,0,0};
 8005534:	f507 7388 	add.w	r3, r7, #272	; 0x110
 8005538:	f5a3 7388 	sub.w	r3, r3, #272	; 0x110
 800553c:	4a8d      	ldr	r2, [pc, #564]	; (8005774 <OLED_Printf+0x328>)
 800553e:	e892 0003 	ldmia.w	r2, {r0, r1}
 8005542:	6018      	str	r0, [r3, #0]
 8005544:	3304      	adds	r3, #4
 8005546:	8019      	strh	r1, [r3, #0]
 8005548:	3302      	adds	r3, #2
 800554a:	0c0a      	lsrs	r2, r1, #16
 800554c:	701a      	strb	r2, [r3, #0]
			strncpy(str, c+2, 6);
 800554e:	f8d7 310c 	ldr.w	r3, [r7, #268]	; 0x10c
 8005552:	1c99      	adds	r1, r3, #2
 8005554:	463b      	mov	r3, r7
 8005556:	2206      	movs	r2, #6
 8005558:	4618      	mov	r0, r3
 800555a:	f002 fbb7 	bl	8007ccc <strncpy>
			OLED_charColor = str2hex(str);
 800555e:	463b      	mov	r3, r7
 8005560:	4618      	mov	r0, r3
 8005562:	f7ff ff13 	bl	800538c <str2hex>
 8005566:	4603      	mov	r3, r0
 8005568:	461a      	mov	r2, r3
 800556a:	4b83      	ldr	r3, [pc, #524]	; (8005778 <OLED_Printf+0x32c>)
 800556c:	601a      	str	r2, [r3, #0]
			c += 7;
 800556e:	f8d7 310c 	ldr.w	r3, [r7, #268]	; 0x10c
 8005572:	3307      	adds	r3, #7
 8005574:	f8c7 310c 	str.w	r3, [r7, #268]	; 0x10c
 8005578:	e27b      	b.n	8005a72 <OLED_Printf+0x626>
			continue;
		}
		else if (*c == '/' && *(c + 1) == 'S'){
 800557a:	f8d7 310c 	ldr.w	r3, [r7, #268]	; 0x10c
 800557e:	781b      	ldrb	r3, [r3, #0]
 8005580:	2b2f      	cmp	r3, #47	; 0x2f
 8005582:	d10e      	bne.n	80055a2 <OLED_Printf+0x156>
 8005584:	f8d7 310c 	ldr.w	r3, [r7, #268]	; 0x10c
 8005588:	3301      	adds	r3, #1
 800558a:	781b      	ldrb	r3, [r3, #0]
 800558c:	2b53      	cmp	r3, #83	; 0x53
 800558e:	d108      	bne.n	80055a2 <OLED_Printf+0x156>
			//Size Big
			OLED_charPoint = 2;
 8005590:	4b75      	ldr	r3, [pc, #468]	; (8005768 <OLED_Printf+0x31c>)
 8005592:	2202      	movs	r2, #2
 8005594:	701a      	strb	r2, [r3, #0]
			c += 1;
 8005596:	f8d7 310c 	ldr.w	r3, [r7, #268]	; 0x10c
 800559a:	3301      	adds	r3, #1
 800559c:	f8c7 310c 	str.w	r3, [r7, #268]	; 0x10c
			continue;
 80055a0:	e267      	b.n	8005a72 <OLED_Printf+0x626>
		}
		else if (*c == '/' && *(c + 1) == 's'){
 80055a2:	f8d7 310c 	ldr.w	r3, [r7, #268]	; 0x10c
 80055a6:	781b      	ldrb	r3, [r3, #0]
 80055a8:	2b2f      	cmp	r3, #47	; 0x2f
 80055aa:	d10e      	bne.n	80055ca <OLED_Printf+0x17e>
 80055ac:	f8d7 310c 	ldr.w	r3, [r7, #268]	; 0x10c
 80055b0:	3301      	adds	r3, #1
 80055b2:	781b      	ldrb	r3, [r3, #0]
 80055b4:	2b73      	cmp	r3, #115	; 0x73
 80055b6:	d108      	bne.n	80055ca <OLED_Printf+0x17e>
			//Size Big
			OLED_charPoint = 1;
 80055b8:	4b6b      	ldr	r3, [pc, #428]	; (8005768 <OLED_Printf+0x31c>)
 80055ba:	2201      	movs	r2, #1
 80055bc:	701a      	strb	r2, [r3, #0]
			c += 1;
 80055be:	f8d7 310c 	ldr.w	r3, [r7, #268]	; 0x10c
 80055c2:	3301      	adds	r3, #1
 80055c4:	f8c7 310c 	str.w	r3, [r7, #268]	; 0x10c
			continue;
 80055c8:	e253      	b.n	8005a72 <OLED_Printf+0x626>
		}
		else if (*c == '/' && *(c + 1) == 'r'){//RGBCMY  2  OLED (     OLED   )
 80055ca:	f8d7 310c 	ldr.w	r3, [r7, #268]	; 0x10c
 80055ce:	781b      	ldrb	r3, [r3, #0]
 80055d0:	2b2f      	cmp	r3, #47	; 0x2f
 80055d2:	d10f      	bne.n	80055f4 <OLED_Printf+0x1a8>
 80055d4:	f8d7 310c 	ldr.w	r3, [r7, #268]	; 0x10c
 80055d8:	3301      	adds	r3, #1
 80055da:	781b      	ldrb	r3, [r3, #0]
 80055dc:	2b72      	cmp	r3, #114	; 0x72
 80055de:	d109      	bne.n	80055f4 <OLED_Printf+0x1a8>
			OLED_charColor = 0xFF0000;
 80055e0:	4b65      	ldr	r3, [pc, #404]	; (8005778 <OLED_Printf+0x32c>)
 80055e2:	f44f 027f 	mov.w	r2, #16711680	; 0xff0000
 80055e6:	601a      	str	r2, [r3, #0]
			c += 1;
 80055e8:	f8d7 310c 	ldr.w	r3, [r7, #268]	; 0x10c
 80055ec:	3301      	adds	r3, #1
 80055ee:	f8c7 310c 	str.w	r3, [r7, #268]	; 0x10c
			continue;
 80055f2:	e23e      	b.n	8005a72 <OLED_Printf+0x626>
		}
		else if (*c == '/' && *(c + 1) == 'g'){
 80055f4:	f8d7 310c 	ldr.w	r3, [r7, #268]	; 0x10c
 80055f8:	781b      	ldrb	r3, [r3, #0]
 80055fa:	2b2f      	cmp	r3, #47	; 0x2f
 80055fc:	d10f      	bne.n	800561e <OLED_Printf+0x1d2>
 80055fe:	f8d7 310c 	ldr.w	r3, [r7, #268]	; 0x10c
 8005602:	3301      	adds	r3, #1
 8005604:	781b      	ldrb	r3, [r3, #0]
 8005606:	2b67      	cmp	r3, #103	; 0x67
 8005608:	d109      	bne.n	800561e <OLED_Printf+0x1d2>
			OLED_charColor = 0x00FF00;
 800560a:	4b5b      	ldr	r3, [pc, #364]	; (8005778 <OLED_Printf+0x32c>)
 800560c:	f44f 427f 	mov.w	r2, #65280	; 0xff00
 8005610:	601a      	str	r2, [r3, #0]
			c += 1;
 8005612:	f8d7 310c 	ldr.w	r3, [r7, #268]	; 0x10c
 8005616:	3301      	adds	r3, #1
 8005618:	f8c7 310c 	str.w	r3, [r7, #268]	; 0x10c
			continue;
 800561c:	e229      	b.n	8005a72 <OLED_Printf+0x626>
		}
		else if (*c == '/' && *(c + 1) == 'b'){
 800561e:	f8d7 310c 	ldr.w	r3, [r7, #268]	; 0x10c
 8005622:	781b      	ldrb	r3, [r3, #0]
 8005624:	2b2f      	cmp	r3, #47	; 0x2f
 8005626:	d10e      	bne.n	8005646 <OLED_Printf+0x1fa>
 8005628:	f8d7 310c 	ldr.w	r3, [r7, #268]	; 0x10c
 800562c:	3301      	adds	r3, #1
 800562e:	781b      	ldrb	r3, [r3, #0]
 8005630:	2b62      	cmp	r3, #98	; 0x62
 8005632:	d108      	bne.n	8005646 <OLED_Printf+0x1fa>
			OLED_charColor = 0x0000FF;
 8005634:	4b50      	ldr	r3, [pc, #320]	; (8005778 <OLED_Printf+0x32c>)
 8005636:	22ff      	movs	r2, #255	; 0xff
 8005638:	601a      	str	r2, [r3, #0]
			c += 1;
 800563a:	f8d7 310c 	ldr.w	r3, [r7, #268]	; 0x10c
 800563e:	3301      	adds	r3, #1
 8005640:	f8c7 310c 	str.w	r3, [r7, #268]	; 0x10c
			continue;
 8005644:	e215      	b.n	8005a72 <OLED_Printf+0x626>
		}
		else if (*c == '/' && *(c + 1) == 'y'){
 8005646:	f8d7 310c 	ldr.w	r3, [r7, #268]	; 0x10c
 800564a:	781b      	ldrb	r3, [r3, #0]
 800564c:	2b2f      	cmp	r3, #47	; 0x2f
 800564e:	d10e      	bne.n	800566e <OLED_Printf+0x222>
 8005650:	f8d7 310c 	ldr.w	r3, [r7, #268]	; 0x10c
 8005654:	3301      	adds	r3, #1
 8005656:	781b      	ldrb	r3, [r3, #0]
 8005658:	2b79      	cmp	r3, #121	; 0x79
 800565a:	d108      	bne.n	800566e <OLED_Printf+0x222>
			OLED_charColor = 0xFFFF00;
 800565c:	4b46      	ldr	r3, [pc, #280]	; (8005778 <OLED_Printf+0x32c>)
 800565e:	4a47      	ldr	r2, [pc, #284]	; (800577c <OLED_Printf+0x330>)
 8005660:	601a      	str	r2, [r3, #0]
			c += 1;
 8005662:	f8d7 310c 	ldr.w	r3, [r7, #268]	; 0x10c
 8005666:	3301      	adds	r3, #1
 8005668:	f8c7 310c 	str.w	r3, [r7, #268]	; 0x10c
			continue;
 800566c:	e201      	b.n	8005a72 <OLED_Printf+0x626>
		}
		else if (*c == '/' && *(c + 1) == 'c'){
 800566e:	f8d7 310c 	ldr.w	r3, [r7, #268]	; 0x10c
 8005672:	781b      	ldrb	r3, [r3, #0]
 8005674:	2b2f      	cmp	r3, #47	; 0x2f
 8005676:	d10f      	bne.n	8005698 <OLED_Printf+0x24c>
 8005678:	f8d7 310c 	ldr.w	r3, [r7, #268]	; 0x10c
 800567c:	3301      	adds	r3, #1
 800567e:	781b      	ldrb	r3, [r3, #0]
 8005680:	2b63      	cmp	r3, #99	; 0x63
 8005682:	d109      	bne.n	8005698 <OLED_Printf+0x24c>
			OLED_charColor = 0x00FFFF;
 8005684:	4b3c      	ldr	r3, [pc, #240]	; (8005778 <OLED_Printf+0x32c>)
 8005686:	f64f 72ff 	movw	r2, #65535	; 0xffff
 800568a:	601a      	str	r2, [r3, #0]
			c += 1;
 800568c:	f8d7 310c 	ldr.w	r3, [r7, #268]	; 0x10c
 8005690:	3301      	adds	r3, #1
 8005692:	f8c7 310c 	str.w	r3, [r7, #268]	; 0x10c
			continue;
 8005696:	e1ec      	b.n	8005a72 <OLED_Printf+0x626>
		}
		else if (*c == '/' && *(c + 1) == 'm'){
 8005698:	f8d7 310c 	ldr.w	r3, [r7, #268]	; 0x10c
 800569c:	781b      	ldrb	r3, [r3, #0]
 800569e:	2b2f      	cmp	r3, #47	; 0x2f
 80056a0:	d10f      	bne.n	80056c2 <OLED_Printf+0x276>
 80056a2:	f8d7 310c 	ldr.w	r3, [r7, #268]	; 0x10c
 80056a6:	3301      	adds	r3, #1
 80056a8:	781b      	ldrb	r3, [r3, #0]
 80056aa:	2b6d      	cmp	r3, #109	; 0x6d
 80056ac:	d109      	bne.n	80056c2 <OLED_Printf+0x276>
			OLED_charColor = 0xFF00FF;
 80056ae:	4b32      	ldr	r3, [pc, #200]	; (8005778 <OLED_Printf+0x32c>)
 80056b0:	f04f 12ff 	mov.w	r2, #16711935	; 0xff00ff
 80056b4:	601a      	str	r2, [r3, #0]
			c += 1;
 80056b6:	f8d7 310c 	ldr.w	r3, [r7, #268]	; 0x10c
 80056ba:	3301      	adds	r3, #1
 80056bc:	f8c7 310c 	str.w	r3, [r7, #268]	; 0x10c
			continue;
 80056c0:	e1d7      	b.n	8005a72 <OLED_Printf+0x626>
		}
		else if (*c == '/' && *(c + 1) == 'w'){//White  OLED  
 80056c2:	f8d7 310c 	ldr.w	r3, [r7, #268]	; 0x10c
 80056c6:	781b      	ldrb	r3, [r3, #0]
 80056c8:	2b2f      	cmp	r3, #47	; 0x2f
 80056ca:	d10f      	bne.n	80056ec <OLED_Printf+0x2a0>
 80056cc:	f8d7 310c 	ldr.w	r3, [r7, #268]	; 0x10c
 80056d0:	3301      	adds	r3, #1
 80056d2:	781b      	ldrb	r3, [r3, #0]
 80056d4:	2b77      	cmp	r3, #119	; 0x77
 80056d6:	d109      	bne.n	80056ec <OLED_Printf+0x2a0>
			OLED_charColor = 0xFFFFFF;
 80056d8:	4b27      	ldr	r3, [pc, #156]	; (8005778 <OLED_Printf+0x32c>)
 80056da:	f06f 427f 	mvn.w	r2, #4278190080	; 0xff000000
 80056de:	601a      	str	r2, [r3, #0]
			c += 1;
 80056e0:	f8d7 310c 	ldr.w	r3, [r7, #268]	; 0x10c
 80056e4:	3301      	adds	r3, #1
 80056e6:	f8c7 310c 	str.w	r3, [r7, #268]	; 0x10c
			continue;
 80056ea:	e1c2      	b.n	8005a72 <OLED_Printf+0x626>
		}
		else if (*c == '/' && *(c + 1) == 'k'){//key color  OLED 
 80056ec:	f8d7 310c 	ldr.w	r3, [r7, #268]	; 0x10c
 80056f0:	781b      	ldrb	r3, [r3, #0]
 80056f2:	2b2f      	cmp	r3, #47	; 0x2f
 80056f4:	d10f      	bne.n	8005716 <OLED_Printf+0x2ca>
 80056f6:	f8d7 310c 	ldr.w	r3, [r7, #268]	; 0x10c
 80056fa:	3301      	adds	r3, #1
 80056fc:	781b      	ldrb	r3, [r3, #0]
 80056fe:	2b6b      	cmp	r3, #107	; 0x6b
 8005700:	d109      	bne.n	8005716 <OLED_Printf+0x2ca>
			OLED_charColor = 0xFFFFFF;
 8005702:	4b1d      	ldr	r3, [pc, #116]	; (8005778 <OLED_Printf+0x32c>)
 8005704:	f06f 427f 	mvn.w	r2, #4278190080	; 0xff000000
 8005708:	601a      	str	r2, [r3, #0]
			c += 1;
 800570a:	f8d7 310c 	ldr.w	r3, [r7, #268]	; 0x10c
 800570e:	3301      	adds	r3, #1
 8005710:	f8c7 310c 	str.w	r3, [r7, #268]	; 0x10c
			continue;
 8005714:	e1ad      	b.n	8005a72 <OLED_Printf+0x626>
		}
		else if (*c == '/' && *(c + 1) == 'R'){
 8005716:	f8d7 310c 	ldr.w	r3, [r7, #268]	; 0x10c
 800571a:	781b      	ldrb	r3, [r3, #0]
 800571c:	2b2f      	cmp	r3, #47	; 0x2f
 800571e:	d10e      	bne.n	800573e <OLED_Printf+0x2f2>
 8005720:	f8d7 310c 	ldr.w	r3, [r7, #268]	; 0x10c
 8005724:	3301      	adds	r3, #1
 8005726:	781b      	ldrb	r3, [r3, #0]
 8005728:	2b52      	cmp	r3, #82	; 0x52
 800572a:	d108      	bne.n	800573e <OLED_Printf+0x2f2>
			OLED_charColor = 0xFF7777;
 800572c:	4b12      	ldr	r3, [pc, #72]	; (8005778 <OLED_Printf+0x32c>)
 800572e:	4a14      	ldr	r2, [pc, #80]	; (8005780 <OLED_Printf+0x334>)
 8005730:	601a      	str	r2, [r3, #0]
			c += 1;
 8005732:	f8d7 310c 	ldr.w	r3, [r7, #268]	; 0x10c
 8005736:	3301      	adds	r3, #1
 8005738:	f8c7 310c 	str.w	r3, [r7, #268]	; 0x10c
			continue;
 800573c:	e199      	b.n	8005a72 <OLED_Printf+0x626>
		}
		else if (*c == '/' && *(c + 1) == 'G'){
 800573e:	f8d7 310c 	ldr.w	r3, [r7, #268]	; 0x10c
 8005742:	781b      	ldrb	r3, [r3, #0]
 8005744:	2b2f      	cmp	r3, #47	; 0x2f
 8005746:	d11f      	bne.n	8005788 <OLED_Printf+0x33c>
 8005748:	f8d7 310c 	ldr.w	r3, [r7, #268]	; 0x10c
 800574c:	3301      	adds	r3, #1
 800574e:	781b      	ldrb	r3, [r3, #0]
 8005750:	2b47      	cmp	r3, #71	; 0x47
 8005752:	d119      	bne.n	8005788 <OLED_Printf+0x33c>
			OLED_charColor = 0x77FF77;
 8005754:	4b08      	ldr	r3, [pc, #32]	; (8005778 <OLED_Printf+0x32c>)
 8005756:	4a0b      	ldr	r2, [pc, #44]	; (8005784 <OLED_Printf+0x338>)
 8005758:	601a      	str	r2, [r3, #0]
			c += 1;
 800575a:	f8d7 310c 	ldr.w	r3, [r7, #268]	; 0x10c
 800575e:	3301      	adds	r3, #1
 8005760:	f8c7 310c 	str.w	r3, [r7, #268]	; 0x10c
			continue;
 8005764:	e185      	b.n	8005a72 <OLED_Printf+0x626>
 8005766:	bf00      	nop
 8005768:	20000010 	.word	0x20000010
 800576c:	20000009 	.word	0x20000009
 8005770:	2000000a 	.word	0x2000000a
 8005774:	08009fe8 	.word	0x08009fe8
 8005778:	2000000c 	.word	0x2000000c
 800577c:	00ffff00 	.word	0x00ffff00
 8005780:	00ff7777 	.word	0x00ff7777
 8005784:	0077ff77 	.word	0x0077ff77
		}
		else if (*c == '/' && *(c + 1) == 'B'){
 8005788:	f8d7 310c 	ldr.w	r3, [r7, #268]	; 0x10c
 800578c:	781b      	ldrb	r3, [r3, #0]
 800578e:	2b2f      	cmp	r3, #47	; 0x2f
 8005790:	d10e      	bne.n	80057b0 <OLED_Printf+0x364>
 8005792:	f8d7 310c 	ldr.w	r3, [r7, #268]	; 0x10c
 8005796:	3301      	adds	r3, #1
 8005798:	781b      	ldrb	r3, [r3, #0]
 800579a:	2b42      	cmp	r3, #66	; 0x42
 800579c:	d108      	bne.n	80057b0 <OLED_Printf+0x364>
			OLED_charColor = 0x7777FF;
 800579e:	4ba9      	ldr	r3, [pc, #676]	; (8005a44 <OLED_Printf+0x5f8>)
 80057a0:	4aa9      	ldr	r2, [pc, #676]	; (8005a48 <OLED_Printf+0x5fc>)
 80057a2:	601a      	str	r2, [r3, #0]
			c += 1;
 80057a4:	f8d7 310c 	ldr.w	r3, [r7, #268]	; 0x10c
 80057a8:	3301      	adds	r3, #1
 80057aa:	f8c7 310c 	str.w	r3, [r7, #268]	; 0x10c
			continue;
 80057ae:	e160      	b.n	8005a72 <OLED_Printf+0x626>
		}

		//Additional Color :  .
		else if (*c == '/' && *(c + 1) == 'o'){
 80057b0:	f8d7 310c 	ldr.w	r3, [r7, #268]	; 0x10c
 80057b4:	781b      	ldrb	r3, [r3, #0]
 80057b6:	2b2f      	cmp	r3, #47	; 0x2f
 80057b8:	d10e      	bne.n	80057d8 <OLED_Printf+0x38c>
 80057ba:	f8d7 310c 	ldr.w	r3, [r7, #268]	; 0x10c
 80057be:	3301      	adds	r3, #1
 80057c0:	781b      	ldrb	r3, [r3, #0]
 80057c2:	2b6f      	cmp	r3, #111	; 0x6f
 80057c4:	d108      	bne.n	80057d8 <OLED_Printf+0x38c>
			OLED_charColor = 0xFF7700;
 80057c6:	4b9f      	ldr	r3, [pc, #636]	; (8005a44 <OLED_Printf+0x5f8>)
 80057c8:	4aa0      	ldr	r2, [pc, #640]	; (8005a4c <OLED_Printf+0x600>)
 80057ca:	601a      	str	r2, [r3, #0]
			c += 1;
 80057cc:	f8d7 310c 	ldr.w	r3, [r7, #268]	; 0x10c
 80057d0:	3301      	adds	r3, #1
 80057d2:	f8c7 310c 	str.w	r3, [r7, #268]	; 0x10c
			continue;
 80057d6:	e14c      	b.n	8005a72 <OLED_Printf+0x626>
		}
		else if (*c == '/' && *(c + 1) == 'l'){
 80057d8:	f8d7 310c 	ldr.w	r3, [r7, #268]	; 0x10c
 80057dc:	781b      	ldrb	r3, [r3, #0]
 80057de:	2b2f      	cmp	r3, #47	; 0x2f
 80057e0:	d10e      	bne.n	8005800 <OLED_Printf+0x3b4>
 80057e2:	f8d7 310c 	ldr.w	r3, [r7, #268]	; 0x10c
 80057e6:	3301      	adds	r3, #1
 80057e8:	781b      	ldrb	r3, [r3, #0]
 80057ea:	2b6c      	cmp	r3, #108	; 0x6c
 80057ec:	d108      	bne.n	8005800 <OLED_Printf+0x3b4>
			OLED_charColor = 0x77FF00;
 80057ee:	4b95      	ldr	r3, [pc, #596]	; (8005a44 <OLED_Printf+0x5f8>)
 80057f0:	4a97      	ldr	r2, [pc, #604]	; (8005a50 <OLED_Printf+0x604>)
 80057f2:	601a      	str	r2, [r3, #0]
			c += 1;
 80057f4:	f8d7 310c 	ldr.w	r3, [r7, #268]	; 0x10c
 80057f8:	3301      	adds	r3, #1
 80057fa:	f8c7 310c 	str.w	r3, [r7, #268]	; 0x10c
			continue;
 80057fe:	e138      	b.n	8005a72 <OLED_Printf+0x626>
		}
		else if (*c == '/' && *(c + 1) == 't'){
 8005800:	f8d7 310c 	ldr.w	r3, [r7, #268]	; 0x10c
 8005804:	781b      	ldrb	r3, [r3, #0]
 8005806:	2b2f      	cmp	r3, #47	; 0x2f
 8005808:	d10f      	bne.n	800582a <OLED_Printf+0x3de>
 800580a:	f8d7 310c 	ldr.w	r3, [r7, #268]	; 0x10c
 800580e:	3301      	adds	r3, #1
 8005810:	781b      	ldrb	r3, [r3, #0]
 8005812:	2b74      	cmp	r3, #116	; 0x74
 8005814:	d109      	bne.n	800582a <OLED_Printf+0x3de>
			OLED_charColor = 0x00FF77;
 8005816:	4b8b      	ldr	r3, [pc, #556]	; (8005a44 <OLED_Printf+0x5f8>)
 8005818:	f64f 7277 	movw	r2, #65399	; 0xff77
 800581c:	601a      	str	r2, [r3, #0]
			c += 1;
 800581e:	f8d7 310c 	ldr.w	r3, [r7, #268]	; 0x10c
 8005822:	3301      	adds	r3, #1
 8005824:	f8c7 310c 	str.w	r3, [r7, #268]	; 0x10c
			continue;
 8005828:	e123      	b.n	8005a72 <OLED_Printf+0x626>
		}
		else if (*c == '/' && *(c + 1) == 'e'){
 800582a:	f8d7 310c 	ldr.w	r3, [r7, #268]	; 0x10c
 800582e:	781b      	ldrb	r3, [r3, #0]
 8005830:	2b2f      	cmp	r3, #47	; 0x2f
 8005832:	d10f      	bne.n	8005854 <OLED_Printf+0x408>
 8005834:	f8d7 310c 	ldr.w	r3, [r7, #268]	; 0x10c
 8005838:	3301      	adds	r3, #1
 800583a:	781b      	ldrb	r3, [r3, #0]
 800583c:	2b65      	cmp	r3, #101	; 0x65
 800583e:	d109      	bne.n	8005854 <OLED_Printf+0x408>
			OLED_charColor = 0x0077FF;
 8005840:	4b80      	ldr	r3, [pc, #512]	; (8005a44 <OLED_Printf+0x5f8>)
 8005842:	f247 72ff 	movw	r2, #30719	; 0x77ff
 8005846:	601a      	str	r2, [r3, #0]
			c += 1;
 8005848:	f8d7 310c 	ldr.w	r3, [r7, #268]	; 0x10c
 800584c:	3301      	adds	r3, #1
 800584e:	f8c7 310c 	str.w	r3, [r7, #268]	; 0x10c
			continue;
 8005852:	e10e      	b.n	8005a72 <OLED_Printf+0x626>
		}
		else if (*c == '/' && *(c + 1) == 'p'){
 8005854:	f8d7 310c 	ldr.w	r3, [r7, #268]	; 0x10c
 8005858:	781b      	ldrb	r3, [r3, #0]
 800585a:	2b2f      	cmp	r3, #47	; 0x2f
 800585c:	d10e      	bne.n	800587c <OLED_Printf+0x430>
 800585e:	f8d7 310c 	ldr.w	r3, [r7, #268]	; 0x10c
 8005862:	3301      	adds	r3, #1
 8005864:	781b      	ldrb	r3, [r3, #0]
 8005866:	2b70      	cmp	r3, #112	; 0x70
 8005868:	d108      	bne.n	800587c <OLED_Printf+0x430>
			OLED_charColor = 0x7700FF;
 800586a:	4b76      	ldr	r3, [pc, #472]	; (8005a44 <OLED_Printf+0x5f8>)
 800586c:	4a79      	ldr	r2, [pc, #484]	; (8005a54 <OLED_Printf+0x608>)
 800586e:	601a      	str	r2, [r3, #0]
			c += 1;
 8005870:	f8d7 310c 	ldr.w	r3, [r7, #268]	; 0x10c
 8005874:	3301      	adds	r3, #1
 8005876:	f8c7 310c 	str.w	r3, [r7, #268]	; 0x10c
			continue;
 800587a:	e0fa      	b.n	8005a72 <OLED_Printf+0x626>
		}
		else if (*c == '/' && *(c + 1) == 'M'){
 800587c:	f8d7 310c 	ldr.w	r3, [r7, #268]	; 0x10c
 8005880:	781b      	ldrb	r3, [r3, #0]
 8005882:	2b2f      	cmp	r3, #47	; 0x2f
 8005884:	d10e      	bne.n	80058a4 <OLED_Printf+0x458>
 8005886:	f8d7 310c 	ldr.w	r3, [r7, #268]	; 0x10c
 800588a:	3301      	adds	r3, #1
 800588c:	781b      	ldrb	r3, [r3, #0]
 800588e:	2b4d      	cmp	r3, #77	; 0x4d
 8005890:	d108      	bne.n	80058a4 <OLED_Printf+0x458>
			OLED_charColor = 0xFF0077;
 8005892:	4b6c      	ldr	r3, [pc, #432]	; (8005a44 <OLED_Printf+0x5f8>)
 8005894:	4a70      	ldr	r2, [pc, #448]	; (8005a58 <OLED_Printf+0x60c>)
 8005896:	601a      	str	r2, [r3, #0]
			c += 1;
 8005898:	f8d7 310c 	ldr.w	r3, [r7, #268]	; 0x10c
 800589c:	3301      	adds	r3, #1
 800589e:	f8c7 310c 	str.w	r3, [r7, #268]	; 0x10c
			continue;
 80058a2:	e0e6      	b.n	8005a72 <OLED_Printf+0x626>
		}
		else if (*c == '/' && *(c + 1) == 'A'){
 80058a4:	f8d7 310c 	ldr.w	r3, [r7, #268]	; 0x10c
 80058a8:	781b      	ldrb	r3, [r3, #0]
 80058aa:	2b2f      	cmp	r3, #47	; 0x2f
 80058ac:	d10e      	bne.n	80058cc <OLED_Printf+0x480>
 80058ae:	f8d7 310c 	ldr.w	r3, [r7, #268]	; 0x10c
 80058b2:	3301      	adds	r3, #1
 80058b4:	781b      	ldrb	r3, [r3, #0]
 80058b6:	2b41      	cmp	r3, #65	; 0x41
 80058b8:	d108      	bne.n	80058cc <OLED_Printf+0x480>
			OLED_charColor = 0x888888;
 80058ba:	4b62      	ldr	r3, [pc, #392]	; (8005a44 <OLED_Printf+0x5f8>)
 80058bc:	4a67      	ldr	r2, [pc, #412]	; (8005a5c <OLED_Printf+0x610>)
 80058be:	601a      	str	r2, [r3, #0]
			c += 1;
 80058c0:	f8d7 310c 	ldr.w	r3, [r7, #268]	; 0x10c
 80058c4:	3301      	adds	r3, #1
 80058c6:	f8c7 310c 	str.w	r3, [r7, #268]	; 0x10c
			continue;
 80058ca:	e0d2      	b.n	8005a72 <OLED_Printf+0x626>
		}
		else if (*c == '/' && *(c + 1) == 'a'){
 80058cc:	f8d7 310c 	ldr.w	r3, [r7, #268]	; 0x10c
 80058d0:	781b      	ldrb	r3, [r3, #0]
 80058d2:	2b2f      	cmp	r3, #47	; 0x2f
 80058d4:	d10e      	bne.n	80058f4 <OLED_Printf+0x4a8>
 80058d6:	f8d7 310c 	ldr.w	r3, [r7, #268]	; 0x10c
 80058da:	3301      	adds	r3, #1
 80058dc:	781b      	ldrb	r3, [r3, #0]
 80058de:	2b61      	cmp	r3, #97	; 0x61
 80058e0:	d108      	bne.n	80058f4 <OLED_Printf+0x4a8>
			OLED_charColor = 0x444444;
 80058e2:	4b58      	ldr	r3, [pc, #352]	; (8005a44 <OLED_Printf+0x5f8>)
 80058e4:	4a5e      	ldr	r2, [pc, #376]	; (8005a60 <OLED_Printf+0x614>)
 80058e6:	601a      	str	r2, [r3, #0]
			c += 1;
 80058e8:	f8d7 310c 	ldr.w	r3, [r7, #268]	; 0x10c
 80058ec:	3301      	adds	r3, #1
 80058ee:	f8c7 310c 	str.w	r3, [r7, #268]	; 0x10c
			continue;
 80058f2:	e0be      	b.n	8005a72 <OLED_Printf+0x626>
		}

		else if (*c == '/' && *(c + 1) == '/'){
 80058f4:	f8d7 310c 	ldr.w	r3, [r7, #268]	; 0x10c
 80058f8:	781b      	ldrb	r3, [r3, #0]
 80058fa:	2b2f      	cmp	r3, #47	; 0x2f
 80058fc:	d10a      	bne.n	8005914 <OLED_Printf+0x4c8>
 80058fe:	f8d7 310c 	ldr.w	r3, [r7, #268]	; 0x10c
 8005902:	3301      	adds	r3, #1
 8005904:	781b      	ldrb	r3, [r3, #0]
 8005906:	2b2f      	cmp	r3, #47	; 0x2f
 8005908:	d104      	bne.n	8005914 <OLED_Printf+0x4c8>
			c += 1;
 800590a:	f8d7 310c 	ldr.w	r3, [r7, #268]	; 0x10c
 800590e:	3301      	adds	r3, #1
 8005910:	f8c7 310c 	str.w	r3, [r7, #268]	; 0x10c
		}

		// \n, \r    .
		if (*c == '\r') continue;
 8005914:	f8d7 310c 	ldr.w	r3, [r7, #268]	; 0x10c
 8005918:	781b      	ldrb	r3, [r3, #0]
 800591a:	2b0d      	cmp	r3, #13
 800591c:	f000 80a8 	beq.w	8005a70 <OLED_Printf+0x624>
		if (*c == '\n') {
 8005920:	f8d7 310c 	ldr.w	r3, [r7, #268]	; 0x10c
 8005924:	781b      	ldrb	r3, [r3, #0]
 8005926:	2b0a      	cmp	r3, #10
 8005928:	d10f      	bne.n	800594a <OLED_Printf+0x4fe>
			OLED_row += 9 * OLED_charPoint;
 800592a:	4b4e      	ldr	r3, [pc, #312]	; (8005a64 <OLED_Printf+0x618>)
 800592c:	781b      	ldrb	r3, [r3, #0]
 800592e:	461a      	mov	r2, r3
 8005930:	00d2      	lsls	r2, r2, #3
 8005932:	4413      	add	r3, r2
 8005934:	b2da      	uxtb	r2, r3
 8005936:	4b4c      	ldr	r3, [pc, #304]	; (8005a68 <OLED_Printf+0x61c>)
 8005938:	781b      	ldrb	r3, [r3, #0]
 800593a:	4413      	add	r3, r2
 800593c:	b2da      	uxtb	r2, r3
 800593e:	4b4a      	ldr	r3, [pc, #296]	; (8005a68 <OLED_Printf+0x61c>)
 8005940:	701a      	strb	r2, [r3, #0]
			OLED_col = 1;
 8005942:	4b4a      	ldr	r3, [pc, #296]	; (8005a6c <OLED_Printf+0x620>)
 8005944:	2201      	movs	r2, #1
 8005946:	701a      	strb	r2, [r3, #0]
			continue;
 8005948:	e093      	b.n	8005a72 <OLED_Printf+0x626>
		}
		if (*c == '\t') {
 800594a:	f8d7 310c 	ldr.w	r3, [r7, #268]	; 0x10c
 800594e:	781b      	ldrb	r3, [r3, #0]
 8005950:	2b09      	cmp	r3, #9
 8005952:	d130      	bne.n	80059b6 <OLED_Printf+0x56a>
			if(OLED_col < 25 && OLED_charPoint == 1){
 8005954:	4b45      	ldr	r3, [pc, #276]	; (8005a6c <OLED_Printf+0x620>)
 8005956:	781b      	ldrb	r3, [r3, #0]
 8005958:	2b18      	cmp	r3, #24
 800595a:	d807      	bhi.n	800596c <OLED_Printf+0x520>
 800595c:	4b41      	ldr	r3, [pc, #260]	; (8005a64 <OLED_Printf+0x618>)
 800595e:	781b      	ldrb	r3, [r3, #0]
 8005960:	2b01      	cmp	r3, #1
 8005962:	d103      	bne.n	800596c <OLED_Printf+0x520>
				OLED_col = 25;
 8005964:	4b41      	ldr	r3, [pc, #260]	; (8005a6c <OLED_Printf+0x620>)
 8005966:	2219      	movs	r2, #25
 8005968:	701a      	strb	r2, [r3, #0]
 800596a:	e023      	b.n	80059b4 <OLED_Printf+0x568>
			}
			else if(OLED_col < 49){
 800596c:	4b3f      	ldr	r3, [pc, #252]	; (8005a6c <OLED_Printf+0x620>)
 800596e:	781b      	ldrb	r3, [r3, #0]
 8005970:	2b30      	cmp	r3, #48	; 0x30
 8005972:	d803      	bhi.n	800597c <OLED_Printf+0x530>
				OLED_col = 49;
 8005974:	4b3d      	ldr	r3, [pc, #244]	; (8005a6c <OLED_Printf+0x620>)
 8005976:	2231      	movs	r2, #49	; 0x31
 8005978:	701a      	strb	r2, [r3, #0]
			}
			else{
				OLED_col = 1;
				OLED_row += 9 * OLED_charPoint;
			}
			continue;
 800597a:	e07a      	b.n	8005a72 <OLED_Printf+0x626>
			else if(OLED_col < 73 && OLED_charPoint == 1){
 800597c:	4b3b      	ldr	r3, [pc, #236]	; (8005a6c <OLED_Printf+0x620>)
 800597e:	781b      	ldrb	r3, [r3, #0]
 8005980:	2b48      	cmp	r3, #72	; 0x48
 8005982:	d807      	bhi.n	8005994 <OLED_Printf+0x548>
 8005984:	4b37      	ldr	r3, [pc, #220]	; (8005a64 <OLED_Printf+0x618>)
 8005986:	781b      	ldrb	r3, [r3, #0]
 8005988:	2b01      	cmp	r3, #1
 800598a:	d103      	bne.n	8005994 <OLED_Printf+0x548>
				OLED_col = 75;
 800598c:	4b37      	ldr	r3, [pc, #220]	; (8005a6c <OLED_Printf+0x620>)
 800598e:	224b      	movs	r2, #75	; 0x4b
 8005990:	701a      	strb	r2, [r3, #0]
 8005992:	e00f      	b.n	80059b4 <OLED_Printf+0x568>
				OLED_col = 1;
 8005994:	4b35      	ldr	r3, [pc, #212]	; (8005a6c <OLED_Printf+0x620>)
 8005996:	2201      	movs	r2, #1
 8005998:	701a      	strb	r2, [r3, #0]
				OLED_row += 9 * OLED_charPoint;
 800599a:	4b32      	ldr	r3, [pc, #200]	; (8005a64 <OLED_Printf+0x618>)
 800599c:	781b      	ldrb	r3, [r3, #0]
 800599e:	461a      	mov	r2, r3
 80059a0:	00d2      	lsls	r2, r2, #3
 80059a2:	4413      	add	r3, r2
 80059a4:	b2da      	uxtb	r2, r3
 80059a6:	4b30      	ldr	r3, [pc, #192]	; (8005a68 <OLED_Printf+0x61c>)
 80059a8:	781b      	ldrb	r3, [r3, #0]
 80059aa:	4413      	add	r3, r2
 80059ac:	b2da      	uxtb	r2, r3
 80059ae:	4b2e      	ldr	r3, [pc, #184]	; (8005a68 <OLED_Printf+0x61c>)
 80059b0:	701a      	strb	r2, [r3, #0]
			continue;
 80059b2:	e05e      	b.n	8005a72 <OLED_Printf+0x626>
 80059b4:	e05d      	b.n	8005a72 <OLED_Printf+0x626>
		}
		if (*c == '/' && *(c+1) == '*'){
 80059b6:	f8d7 310c 	ldr.w	r3, [r7, #268]	; 0x10c
 80059ba:	781b      	ldrb	r3, [r3, #0]
 80059bc:	2b2f      	cmp	r3, #47	; 0x2f
 80059be:	d10f      	bne.n	80059e0 <OLED_Printf+0x594>
 80059c0:	f8d7 310c 	ldr.w	r3, [r7, #268]	; 0x10c
 80059c4:	3301      	adds	r3, #1
 80059c6:	781b      	ldrb	r3, [r3, #0]
 80059c8:	2b2a      	cmp	r3, #42	; 0x2a
 80059ca:	d109      	bne.n	80059e0 <OLED_Printf+0x594>
			c += 1;
 80059cc:	f8d7 310c 	ldr.w	r3, [r7, #268]	; 0x10c
 80059d0:	3301      	adds	r3, #1
 80059d2:	f8c7 310c 	str.w	r3, [r7, #268]	; 0x10c
			OLED_WriteChar(-1);
 80059d6:	f04f 30ff 	mov.w	r0, #4294967295
 80059da:	f7ff fc55 	bl	8005288 <OLED_WriteChar>
			continue;
 80059de:	e048      	b.n	8005a72 <OLED_Printf+0x626>
		}
		if (*c == '/' && *(c+1) == 'q'){
 80059e0:	f8d7 310c 	ldr.w	r3, [r7, #268]	; 0x10c
 80059e4:	781b      	ldrb	r3, [r3, #0]
 80059e6:	2b2f      	cmp	r3, #47	; 0x2f
 80059e8:	d10f      	bne.n	8005a0a <OLED_Printf+0x5be>
 80059ea:	f8d7 310c 	ldr.w	r3, [r7, #268]	; 0x10c
 80059ee:	3301      	adds	r3, #1
 80059f0:	781b      	ldrb	r3, [r3, #0]
 80059f2:	2b71      	cmp	r3, #113	; 0x71
 80059f4:	d109      	bne.n	8005a0a <OLED_Printf+0x5be>
			c += 1;
 80059f6:	f8d7 310c 	ldr.w	r3, [r7, #268]	; 0x10c
 80059fa:	3301      	adds	r3, #1
 80059fc:	f8c7 310c 	str.w	r3, [r7, #268]	; 0x10c
			OLED_WriteChar(-2);
 8005a00:	f06f 0001 	mvn.w	r0, #1
 8005a04:	f7ff fc40 	bl	8005288 <OLED_WriteChar>
			continue;
 8005a08:	e033      	b.n	8005a72 <OLED_Printf+0x626>
		}
		if (*c == '/' && *(c+1) == 'Q'){
 8005a0a:	f8d7 310c 	ldr.w	r3, [r7, #268]	; 0x10c
 8005a0e:	781b      	ldrb	r3, [r3, #0]
 8005a10:	2b2f      	cmp	r3, #47	; 0x2f
 8005a12:	d10f      	bne.n	8005a34 <OLED_Printf+0x5e8>
 8005a14:	f8d7 310c 	ldr.w	r3, [r7, #268]	; 0x10c
 8005a18:	3301      	adds	r3, #1
 8005a1a:	781b      	ldrb	r3, [r3, #0]
 8005a1c:	2b51      	cmp	r3, #81	; 0x51
 8005a1e:	d109      	bne.n	8005a34 <OLED_Printf+0x5e8>
			c += 1;
 8005a20:	f8d7 310c 	ldr.w	r3, [r7, #268]	; 0x10c
 8005a24:	3301      	adds	r3, #1
 8005a26:	f8c7 310c 	str.w	r3, [r7, #268]	; 0x10c
			OLED_WriteChar(-3);
 8005a2a:	f06f 0002 	mvn.w	r0, #2
 8005a2e:	f7ff fc2b 	bl	8005288 <OLED_WriteChar>
			continue;
 8005a32:	e01e      	b.n	8005a72 <OLED_Printf+0x626>
		}
		OLED_WriteChar(*c);
 8005a34:	f8d7 310c 	ldr.w	r3, [r7, #268]	; 0x10c
 8005a38:	781b      	ldrb	r3, [r3, #0]
 8005a3a:	b21b      	sxth	r3, r3
 8005a3c:	4618      	mov	r0, r3
 8005a3e:	f7ff fc23 	bl	8005288 <OLED_WriteChar>
 8005a42:	e016      	b.n	8005a72 <OLED_Printf+0x626>
 8005a44:	2000000c 	.word	0x2000000c
 8005a48:	007777ff 	.word	0x007777ff
 8005a4c:	00ff7700 	.word	0x00ff7700
 8005a50:	0077ff00 	.word	0x0077ff00
 8005a54:	007700ff 	.word	0x007700ff
 8005a58:	00ff0077 	.word	0x00ff0077
 8005a5c:	00888888 	.word	0x00888888
 8005a60:	00444444 	.word	0x00444444
 8005a64:	20000010 	.word	0x20000010
 8005a68:	20000009 	.word	0x20000009
 8005a6c:	2000000a 	.word	0x2000000a
		if (*c == '\r') continue;
 8005a70:	bf00      	nop
	for (char *c = buffer; *c; c++) {
 8005a72:	f8d7 310c 	ldr.w	r3, [r7, #268]	; 0x10c
 8005a76:	3301      	adds	r3, #1
 8005a78:	f8c7 310c 	str.w	r3, [r7, #268]	; 0x10c
 8005a7c:	f8d7 310c 	ldr.w	r3, [r7, #268]	; 0x10c
 8005a80:	781b      	ldrb	r3, [r3, #0]
 8005a82:	2b00      	cmp	r3, #0
 8005a84:	f47f ad09 	bne.w	800549a <OLED_Printf+0x4e>
	}
}
 8005a88:	bf00      	nop
 8005a8a:	bf00      	nop
 8005a8c:	f507 7788 	add.w	r7, r7, #272	; 0x110
 8005a90:	46bd      	mov	sp, r7
 8005a92:	e8bd 4080 	ldmia.w	sp!, {r7, lr}
 8005a96:	b004      	add	sp, #16
 8005a98:	4770      	bx	lr
 8005a9a:	bf00      	nop

08005a9c <OLED_Line>:

void OLED_Line(uint8_t xi, uint8_t yi, uint8_t xe, uint8_t ye, int32_t color){
 8005a9c:	b590      	push	{r4, r7, lr}
 8005a9e:	b085      	sub	sp, #20
 8005aa0:	af00      	add	r7, sp, #0
 8005aa2:	4604      	mov	r4, r0
 8005aa4:	4608      	mov	r0, r1
 8005aa6:	4611      	mov	r1, r2
 8005aa8:	461a      	mov	r2, r3
 8005aaa:	4623      	mov	r3, r4
 8005aac:	71fb      	strb	r3, [r7, #7]
 8005aae:	4603      	mov	r3, r0
 8005ab0:	71bb      	strb	r3, [r7, #6]
 8005ab2:	460b      	mov	r3, r1
 8005ab4:	717b      	strb	r3, [r7, #5]
 8005ab6:	4613      	mov	r3, r2
 8005ab8:	713b      	strb	r3, [r7, #4]
	uint8_t red = (color >> 16) & 0xF8;
 8005aba:	6a3b      	ldr	r3, [r7, #32]
 8005abc:	141b      	asrs	r3, r3, #16
 8005abe:	b2db      	uxtb	r3, r3
 8005ac0:	f023 0307 	bic.w	r3, r3, #7
 8005ac4:	73fb      	strb	r3, [r7, #15]
	uint8_t gre = (color >> 8) & 0xFC;
 8005ac6:	6a3b      	ldr	r3, [r7, #32]
 8005ac8:	121b      	asrs	r3, r3, #8
 8005aca:	b2db      	uxtb	r3, r3
 8005acc:	f023 0303 	bic.w	r3, r3, #3
 8005ad0:	73bb      	strb	r3, [r7, #14]
	uint8_t blu = color & 0xF8;
 8005ad2:	6a3b      	ldr	r3, [r7, #32]
 8005ad4:	b2db      	uxtb	r3, r3
 8005ad6:	f023 0307 	bic.w	r3, r3, #7
 8005ada:	737b      	strb	r3, [r7, #13]

	//   0x21  .
	OLED_WriteCommand(0x21);
 8005adc:	2021      	movs	r0, #33	; 0x21
 8005ade:	f7ff fa37 	bl	8004f50 <OLED_WriteCommand>
	OLED_WriteCommand(xi);
 8005ae2:	79fb      	ldrb	r3, [r7, #7]
 8005ae4:	4618      	mov	r0, r3
 8005ae6:	f7ff fa33 	bl	8004f50 <OLED_WriteCommand>
	OLED_WriteCommand(yi);
 8005aea:	79bb      	ldrb	r3, [r7, #6]
 8005aec:	4618      	mov	r0, r3
 8005aee:	f7ff fa2f 	bl	8004f50 <OLED_WriteCommand>
	OLED_WriteCommand(xe);
 8005af2:	797b      	ldrb	r3, [r7, #5]
 8005af4:	4618      	mov	r0, r3
 8005af6:	f7ff fa2b 	bl	8004f50 <OLED_WriteCommand>
	OLED_WriteCommand(ye);
 8005afa:	793b      	ldrb	r3, [r7, #4]
 8005afc:	4618      	mov	r0, r3
 8005afe:	f7ff fa27 	bl	8004f50 <OLED_WriteCommand>
	OLED_WriteCommand(red>>2);
 8005b02:	7bfb      	ldrb	r3, [r7, #15]
 8005b04:	089b      	lsrs	r3, r3, #2
 8005b06:	b2db      	uxtb	r3, r3
 8005b08:	4618      	mov	r0, r3
 8005b0a:	f7ff fa21 	bl	8004f50 <OLED_WriteCommand>
	OLED_WriteCommand(gre>>2);
 8005b0e:	7bbb      	ldrb	r3, [r7, #14]
 8005b10:	089b      	lsrs	r3, r3, #2
 8005b12:	b2db      	uxtb	r3, r3
 8005b14:	4618      	mov	r0, r3
 8005b16:	f7ff fa1b 	bl	8004f50 <OLED_WriteCommand>
	OLED_WriteCommand(blu>>2);
 8005b1a:	7b7b      	ldrb	r3, [r7, #13]
 8005b1c:	089b      	lsrs	r3, r3, #2
 8005b1e:	b2db      	uxtb	r3, r3
 8005b20:	4618      	mov	r0, r3
 8005b22:	f7ff fa15 	bl	8004f50 <OLED_WriteCommand>
}
 8005b26:	bf00      	nop
 8005b28:	3714      	adds	r7, #20
 8005b2a:	46bd      	mov	sp, r7
 8005b2c:	bd90      	pop	{r4, r7, pc}
	...

08005b30 <OLED_MenuUI>:

void OLED_MenuUI(char * title, uint32_t titleBgColor, uint32_t titleTextColor, Menu_t * menu, uint32_t count, uint32_t textColor){
 8005b30:	b580      	push	{r7, lr}
 8005b32:	b088      	sub	sp, #32
 8005b34:	af02      	add	r7, sp, #8
 8005b36:	60f8      	str	r0, [r7, #12]
 8005b38:	60b9      	str	r1, [r7, #8]
 8005b3a:	607a      	str	r2, [r7, #4]
 8005b3c:	603b      	str	r3, [r7, #0]
	OLED_Rectangle(0, 0, 96, 9, titleBgColor);
 8005b3e:	68bb      	ldr	r3, [r7, #8]
 8005b40:	9300      	str	r3, [sp, #0]
 8005b42:	2309      	movs	r3, #9
 8005b44:	2260      	movs	r2, #96	; 0x60
 8005b46:	2100      	movs	r1, #0
 8005b48:	2000      	movs	r0, #0
 8005b4a:	f7ff fb39 	bl	80051c0 <OLED_Rectangle>
	OLED_row = 1;
 8005b4e:	4b19      	ldr	r3, [pc, #100]	; (8005bb4 <OLED_MenuUI+0x84>)
 8005b50:	2201      	movs	r2, #1
 8005b52:	701a      	strb	r2, [r3, #0]
	OLED_col = 1;
 8005b54:	4b18      	ldr	r3, [pc, #96]	; (8005bb8 <OLED_MenuUI+0x88>)
 8005b56:	2201      	movs	r2, #1
 8005b58:	701a      	strb	r2, [r3, #0]
	OLED_charColor = titleTextColor;
 8005b5a:	4a18      	ldr	r2, [pc, #96]	; (8005bbc <OLED_MenuUI+0x8c>)
 8005b5c:	687b      	ldr	r3, [r7, #4]
 8005b5e:	6013      	str	r3, [r2, #0]
	OLED_bgColor = titleBgColor;
 8005b60:	4a17      	ldr	r2, [pc, #92]	; (8005bc0 <OLED_MenuUI+0x90>)
 8005b62:	68bb      	ldr	r3, [r7, #8]
 8005b64:	6013      	str	r3, [r2, #0]
	OLED_Printf("/s%s\n", title);
 8005b66:	68f9      	ldr	r1, [r7, #12]
 8005b68:	4816      	ldr	r0, [pc, #88]	; (8005bc4 <OLED_MenuUI+0x94>)
 8005b6a:	f7ff fc6f 	bl	800544c <OLED_Printf>
	OLED_charColor = textColor;
 8005b6e:	4a13      	ldr	r2, [pc, #76]	; (8005bbc <OLED_MenuUI+0x8c>)
 8005b70:	6a7b      	ldr	r3, [r7, #36]	; 0x24
 8005b72:	6013      	str	r3, [r2, #0]
	OLED_bgColor = 0;
 8005b74:	4b12      	ldr	r3, [pc, #72]	; (8005bc0 <OLED_MenuUI+0x90>)
 8005b76:	2200      	movs	r2, #0
 8005b78:	601a      	str	r2, [r3, #0]
	for(uint8_t i = 0; i < count; i++){
 8005b7a:	2300      	movs	r3, #0
 8005b7c:	75fb      	strb	r3, [r7, #23]
 8005b7e:	e00f      	b.n	8005ba0 <OLED_MenuUI+0x70>
		OLED_Printf("/s%s\n", menu[i].message);
 8005b80:	7dfa      	ldrb	r2, [r7, #23]
 8005b82:	4613      	mov	r3, r2
 8005b84:	005b      	lsls	r3, r3, #1
 8005b86:	4413      	add	r3, r2
 8005b88:	009b      	lsls	r3, r3, #2
 8005b8a:	461a      	mov	r2, r3
 8005b8c:	683b      	ldr	r3, [r7, #0]
 8005b8e:	4413      	add	r3, r2
 8005b90:	685b      	ldr	r3, [r3, #4]
 8005b92:	4619      	mov	r1, r3
 8005b94:	480b      	ldr	r0, [pc, #44]	; (8005bc4 <OLED_MenuUI+0x94>)
 8005b96:	f7ff fc59 	bl	800544c <OLED_Printf>
	for(uint8_t i = 0; i < count; i++){
 8005b9a:	7dfb      	ldrb	r3, [r7, #23]
 8005b9c:	3301      	adds	r3, #1
 8005b9e:	75fb      	strb	r3, [r7, #23]
 8005ba0:	7dfb      	ldrb	r3, [r7, #23]
 8005ba2:	6a3a      	ldr	r2, [r7, #32]
 8005ba4:	429a      	cmp	r2, r3
 8005ba6:	d8eb      	bhi.n	8005b80 <OLED_MenuUI+0x50>
	}
}
 8005ba8:	bf00      	nop
 8005baa:	bf00      	nop
 8005bac:	3718      	adds	r7, #24
 8005bae:	46bd      	mov	sp, r7
 8005bb0:	bd80      	pop	{r7, pc}
 8005bb2:	bf00      	nop
 8005bb4:	20000009 	.word	0x20000009
 8005bb8:	2000000a 	.word	0x2000000a
 8005bbc:	2000000c 	.word	0x2000000c
 8005bc0:	200006dc 	.word	0x200006dc
 8005bc4:	08009ff0 	.word	0x08009ff0

08005bc8 <OLED_Cursor>:

void OLED_Cursor(uint8_t n, uint32_t color){
 8005bc8:	b580      	push	{r7, lr}
 8005bca:	b086      	sub	sp, #24
 8005bcc:	af02      	add	r7, sp, #8
 8005bce:	4603      	mov	r3, r0
 8005bd0:	6039      	str	r1, [r7, #0]
 8005bd2:	71fb      	strb	r3, [r7, #7]
	//Line Erase
	for(uint8_t i = 9; i < 64; i+=9){
 8005bd4:	2309      	movs	r3, #9
 8005bd6:	73fb      	strb	r3, [r7, #15]
 8005bd8:	e00a      	b.n	8005bf0 <OLED_Cursor+0x28>
		OLED_Line(0, i, 95, i, 0);
 8005bda:	7bfb      	ldrb	r3, [r7, #15]
 8005bdc:	7bf9      	ldrb	r1, [r7, #15]
 8005bde:	2200      	movs	r2, #0
 8005be0:	9200      	str	r2, [sp, #0]
 8005be2:	225f      	movs	r2, #95	; 0x5f
 8005be4:	2000      	movs	r0, #0
 8005be6:	f7ff ff59 	bl	8005a9c <OLED_Line>
	for(uint8_t i = 9; i < 64; i+=9){
 8005bea:	7bfb      	ldrb	r3, [r7, #15]
 8005bec:	3309      	adds	r3, #9
 8005bee:	73fb      	strb	r3, [r7, #15]
 8005bf0:	7bfb      	ldrb	r3, [r7, #15]
 8005bf2:	2b3f      	cmp	r3, #63	; 0x3f
 8005bf4:	d9f1      	bls.n	8005bda <OLED_Cursor+0x12>
	}
	OLED_Line(0, 9, 0, 63, 0);
 8005bf6:	2300      	movs	r3, #0
 8005bf8:	9300      	str	r3, [sp, #0]
 8005bfa:	233f      	movs	r3, #63	; 0x3f
 8005bfc:	2200      	movs	r2, #0
 8005bfe:	2109      	movs	r1, #9
 8005c00:	2000      	movs	r0, #0
 8005c02:	f7ff ff4b 	bl	8005a9c <OLED_Line>
	OLED_Line(95, 9, 95, 63, 0);
 8005c06:	2300      	movs	r3, #0
 8005c08:	9300      	str	r3, [sp, #0]
 8005c0a:	233f      	movs	r3, #63	; 0x3f
 8005c0c:	225f      	movs	r2, #95	; 0x5f
 8005c0e:	2109      	movs	r1, #9
 8005c10:	205f      	movs	r0, #95	; 0x5f
 8005c12:	f7ff ff43 	bl	8005a9c <OLED_Line>

	//Line Drawing
	OLED_Line(0, 9 + 9 * n, 95, 9 + 9 * n, color);
 8005c16:	79fb      	ldrb	r3, [r7, #7]
 8005c18:	3301      	adds	r3, #1
 8005c1a:	b2db      	uxtb	r3, r3
 8005c1c:	461a      	mov	r2, r3
 8005c1e:	00d2      	lsls	r2, r2, #3
 8005c20:	4413      	add	r3, r2
 8005c22:	b2d9      	uxtb	r1, r3
 8005c24:	79fb      	ldrb	r3, [r7, #7]
 8005c26:	3301      	adds	r3, #1
 8005c28:	b2db      	uxtb	r3, r3
 8005c2a:	461a      	mov	r2, r3
 8005c2c:	00d2      	lsls	r2, r2, #3
 8005c2e:	4413      	add	r3, r2
 8005c30:	b2da      	uxtb	r2, r3
 8005c32:	683b      	ldr	r3, [r7, #0]
 8005c34:	9300      	str	r3, [sp, #0]
 8005c36:	4613      	mov	r3, r2
 8005c38:	225f      	movs	r2, #95	; 0x5f
 8005c3a:	2000      	movs	r0, #0
 8005c3c:	f7ff ff2e 	bl	8005a9c <OLED_Line>
	OLED_Line(0, 18 + 9 * n, 95, 18 + 9 * n, color);
 8005c40:	79fb      	ldrb	r3, [r7, #7]
 8005c42:	461a      	mov	r2, r3
 8005c44:	00d2      	lsls	r2, r2, #3
 8005c46:	4413      	add	r3, r2
 8005c48:	b2db      	uxtb	r3, r3
 8005c4a:	3312      	adds	r3, #18
 8005c4c:	b2d9      	uxtb	r1, r3
 8005c4e:	79fb      	ldrb	r3, [r7, #7]
 8005c50:	461a      	mov	r2, r3
 8005c52:	00d2      	lsls	r2, r2, #3
 8005c54:	4413      	add	r3, r2
 8005c56:	b2db      	uxtb	r3, r3
 8005c58:	3312      	adds	r3, #18
 8005c5a:	b2da      	uxtb	r2, r3
 8005c5c:	683b      	ldr	r3, [r7, #0]
 8005c5e:	9300      	str	r3, [sp, #0]
 8005c60:	4613      	mov	r3, r2
 8005c62:	225f      	movs	r2, #95	; 0x5f
 8005c64:	2000      	movs	r0, #0
 8005c66:	f7ff ff19 	bl	8005a9c <OLED_Line>
	OLED_Line(0, 9 + 9 * n, 0, 18 + 9 * n, color);
 8005c6a:	79fb      	ldrb	r3, [r7, #7]
 8005c6c:	3301      	adds	r3, #1
 8005c6e:	b2db      	uxtb	r3, r3
 8005c70:	461a      	mov	r2, r3
 8005c72:	00d2      	lsls	r2, r2, #3
 8005c74:	4413      	add	r3, r2
 8005c76:	b2d9      	uxtb	r1, r3
 8005c78:	79fb      	ldrb	r3, [r7, #7]
 8005c7a:	461a      	mov	r2, r3
 8005c7c:	00d2      	lsls	r2, r2, #3
 8005c7e:	4413      	add	r3, r2
 8005c80:	b2db      	uxtb	r3, r3
 8005c82:	3312      	adds	r3, #18
 8005c84:	b2da      	uxtb	r2, r3
 8005c86:	683b      	ldr	r3, [r7, #0]
 8005c88:	9300      	str	r3, [sp, #0]
 8005c8a:	4613      	mov	r3, r2
 8005c8c:	2200      	movs	r2, #0
 8005c8e:	2000      	movs	r0, #0
 8005c90:	f7ff ff04 	bl	8005a9c <OLED_Line>
	OLED_Line(95, 9 + 9 * n, 95, 18 + 9 * n, color);
 8005c94:	79fb      	ldrb	r3, [r7, #7]
 8005c96:	3301      	adds	r3, #1
 8005c98:	b2db      	uxtb	r3, r3
 8005c9a:	461a      	mov	r2, r3
 8005c9c:	00d2      	lsls	r2, r2, #3
 8005c9e:	4413      	add	r3, r2
 8005ca0:	b2d9      	uxtb	r1, r3
 8005ca2:	79fb      	ldrb	r3, [r7, #7]
 8005ca4:	461a      	mov	r2, r3
 8005ca6:	00d2      	lsls	r2, r2, #3
 8005ca8:	4413      	add	r3, r2
 8005caa:	b2db      	uxtb	r3, r3
 8005cac:	3312      	adds	r3, #18
 8005cae:	b2da      	uxtb	r2, r3
 8005cb0:	683b      	ldr	r3, [r7, #0]
 8005cb2:	9300      	str	r3, [sp, #0]
 8005cb4:	4613      	mov	r3, r2
 8005cb6:	225f      	movs	r2, #95	; 0x5f
 8005cb8:	205f      	movs	r0, #95	; 0x5f
 8005cba:	f7ff feef 	bl	8005a9c <OLED_Line>
}
 8005cbe:	bf00      	nop
 8005cc0:	3710      	adds	r7, #16
 8005cc2:	46bd      	mov	sp, r7
 8005cc4:	bd80      	pop	{r7, pc}
	...

08005cc8 <Switch_LED>:
#define LONG_FLAG 0x20

#define LINE_TRACER_SWITCH
extern TIM_HandleTypeDef htim4;

void Switch_LED(uint16_t red, uint16_t blue){
 8005cc8:	b480      	push	{r7}
 8005cca:	b083      	sub	sp, #12
 8005ccc:	af00      	add	r7, sp, #0
 8005cce:	4603      	mov	r3, r0
 8005cd0:	460a      	mov	r2, r1
 8005cd2:	80fb      	strh	r3, [r7, #6]
 8005cd4:	4613      	mov	r3, r2
 8005cd6:	80bb      	strh	r3, [r7, #4]
	htim4.Instance -> CCR1 = red;
 8005cd8:	4b06      	ldr	r3, [pc, #24]	; (8005cf4 <Switch_LED+0x2c>)
 8005cda:	681b      	ldr	r3, [r3, #0]
 8005cdc:	88fa      	ldrh	r2, [r7, #6]
 8005cde:	635a      	str	r2, [r3, #52]	; 0x34
	htim4.Instance -> CCR2 = blue;
 8005ce0:	4b04      	ldr	r3, [pc, #16]	; (8005cf4 <Switch_LED+0x2c>)
 8005ce2:	681b      	ldr	r3, [r3, #0]
 8005ce4:	88ba      	ldrh	r2, [r7, #4]
 8005ce6:	639a      	str	r2, [r3, #56]	; 0x38
}
 8005ce8:	bf00      	nop
 8005cea:	370c      	adds	r7, #12
 8005cec:	46bd      	mov	sp, r7
 8005cee:	f85d 7b04 	ldr.w	r7, [sp], #4
 8005cf2:	4770      	bx	lr
 8005cf4:	200005ac 	.word	0x200005ac

08005cf8 <Switch_Read>:

uint16_t Switch_Read(){
 8005cf8:	b580      	push	{r7, lr}
 8005cfa:	b082      	sub	sp, #8
 8005cfc:	af00      	add	r7, sp, #0
	static uint16_t Switch_sum = 0;
	static uint16_t Switch_input = 0;
	static uint32_t Switch_time = 0;
	static uint32_t Switch_lowTime = 0;
#ifdef LINE_TRACER_SWITCH
	uint8_t sw1 = !HAL_GPIO_ReadPin(SW1_GPIO_Port, SW1_Pin);
 8005cfe:	2108      	movs	r1, #8
 8005d00:	4893      	ldr	r0, [pc, #588]	; (8005f50 <Switch_Read+0x258>)
 8005d02:	f7fc fab7 	bl	8002274 <HAL_GPIO_ReadPin>
 8005d06:	4603      	mov	r3, r0
 8005d08:	2b00      	cmp	r3, #0
 8005d0a:	bf0c      	ite	eq
 8005d0c:	2301      	moveq	r3, #1
 8005d0e:	2300      	movne	r3, #0
 8005d10:	b2db      	uxtb	r3, r3
 8005d12:	71fb      	strb	r3, [r7, #7]
	uint8_t sw2 = !HAL_GPIO_ReadPin(SW2_GPIO_Port, SW2_Pin);
 8005d14:	2110      	movs	r1, #16
 8005d16:	488e      	ldr	r0, [pc, #568]	; (8005f50 <Switch_Read+0x258>)
 8005d18:	f7fc faac 	bl	8002274 <HAL_GPIO_ReadPin>
 8005d1c:	4603      	mov	r3, r0
 8005d1e:	2b00      	cmp	r3, #0
 8005d20:	bf0c      	ite	eq
 8005d22:	2301      	moveq	r3, #1
 8005d24:	2300      	movne	r3, #0
 8005d26:	b2db      	uxtb	r3, r3
 8005d28:	71bb      	strb	r3, [r7, #6]
	uint8_t sw3 = !HAL_GPIO_ReadPin(SW3_GPIO_Port, SW3_Pin);
 8005d2a:	2120      	movs	r1, #32
 8005d2c:	4888      	ldr	r0, [pc, #544]	; (8005f50 <Switch_Read+0x258>)
 8005d2e:	f7fc faa1 	bl	8002274 <HAL_GPIO_ReadPin>
 8005d32:	4603      	mov	r3, r0
 8005d34:	2b00      	cmp	r3, #0
 8005d36:	bf0c      	ite	eq
 8005d38:	2301      	moveq	r3, #1
 8005d3a:	2300      	movne	r3, #0
 8005d3c:	b2db      	uxtb	r3, r3
 8005d3e:	717b      	strb	r3, [r7, #5]
	uint8_t sw4 = !HAL_GPIO_ReadPin(SW4_GPIO_Port, SW4_Pin);
 8005d40:	f44f 7180 	mov.w	r1, #256	; 0x100
 8005d44:	4882      	ldr	r0, [pc, #520]	; (8005f50 <Switch_Read+0x258>)
 8005d46:	f7fc fa95 	bl	8002274 <HAL_GPIO_ReadPin>
 8005d4a:	4603      	mov	r3, r0
 8005d4c:	2b00      	cmp	r3, #0
 8005d4e:	bf0c      	ite	eq
 8005d50:	2301      	moveq	r3, #1
 8005d52:	2300      	movne	r3, #0
 8005d54:	b2db      	uxtb	r3, r3
 8005d56:	713b      	strb	r3, [r7, #4]
	uint8_t sw5 = !HAL_GPIO_ReadPin(SW5_GPIO_Port, SW5_Pin);
 8005d58:	f44f 7100 	mov.w	r1, #512	; 0x200
 8005d5c:	487c      	ldr	r0, [pc, #496]	; (8005f50 <Switch_Read+0x258>)
 8005d5e:	f7fc fa89 	bl	8002274 <HAL_GPIO_ReadPin>
 8005d62:	4603      	mov	r3, r0
 8005d64:	2b00      	cmp	r3, #0
 8005d66:	bf0c      	ite	eq
 8005d68:	2301      	moveq	r3, #1
 8005d6a:	2300      	movne	r3, #0
 8005d6c:	b2db      	uxtb	r3, r3
 8005d6e:	70fb      	strb	r3, [r7, #3]
	Switch_input = sw1 | (sw2 << 1) | (sw3 << 2) | (sw4 << 3) | (sw5 << 4);
 8005d70:	79fb      	ldrb	r3, [r7, #7]
 8005d72:	b21a      	sxth	r2, r3
 8005d74:	79bb      	ldrb	r3, [r7, #6]
 8005d76:	005b      	lsls	r3, r3, #1
 8005d78:	b21b      	sxth	r3, r3
 8005d7a:	4313      	orrs	r3, r2
 8005d7c:	b21a      	sxth	r2, r3
 8005d7e:	797b      	ldrb	r3, [r7, #5]
 8005d80:	009b      	lsls	r3, r3, #2
 8005d82:	b21b      	sxth	r3, r3
 8005d84:	4313      	orrs	r3, r2
 8005d86:	b21a      	sxth	r2, r3
 8005d88:	793b      	ldrb	r3, [r7, #4]
 8005d8a:	00db      	lsls	r3, r3, #3
 8005d8c:	b21b      	sxth	r3, r3
 8005d8e:	4313      	orrs	r3, r2
 8005d90:	b21a      	sxth	r2, r3
 8005d92:	78fb      	ldrb	r3, [r7, #3]
 8005d94:	011b      	lsls	r3, r3, #4
 8005d96:	b21b      	sxth	r3, r3
 8005d98:	4313      	orrs	r3, r2
 8005d9a:	b21b      	sxth	r3, r3
 8005d9c:	b29a      	uxth	r2, r3
 8005d9e:	4b6d      	ldr	r3, [pc, #436]	; (8005f54 <Switch_Read+0x25c>)
 8005da0:	801a      	strh	r2, [r3, #0]
#endif
	switch(Switch_state){
 8005da2:	4b6d      	ldr	r3, [pc, #436]	; (8005f58 <Switch_Read+0x260>)
 8005da4:	781b      	ldrb	r3, [r3, #0]
 8005da6:	2b05      	cmp	r3, #5
 8005da8:	f200 80cd 	bhi.w	8005f46 <Switch_Read+0x24e>
 8005dac:	a201      	add	r2, pc, #4	; (adr r2, 8005db4 <Switch_Read+0xbc>)
 8005dae:	f852 f023 	ldr.w	pc, [r2, r3, lsl #2]
 8005db2:	bf00      	nop
 8005db4:	08005dcd 	.word	0x08005dcd
 8005db8:	08005df9 	.word	0x08005df9
 8005dbc:	08005e3d 	.word	0x08005e3d
 8005dc0:	08005e85 	.word	0x08005e85
 8005dc4:	08005ebd 	.word	0x08005ebd
 8005dc8:	08005efd 	.word	0x08005efd
	case SWITCH_STATE_IDLE:
		if(Switch_input){
 8005dcc:	4b61      	ldr	r3, [pc, #388]	; (8005f54 <Switch_Read+0x25c>)
 8005dce:	881b      	ldrh	r3, [r3, #0]
 8005dd0:	2b00      	cmp	r3, #0
 8005dd2:	f000 80af 	beq.w	8005f34 <Switch_Read+0x23c>
			Switch_time = HAL_GetTick();
 8005dd6:	f7fb ff87 	bl	8001ce8 <HAL_GetTick>
 8005dda:	4603      	mov	r3, r0
 8005ddc:	4a5f      	ldr	r2, [pc, #380]	; (8005f5c <Switch_Read+0x264>)
 8005dde:	6013      	str	r3, [r2, #0]
			Switch_state = SWITCH_STATE_PRE_DOWN;
 8005de0:	4b5d      	ldr	r3, [pc, #372]	; (8005f58 <Switch_Read+0x260>)
 8005de2:	2201      	movs	r2, #1
 8005de4:	701a      	strb	r2, [r3, #0]
			Switch_sum |= Switch_input;
 8005de6:	4b5e      	ldr	r3, [pc, #376]	; (8005f60 <Switch_Read+0x268>)
 8005de8:	881a      	ldrh	r2, [r3, #0]
 8005dea:	4b5a      	ldr	r3, [pc, #360]	; (8005f54 <Switch_Read+0x25c>)
 8005dec:	881b      	ldrh	r3, [r3, #0]
 8005dee:	4313      	orrs	r3, r2
 8005df0:	b29a      	uxth	r2, r3
 8005df2:	4b5b      	ldr	r3, [pc, #364]	; (8005f60 <Switch_Read+0x268>)
 8005df4:	801a      	strh	r2, [r3, #0]
		}
		break;
 8005df6:	e09d      	b.n	8005f34 <Switch_Read+0x23c>
	case SWITCH_STATE_PRE_DOWN:
		if(Switch_input){
 8005df8:	4b56      	ldr	r3, [pc, #344]	; (8005f54 <Switch_Read+0x25c>)
 8005dfa:	881b      	ldrh	r3, [r3, #0]
 8005dfc:	2b00      	cmp	r3, #0
 8005dfe:	d016      	beq.n	8005e2e <Switch_Read+0x136>
			if(HAL_GetTick() - Switch_time > 80){
 8005e00:	f7fb ff72 	bl	8001ce8 <HAL_GetTick>
 8005e04:	4602      	mov	r2, r0
 8005e06:	4b55      	ldr	r3, [pc, #340]	; (8005f5c <Switch_Read+0x264>)
 8005e08:	681b      	ldr	r3, [r3, #0]
 8005e0a:	1ad3      	subs	r3, r2, r3
 8005e0c:	2b50      	cmp	r3, #80	; 0x50
 8005e0e:	d905      	bls.n	8005e1c <Switch_Read+0x124>
				Switch_state = SWITCH_STATE_DOWN;
 8005e10:	4b51      	ldr	r3, [pc, #324]	; (8005f58 <Switch_Read+0x260>)
 8005e12:	2202      	movs	r2, #2
 8005e14:	701a      	strb	r2, [r3, #0]
				return Switch_sum;
 8005e16:	4b52      	ldr	r3, [pc, #328]	; (8005f60 <Switch_Read+0x268>)
 8005e18:	881b      	ldrh	r3, [r3, #0]
 8005e1a:	e095      	b.n	8005f48 <Switch_Read+0x250>
			}
			Switch_sum |= Switch_input;
 8005e1c:	4b50      	ldr	r3, [pc, #320]	; (8005f60 <Switch_Read+0x268>)
 8005e1e:	881a      	ldrh	r2, [r3, #0]
 8005e20:	4b4c      	ldr	r3, [pc, #304]	; (8005f54 <Switch_Read+0x25c>)
 8005e22:	881b      	ldrh	r3, [r3, #0]
 8005e24:	4313      	orrs	r3, r2
 8005e26:	b29a      	uxth	r2, r3
 8005e28:	4b4d      	ldr	r3, [pc, #308]	; (8005f60 <Switch_Read+0x268>)
 8005e2a:	801a      	strh	r2, [r3, #0]
		}
		else{
			Switch_state = SWITCH_STATE_IDLE;
			Switch_sum = 0;
		}
		break;
 8005e2c:	e08b      	b.n	8005f46 <Switch_Read+0x24e>
			Switch_state = SWITCH_STATE_IDLE;
 8005e2e:	4b4a      	ldr	r3, [pc, #296]	; (8005f58 <Switch_Read+0x260>)
 8005e30:	2200      	movs	r2, #0
 8005e32:	701a      	strb	r2, [r3, #0]
			Switch_sum = 0;
 8005e34:	4b4a      	ldr	r3, [pc, #296]	; (8005f60 <Switch_Read+0x268>)
 8005e36:	2200      	movs	r2, #0
 8005e38:	801a      	strh	r2, [r3, #0]
		break;
 8005e3a:	e084      	b.n	8005f46 <Switch_Read+0x24e>
	case SWITCH_STATE_DOWN:
		if(!Switch_input){
 8005e3c:	4b45      	ldr	r3, [pc, #276]	; (8005f54 <Switch_Read+0x25c>)
 8005e3e:	881b      	ldrh	r3, [r3, #0]
 8005e40:	2b00      	cmp	r3, #0
 8005e42:	d108      	bne.n	8005e56 <Switch_Read+0x15e>
			Switch_lowTime = HAL_GetTick();
 8005e44:	f7fb ff50 	bl	8001ce8 <HAL_GetTick>
 8005e48:	4603      	mov	r3, r0
 8005e4a:	4a46      	ldr	r2, [pc, #280]	; (8005f64 <Switch_Read+0x26c>)
 8005e4c:	6013      	str	r3, [r2, #0]
			Switch_state = SWITCH_STATE_PRE_IDLE;
 8005e4e:	4b42      	ldr	r3, [pc, #264]	; (8005f58 <Switch_Read+0x260>)
 8005e50:	2203      	movs	r2, #3
 8005e52:	701a      	strb	r2, [r3, #0]
		else if(HAL_GetTick() - Switch_time > 400){
			Switch_time = HAL_GetTick();
			Switch_state = SWITCH_STATE_LONG;
			return Switch_sum | LONG_FLAG;
		}
		break;
 8005e54:	e070      	b.n	8005f38 <Switch_Read+0x240>
		else if(HAL_GetTick() - Switch_time > 400){
 8005e56:	f7fb ff47 	bl	8001ce8 <HAL_GetTick>
 8005e5a:	4602      	mov	r2, r0
 8005e5c:	4b3f      	ldr	r3, [pc, #252]	; (8005f5c <Switch_Read+0x264>)
 8005e5e:	681b      	ldr	r3, [r3, #0]
 8005e60:	1ad3      	subs	r3, r2, r3
 8005e62:	f5b3 7fc8 	cmp.w	r3, #400	; 0x190
 8005e66:	d967      	bls.n	8005f38 <Switch_Read+0x240>
			Switch_time = HAL_GetTick();
 8005e68:	f7fb ff3e 	bl	8001ce8 <HAL_GetTick>
 8005e6c:	4603      	mov	r3, r0
 8005e6e:	4a3b      	ldr	r2, [pc, #236]	; (8005f5c <Switch_Read+0x264>)
 8005e70:	6013      	str	r3, [r2, #0]
			Switch_state = SWITCH_STATE_LONG;
 8005e72:	4b39      	ldr	r3, [pc, #228]	; (8005f58 <Switch_Read+0x260>)
 8005e74:	2204      	movs	r2, #4
 8005e76:	701a      	strb	r2, [r3, #0]
			return Switch_sum | LONG_FLAG;
 8005e78:	4b39      	ldr	r3, [pc, #228]	; (8005f60 <Switch_Read+0x268>)
 8005e7a:	881b      	ldrh	r3, [r3, #0]
 8005e7c:	f043 0320 	orr.w	r3, r3, #32
 8005e80:	b29b      	uxth	r3, r3
 8005e82:	e061      	b.n	8005f48 <Switch_Read+0x250>
	case SWITCH_STATE_PRE_IDLE:
		if(!Switch_input){
 8005e84:	4b33      	ldr	r3, [pc, #204]	; (8005f54 <Switch_Read+0x25c>)
 8005e86:	881b      	ldrh	r3, [r3, #0]
 8005e88:	2b00      	cmp	r3, #0
 8005e8a:	d113      	bne.n	8005eb4 <Switch_Read+0x1bc>
			if(HAL_GetTick() - Switch_lowTime > 80){
 8005e8c:	f7fb ff2c 	bl	8001ce8 <HAL_GetTick>
 8005e90:	4602      	mov	r2, r0
 8005e92:	4b34      	ldr	r3, [pc, #208]	; (8005f64 <Switch_Read+0x26c>)
 8005e94:	681b      	ldr	r3, [r3, #0]
 8005e96:	1ad3      	subs	r3, r2, r3
 8005e98:	2b50      	cmp	r3, #80	; 0x50
 8005e9a:	d94f      	bls.n	8005f3c <Switch_Read+0x244>
				Switch_time = HAL_GetTick();
 8005e9c:	f7fb ff24 	bl	8001ce8 <HAL_GetTick>
 8005ea0:	4603      	mov	r3, r0
 8005ea2:	4a2e      	ldr	r2, [pc, #184]	; (8005f5c <Switch_Read+0x264>)
 8005ea4:	6013      	str	r3, [r2, #0]
				Switch_state = SWITCH_STATE_IDLE;
 8005ea6:	4b2c      	ldr	r3, [pc, #176]	; (8005f58 <Switch_Read+0x260>)
 8005ea8:	2200      	movs	r2, #0
 8005eaa:	701a      	strb	r2, [r3, #0]
				Switch_sum = 0;
 8005eac:	4b2c      	ldr	r3, [pc, #176]	; (8005f60 <Switch_Read+0x268>)
 8005eae:	2200      	movs	r2, #0
 8005eb0:	801a      	strh	r2, [r3, #0]
			}
		}
		else{
			Switch_state = SWITCH_STATE_DOWN;
		}
		break;
 8005eb2:	e043      	b.n	8005f3c <Switch_Read+0x244>
			Switch_state = SWITCH_STATE_DOWN;
 8005eb4:	4b28      	ldr	r3, [pc, #160]	; (8005f58 <Switch_Read+0x260>)
 8005eb6:	2202      	movs	r2, #2
 8005eb8:	701a      	strb	r2, [r3, #0]
		break;
 8005eba:	e03f      	b.n	8005f3c <Switch_Read+0x244>
	case SWITCH_STATE_LONG:
		if(!Switch_input){
 8005ebc:	4b25      	ldr	r3, [pc, #148]	; (8005f54 <Switch_Read+0x25c>)
 8005ebe:	881b      	ldrh	r3, [r3, #0]
 8005ec0:	2b00      	cmp	r3, #0
 8005ec2:	d108      	bne.n	8005ed6 <Switch_Read+0x1de>
			Switch_lowTime = HAL_GetTick();
 8005ec4:	f7fb ff10 	bl	8001ce8 <HAL_GetTick>
 8005ec8:	4603      	mov	r3, r0
 8005eca:	4a26      	ldr	r2, [pc, #152]	; (8005f64 <Switch_Read+0x26c>)
 8005ecc:	6013      	str	r3, [r2, #0]
			Switch_state = SWITCH_STATE_PRE_IDLE_LONG;
 8005ece:	4b22      	ldr	r3, [pc, #136]	; (8005f58 <Switch_Read+0x260>)
 8005ed0:	2205      	movs	r2, #5
 8005ed2:	701a      	strb	r2, [r3, #0]
		}
		else if(HAL_GetTick() - Switch_time > 100){
			Switch_time = HAL_GetTick();
			return Switch_sum | LONG_FLAG;
		}
		break;
 8005ed4:	e034      	b.n	8005f40 <Switch_Read+0x248>
		else if(HAL_GetTick() - Switch_time > 100){
 8005ed6:	f7fb ff07 	bl	8001ce8 <HAL_GetTick>
 8005eda:	4602      	mov	r2, r0
 8005edc:	4b1f      	ldr	r3, [pc, #124]	; (8005f5c <Switch_Read+0x264>)
 8005ede:	681b      	ldr	r3, [r3, #0]
 8005ee0:	1ad3      	subs	r3, r2, r3
 8005ee2:	2b64      	cmp	r3, #100	; 0x64
 8005ee4:	d92c      	bls.n	8005f40 <Switch_Read+0x248>
			Switch_time = HAL_GetTick();
 8005ee6:	f7fb feff 	bl	8001ce8 <HAL_GetTick>
 8005eea:	4603      	mov	r3, r0
 8005eec:	4a1b      	ldr	r2, [pc, #108]	; (8005f5c <Switch_Read+0x264>)
 8005eee:	6013      	str	r3, [r2, #0]
			return Switch_sum | LONG_FLAG;
 8005ef0:	4b1b      	ldr	r3, [pc, #108]	; (8005f60 <Switch_Read+0x268>)
 8005ef2:	881b      	ldrh	r3, [r3, #0]
 8005ef4:	f043 0320 	orr.w	r3, r3, #32
 8005ef8:	b29b      	uxth	r3, r3
 8005efa:	e025      	b.n	8005f48 <Switch_Read+0x250>
	case SWITCH_STATE_PRE_IDLE_LONG:
		if(!Switch_input){
 8005efc:	4b15      	ldr	r3, [pc, #84]	; (8005f54 <Switch_Read+0x25c>)
 8005efe:	881b      	ldrh	r3, [r3, #0]
 8005f00:	2b00      	cmp	r3, #0
 8005f02:	d113      	bne.n	8005f2c <Switch_Read+0x234>
			if(HAL_GetTick() - Switch_lowTime > 80){
 8005f04:	f7fb fef0 	bl	8001ce8 <HAL_GetTick>
 8005f08:	4602      	mov	r2, r0
 8005f0a:	4b16      	ldr	r3, [pc, #88]	; (8005f64 <Switch_Read+0x26c>)
 8005f0c:	681b      	ldr	r3, [r3, #0]
 8005f0e:	1ad3      	subs	r3, r2, r3
 8005f10:	2b50      	cmp	r3, #80	; 0x50
 8005f12:	d917      	bls.n	8005f44 <Switch_Read+0x24c>
				Switch_time = HAL_GetTick();
 8005f14:	f7fb fee8 	bl	8001ce8 <HAL_GetTick>
 8005f18:	4603      	mov	r3, r0
 8005f1a:	4a10      	ldr	r2, [pc, #64]	; (8005f5c <Switch_Read+0x264>)
 8005f1c:	6013      	str	r3, [r2, #0]
				Switch_state = SWITCH_STATE_IDLE;
 8005f1e:	4b0e      	ldr	r3, [pc, #56]	; (8005f58 <Switch_Read+0x260>)
 8005f20:	2200      	movs	r2, #0
 8005f22:	701a      	strb	r2, [r3, #0]
				Switch_sum = 0;
 8005f24:	4b0e      	ldr	r3, [pc, #56]	; (8005f60 <Switch_Read+0x268>)
 8005f26:	2200      	movs	r2, #0
 8005f28:	801a      	strh	r2, [r3, #0]
			}
		}
		else{
			Switch_state = SWITCH_STATE_LONG;
		}
		break;
 8005f2a:	e00b      	b.n	8005f44 <Switch_Read+0x24c>
			Switch_state = SWITCH_STATE_LONG;
 8005f2c:	4b0a      	ldr	r3, [pc, #40]	; (8005f58 <Switch_Read+0x260>)
 8005f2e:	2204      	movs	r2, #4
 8005f30:	701a      	strb	r2, [r3, #0]
		break;
 8005f32:	e007      	b.n	8005f44 <Switch_Read+0x24c>
		break;
 8005f34:	bf00      	nop
 8005f36:	e006      	b.n	8005f46 <Switch_Read+0x24e>
		break;
 8005f38:	bf00      	nop
 8005f3a:	e004      	b.n	8005f46 <Switch_Read+0x24e>
		break;
 8005f3c:	bf00      	nop
 8005f3e:	e002      	b.n	8005f46 <Switch_Read+0x24e>
		break;
 8005f40:	bf00      	nop
 8005f42:	e000      	b.n	8005f46 <Switch_Read+0x24e>
		break;
 8005f44:	bf00      	nop
	}
	return 0;
 8005f46:	2300      	movs	r3, #0
}
 8005f48:	4618      	mov	r0, r3
 8005f4a:	3708      	adds	r7, #8
 8005f4c:	46bd      	mov	sp, r7
 8005f4e:	bd80      	pop	{r7, pc}
 8005f50:	40020400 	.word	0x40020400
 8005f54:	200006e0 	.word	0x200006e0
 8005f58:	200006e2 	.word	0x200006e2
 8005f5c:	200006e4 	.word	0x200006e4
 8005f60:	200006e8 	.word	0x200006e8
 8005f64:	200006ec 	.word	0x200006ec

08005f68 <Control_PID>:
		1.f,		// kd
		10.f,		// filterConst
		5.f			// antiWindUpConst
};

float Control_PID(float sensorADCRead, heater_t *heaterobj, PIDConst PIDMode){
 8005f68:	b084      	sub	sp, #16
 8005f6a:	e92d 4fb0 	stmdb	sp!, {r4, r5, r7, r8, r9, sl, fp, lr}
 8005f6e:	b08c      	sub	sp, #48	; 0x30
 8005f70:	af06      	add	r7, sp, #24
 8005f72:	ed87 0a01 	vstr	s0, [r7, #4]
 8005f76:	6038      	str	r0, [r7, #0]
 8005f78:	f107 003c 	add.w	r0, r7, #60	; 0x3c
 8005f7c:	e880 000e 	stmia.w	r0, {r1, r2, r3}

	float duty;
	heaterobj->prev = heaterobj->current;
 8005f80:	683b      	ldr	r3, [r7, #0]
 8005f82:	695a      	ldr	r2, [r3, #20]
 8005f84:	683b      	ldr	r3, [r7, #0]
 8005f86:	619a      	str	r2, [r3, #24]
	heaterobj->current = sensorADCRead;
 8005f88:	683b      	ldr	r3, [r7, #0]
 8005f8a:	687a      	ldr	r2, [r7, #4]
 8005f8c:	615a      	str	r2, [r3, #20]

	// Proportional term
	float temperatureError = heaterobj->target - heaterobj->current;
 8005f8e:	683b      	ldr	r3, [r7, #0]
 8005f90:	ed93 7a04 	vldr	s14, [r3, #16]
 8005f94:	683b      	ldr	r3, [r7, #0]
 8005f96:	edd3 7a05 	vldr	s15, [r3, #20]
 8005f9a:	ee77 7a67 	vsub.f32	s15, s14, s15
 8005f9e:	edc7 7a04 	vstr	s15, [r7, #16]

	// Derivative term
	float temperatureDifferential = (heaterobj->current - heaterobj->prev) / PERIOD;
 8005fa2:	683b      	ldr	r3, [r7, #0]
 8005fa4:	ed93 7a05 	vldr	s14, [r3, #20]
 8005fa8:	683b      	ldr	r3, [r7, #0]
 8005faa:	edd3 7a06 	vldr	s15, [r3, #24]
 8005fae:	ee77 7a67 	vsub.f32	s15, s14, s15
 8005fb2:	edc7 7a03 	vstr	s15, [r7, #12]

	// Integral term
	heaterobj->errorSum += temperatureError * PERIOD;
 8005fb6:	683b      	ldr	r3, [r7, #0]
 8005fb8:	ed93 7a07 	vldr	s14, [r3, #28]
 8005fbc:	edd7 7a04 	vldr	s15, [r7, #16]
 8005fc0:	ee77 7a27 	vadd.f32	s15, s14, s15
 8005fc4:	683b      	ldr	r3, [r7, #0]
 8005fc6:	edc3 7a07 	vstr	s15, [r3, #28]

	// Low Pass Filtering
	float temperatureDifferentialFilt = PIDMode.filterConst / (1 + PIDMode.filterConst / temperatureDifferential);
 8005fca:	edd7 6a12 	vldr	s13, [r7, #72]	; 0x48
 8005fce:	ed97 6a12 	vldr	s12, [r7, #72]	; 0x48
 8005fd2:	ed97 7a03 	vldr	s14, [r7, #12]
 8005fd6:	eec6 7a07 	vdiv.f32	s15, s12, s14
 8005fda:	eeb7 7a00 	vmov.f32	s14, #112	; 0x3f800000  1.0
 8005fde:	ee37 7a87 	vadd.f32	s14, s15, s14
 8005fe2:	eec6 7a87 	vdiv.f32	s15, s13, s14
 8005fe6:	edc7 7a02 	vstr	s15, [r7, #8]

	// anti wind-up
	if (heaterobj->errorSum > PIDMode.antiWindUpConst) heaterobj->errorSum = PIDMode.antiWindUpConst;
 8005fea:	683b      	ldr	r3, [r7, #0]
 8005fec:	ed93 7a07 	vldr	s14, [r3, #28]
 8005ff0:	edd7 7a13 	vldr	s15, [r7, #76]	; 0x4c
 8005ff4:	eeb4 7ae7 	vcmpe.f32	s14, s15
 8005ff8:	eef1 fa10 	vmrs	APSR_nzcv, fpscr
 8005ffc:	dd03      	ble.n	8006006 <Control_PID+0x9e>
 8005ffe:	6cfa      	ldr	r2, [r7, #76]	; 0x4c
 8006000:	683b      	ldr	r3, [r7, #0]
 8006002:	61da      	str	r2, [r3, #28]
 8006004:	e012      	b.n	800602c <Control_PID+0xc4>
	else if (heaterobj->errorSum < -PIDMode.antiWindUpConst) heaterobj->errorSum = -PIDMode.antiWindUpConst;
 8006006:	683b      	ldr	r3, [r7, #0]
 8006008:	ed93 7a07 	vldr	s14, [r3, #28]
 800600c:	edd7 7a13 	vldr	s15, [r7, #76]	; 0x4c
 8006010:	eef1 7a67 	vneg.f32	s15, s15
 8006014:	eeb4 7ae7 	vcmpe.f32	s14, s15
 8006018:	eef1 fa10 	vmrs	APSR_nzcv, fpscr
 800601c:	d506      	bpl.n	800602c <Control_PID+0xc4>
 800601e:	edd7 7a13 	vldr	s15, [r7, #76]	; 0x4c
 8006022:	eef1 7a67 	vneg.f32	s15, s15
 8006026:	683b      	ldr	r3, [r7, #0]
 8006028:	edc3 7a07 	vstr	s15, [r3, #28]

	// PID control
	duty = (temperatureError * PIDMode.kp + temperatureDifferentialFilt * PIDMode.kd + heaterobj->errorSum * PIDMode.ki)/100;
 800602c:	ed97 7a0f 	vldr	s14, [r7, #60]	; 0x3c
 8006030:	edd7 7a04 	vldr	s15, [r7, #16]
 8006034:	ee27 7a27 	vmul.f32	s14, s14, s15
 8006038:	edd7 6a11 	vldr	s13, [r7, #68]	; 0x44
 800603c:	edd7 7a02 	vldr	s15, [r7, #8]
 8006040:	ee66 7aa7 	vmul.f32	s15, s13, s15
 8006044:	ee37 7a27 	vadd.f32	s14, s14, s15
 8006048:	683b      	ldr	r3, [r7, #0]
 800604a:	edd3 6a07 	vldr	s13, [r3, #28]
 800604e:	edd7 7a10 	vldr	s15, [r7, #64]	; 0x40
 8006052:	ee66 7aa7 	vmul.f32	s15, s13, s15
 8006056:	ee37 7a27 	vadd.f32	s14, s14, s15
 800605a:	eddf 6a25 	vldr	s13, [pc, #148]	; 80060f0 <Control_PID+0x188>
 800605e:	eec7 7a26 	vdiv.f32	s15, s14, s13
 8006062:	edc7 7a05 	vstr	s15, [r7, #20]

	// output limit
	if (duty < 0.01f) duty = 0.f;
 8006066:	edd7 7a05 	vldr	s15, [r7, #20]
 800606a:	ed9f 7a22 	vldr	s14, [pc, #136]	; 80060f4 <Control_PID+0x18c>
 800606e:	eef4 7ac7 	vcmpe.f32	s15, s14
 8006072:	eef1 fa10 	vmrs	APSR_nzcv, fpscr
 8006076:	d502      	bpl.n	800607e <Control_PID+0x116>
 8006078:	f04f 0300 	mov.w	r3, #0
 800607c:	617b      	str	r3, [r7, #20]
	if (duty > 0.99f) duty = 1.f;
 800607e:	edd7 7a05 	vldr	s15, [r7, #20]
 8006082:	ed9f 7a1d 	vldr	s14, [pc, #116]	; 80060f8 <Control_PID+0x190>
 8006086:	eef4 7ac7 	vcmpe.f32	s15, s14
 800608a:	eef1 fa10 	vmrs	APSR_nzcv, fpscr
 800608e:	dd02      	ble.n	8006096 <Control_PID+0x12e>
 8006090:	f04f 537e 	mov.w	r3, #1065353216	; 0x3f800000
 8006094:	617b      	str	r3, [r7, #20]
	printf("Te: %f, Td: %f, ES: %f, duty: %f\r\n", temperatureError, temperatureDifferential, heaterobj->errorSum, duty);
 8006096:	6938      	ldr	r0, [r7, #16]
 8006098:	f7fa fa5e 	bl	8000558 <__aeabi_f2d>
 800609c:	4682      	mov	sl, r0
 800609e:	468b      	mov	fp, r1
 80060a0:	68f8      	ldr	r0, [r7, #12]
 80060a2:	f7fa fa59 	bl	8000558 <__aeabi_f2d>
 80060a6:	4604      	mov	r4, r0
 80060a8:	460d      	mov	r5, r1
 80060aa:	683b      	ldr	r3, [r7, #0]
 80060ac:	69db      	ldr	r3, [r3, #28]
 80060ae:	4618      	mov	r0, r3
 80060b0:	f7fa fa52 	bl	8000558 <__aeabi_f2d>
 80060b4:	4680      	mov	r8, r0
 80060b6:	4689      	mov	r9, r1
 80060b8:	6978      	ldr	r0, [r7, #20]
 80060ba:	f7fa fa4d 	bl	8000558 <__aeabi_f2d>
 80060be:	4602      	mov	r2, r0
 80060c0:	460b      	mov	r3, r1
 80060c2:	e9cd 2304 	strd	r2, r3, [sp, #16]
 80060c6:	e9cd 8902 	strd	r8, r9, [sp, #8]
 80060ca:	e9cd 4500 	strd	r4, r5, [sp]
 80060ce:	4652      	mov	r2, sl
 80060d0:	465b      	mov	r3, fp
 80060d2:	480a      	ldr	r0, [pc, #40]	; (80060fc <Control_PID+0x194>)
 80060d4:	f001 fd5c 	bl	8007b90 <iprintf>
	return duty;
 80060d8:	697b      	ldr	r3, [r7, #20]
 80060da:	ee07 3a90 	vmov	s15, r3
}
 80060de:	eeb0 0a67 	vmov.f32	s0, s15
 80060e2:	3718      	adds	r7, #24
 80060e4:	46bd      	mov	sp, r7
 80060e6:	e8bd 4fb0 	ldmia.w	sp!, {r4, r5, r7, r8, r9, sl, fp, lr}
 80060ea:	b004      	add	sp, #16
 80060ec:	4770      	bx	lr
 80060ee:	bf00      	nop
 80060f0:	42c80000 	.word	0x42c80000
 80060f4:	3c23d70a 	.word	0x3c23d70a
 80060f8:	3f7d70a4 	.word	0x3f7d70a4
 80060fc:	08009ff8 	.word	0x08009ff8

08006100 <HeaterControl_TIM9_IRQ>:
static void Heater_Start(heater_t *heaterobj);
static void Heater_Stop(heater_t *heaterobj);
static void Heater_Set(heater_t *heaterobj);
static void Heater_Controller(tempsensor_t *tempsensor, heater_t *heaterobj);

void HeaterControl_TIM9_IRQ(){
 8006100:	b580      	push	{r7, lr}
 8006102:	af00      	add	r7, sp, #0
	Heater_Controller(tempTop, heaterTop);
 8006104:	4b12      	ldr	r3, [pc, #72]	; (8006150 <HeaterControl_TIM9_IRQ+0x50>)
 8006106:	681b      	ldr	r3, [r3, #0]
 8006108:	4a12      	ldr	r2, [pc, #72]	; (8006154 <HeaterControl_TIM9_IRQ+0x54>)
 800610a:	6812      	ldr	r2, [r2, #0]
 800610c:	4611      	mov	r1, r2
 800610e:	4618      	mov	r0, r3
 8006110:	f000 f8d4 	bl	80062bc <Heater_Controller>
	Heater_Controller(tempBottom, heaterBottom);
 8006114:	4b10      	ldr	r3, [pc, #64]	; (8006158 <HeaterControl_TIM9_IRQ+0x58>)
 8006116:	681b      	ldr	r3, [r3, #0]
 8006118:	4a10      	ldr	r2, [pc, #64]	; (800615c <HeaterControl_TIM9_IRQ+0x5c>)
 800611a:	6812      	ldr	r2, [r2, #0]
 800611c:	4611      	mov	r1, r2
 800611e:	4618      	mov	r0, r3
 8006120:	f000 f8cc 	bl	80062bc <Heater_Controller>
	if(heaterTop->state)
 8006124:	4b0b      	ldr	r3, [pc, #44]	; (8006154 <HeaterControl_TIM9_IRQ+0x54>)
 8006126:	681b      	ldr	r3, [r3, #0]
 8006128:	689b      	ldr	r3, [r3, #8]
 800612a:	2b00      	cmp	r3, #0
 800612c:	d004      	beq.n	8006138 <HeaterControl_TIM9_IRQ+0x38>
		Heater_Set(heaterTop);
 800612e:	4b09      	ldr	r3, [pc, #36]	; (8006154 <HeaterControl_TIM9_IRQ+0x54>)
 8006130:	681b      	ldr	r3, [r3, #0]
 8006132:	4618      	mov	r0, r3
 8006134:	f000 f87e 	bl	8006234 <Heater_Set>
	if(heaterBottom->state)
 8006138:	4b08      	ldr	r3, [pc, #32]	; (800615c <HeaterControl_TIM9_IRQ+0x5c>)
 800613a:	681b      	ldr	r3, [r3, #0]
 800613c:	689b      	ldr	r3, [r3, #8]
 800613e:	2b00      	cmp	r3, #0
 8006140:	d004      	beq.n	800614c <HeaterControl_TIM9_IRQ+0x4c>
		Heater_Set(heaterBottom);
 8006142:	4b06      	ldr	r3, [pc, #24]	; (800615c <HeaterControl_TIM9_IRQ+0x5c>)
 8006144:	681b      	ldr	r3, [r3, #0]
 8006146:	4618      	mov	r0, r3
 8006148:	f000 f874 	bl	8006234 <Heater_Set>
}
 800614c:	bf00      	nop
 800614e:	bd80      	pop	{r7, pc}
 8006150:	200006c4 	.word	0x200006c4
 8006154:	200006cc 	.word	0x200006cc
 8006158:	200006c8 	.word	0x200006c8
 800615c:	200006d0 	.word	0x200006d0

08006160 <Custom_HeaterControl>:

heater_t *Custom_HeaterControl(TIM_HandleTypeDef *htim, uint32_t Channel){
 8006160:	b580      	push	{r7, lr}
 8006162:	b084      	sub	sp, #16
 8006164:	af00      	add	r7, sp, #0
 8006166:	6078      	str	r0, [r7, #4]
 8006168:	6039      	str	r1, [r7, #0]
	//
	heater_t *heaterobj = (heater_t*) calloc(1, sizeof(heater_t));
 800616a:	212c      	movs	r1, #44	; 0x2c
 800616c:	2001      	movs	r0, #1
 800616e:	f000 ff6d 	bl	800704c <calloc>
 8006172:	4603      	mov	r3, r0
 8006174:	60fb      	str	r3, [r7, #12]

	// Setting methods
	heaterobj->channel = Channel;
 8006176:	68fb      	ldr	r3, [r7, #12]
 8006178:	683a      	ldr	r2, [r7, #0]
 800617a:	605a      	str	r2, [r3, #4]
	heaterobj->current = .0f;
 800617c:	68fb      	ldr	r3, [r7, #12]
 800617e:	f04f 0200 	mov.w	r2, #0
 8006182:	615a      	str	r2, [r3, #20]
	heaterobj->duty = .0f;
 8006184:	68fb      	ldr	r3, [r7, #12]
 8006186:	f04f 0200 	mov.w	r2, #0
 800618a:	60da      	str	r2, [r3, #12]
	heaterobj->errorSum = .0f;
 800618c:	68fb      	ldr	r3, [r7, #12]
 800618e:	f04f 0200 	mov.w	r2, #0
 8006192:	61da      	str	r2, [r3, #28]
	heaterobj->htim = htim;
 8006194:	68fb      	ldr	r3, [r7, #12]
 8006196:	687a      	ldr	r2, [r7, #4]
 8006198:	601a      	str	r2, [r3, #0]
	heaterobj->onFlag = false;
 800619a:	68fb      	ldr	r3, [r7, #12]
 800619c:	2200      	movs	r2, #0
 800619e:	f883 2020 	strb.w	r2, [r3, #32]
	heaterobj->prev = .0f;
 80061a2:	68fb      	ldr	r3, [r7, #12]
 80061a4:	f04f 0200 	mov.w	r2, #0
 80061a8:	619a      	str	r2, [r3, #24]
	heaterobj->state = OFF;
 80061aa:	68fb      	ldr	r3, [r7, #12]
 80061ac:	2200      	movs	r2, #0
 80061ae:	609a      	str	r2, [r3, #8]
	heaterobj->target = .0f;
 80061b0:	68fb      	ldr	r3, [r7, #12]
 80061b2:	f04f 0200 	mov.w	r2, #0
 80061b6:	611a      	str	r2, [r3, #16]

	// Setting fields
	heaterobj->start = Heater_Start;
 80061b8:	68fb      	ldr	r3, [r7, #12]
 80061ba:	4a05      	ldr	r2, [pc, #20]	; (80061d0 <Custom_HeaterControl+0x70>)
 80061bc:	625a      	str	r2, [r3, #36]	; 0x24
	heaterobj->stop = Heater_Stop;
 80061be:	68fb      	ldr	r3, [r7, #12]
 80061c0:	4a04      	ldr	r2, [pc, #16]	; (80061d4 <Custom_HeaterControl+0x74>)
 80061c2:	629a      	str	r2, [r3, #40]	; 0x28

	return heaterobj;
 80061c4:	68fb      	ldr	r3, [r7, #12]
}
 80061c6:	4618      	mov	r0, r3
 80061c8:	3710      	adds	r7, #16
 80061ca:	46bd      	mov	sp, r7
 80061cc:	bd80      	pop	{r7, pc}
 80061ce:	bf00      	nop
 80061d0:	080061d9 	.word	0x080061d9
 80061d4:	08006201 	.word	0x08006201

080061d8 <Heater_Start>:

static void Heater_Start(heater_t *heaterobj){
 80061d8:	b580      	push	{r7, lr}
 80061da:	b082      	sub	sp, #8
 80061dc:	af00      	add	r7, sp, #0
 80061de:	6078      	str	r0, [r7, #4]
	heaterobj->onFlag = true;
 80061e0:	687b      	ldr	r3, [r7, #4]
 80061e2:	2201      	movs	r2, #1
 80061e4:	f883 2020 	strb.w	r2, [r3, #32]
	HAL_TIM_PWM_Start(heaterobj->htim, heaterobj->channel);
 80061e8:	687b      	ldr	r3, [r7, #4]
 80061ea:	681a      	ldr	r2, [r3, #0]
 80061ec:	687b      	ldr	r3, [r7, #4]
 80061ee:	685b      	ldr	r3, [r3, #4]
 80061f0:	4619      	mov	r1, r3
 80061f2:	4610      	mov	r0, r2
 80061f4:	f7fd fb72 	bl	80038dc <HAL_TIM_PWM_Start>
}
 80061f8:	bf00      	nop
 80061fa:	3708      	adds	r7, #8
 80061fc:	46bd      	mov	sp, r7
 80061fe:	bd80      	pop	{r7, pc}

08006200 <Heater_Stop>:

static void Heater_Stop(heater_t *heaterobj){
 8006200:	b580      	push	{r7, lr}
 8006202:	b082      	sub	sp, #8
 8006204:	af00      	add	r7, sp, #0
 8006206:	6078      	str	r0, [r7, #4]
	heaterobj->onFlag = false;
 8006208:	687b      	ldr	r3, [r7, #4]
 800620a:	2200      	movs	r2, #0
 800620c:	f883 2020 	strb.w	r2, [r3, #32]
	while (heaterobj->state != OFF)	// Heater_Controller OFF  
 8006210:	e007      	b.n	8006222 <Heater_Stop+0x22>
	HAL_TIM_PWM_Stop(heaterobj->htim, heaterobj->channel);
 8006212:	687b      	ldr	r3, [r7, #4]
 8006214:	681a      	ldr	r2, [r3, #0]
 8006216:	687b      	ldr	r3, [r7, #4]
 8006218:	685b      	ldr	r3, [r3, #4]
 800621a:	4619      	mov	r1, r3
 800621c:	4610      	mov	r0, r2
 800621e:	f7fd fc0d 	bl	8003a3c <HAL_TIM_PWM_Stop>
	while (heaterobj->state != OFF)	// Heater_Controller OFF  
 8006222:	687b      	ldr	r3, [r7, #4]
 8006224:	689b      	ldr	r3, [r3, #8]
 8006226:	2b00      	cmp	r3, #0
 8006228:	d1f3      	bne.n	8006212 <Heater_Stop+0x12>
}
 800622a:	bf00      	nop
 800622c:	bf00      	nop
 800622e:	3708      	adds	r7, #8
 8006230:	46bd      	mov	sp, r7
 8006232:	bd80      	pop	{r7, pc}

08006234 <Heater_Set>:

static void Heater_Set(heater_t *heaterobj){
 8006234:	b480      	push	{r7}
 8006236:	b085      	sub	sp, #20
 8006238:	af00      	add	r7, sp, #0
 800623a:	6078      	str	r0, [r7, #4]
	// Duty ratio to duty cycle conversion
	uint32_t dutycycle = heaterobj->duty * (__HAL_TIM_GET_AUTORELOAD(heaterobj->htim)+1) - 1;
 800623c:	687b      	ldr	r3, [r7, #4]
 800623e:	ed93 7a03 	vldr	s14, [r3, #12]
 8006242:	687b      	ldr	r3, [r7, #4]
 8006244:	681b      	ldr	r3, [r3, #0]
 8006246:	681b      	ldr	r3, [r3, #0]
 8006248:	6adb      	ldr	r3, [r3, #44]	; 0x2c
 800624a:	3301      	adds	r3, #1
 800624c:	ee07 3a90 	vmov	s15, r3
 8006250:	eef8 7a67 	vcvt.f32.u32	s15, s15
 8006254:	ee67 7a27 	vmul.f32	s15, s14, s15
 8006258:	eeb7 7a00 	vmov.f32	s14, #112	; 0x3f800000  1.0
 800625c:	ee77 7ac7 	vsub.f32	s15, s15, s14
 8006260:	eefc 7ae7 	vcvt.u32.f32	s15, s15
 8006264:	ee17 3a90 	vmov	r3, s15
 8006268:	60fb      	str	r3, [r7, #12]
	// Set duty rate of PWM
	__HAL_TIM_SET_COMPARE(heaterobj->htim, heaterobj->channel, dutycycle);
 800626a:	687b      	ldr	r3, [r7, #4]
 800626c:	685b      	ldr	r3, [r3, #4]
 800626e:	2b00      	cmp	r3, #0
 8006270:	d105      	bne.n	800627e <Heater_Set+0x4a>
 8006272:	687b      	ldr	r3, [r7, #4]
 8006274:	681b      	ldr	r3, [r3, #0]
 8006276:	681b      	ldr	r3, [r3, #0]
 8006278:	68fa      	ldr	r2, [r7, #12]
 800627a:	635a      	str	r2, [r3, #52]	; 0x34
}
 800627c:	e018      	b.n	80062b0 <Heater_Set+0x7c>
	__HAL_TIM_SET_COMPARE(heaterobj->htim, heaterobj->channel, dutycycle);
 800627e:	687b      	ldr	r3, [r7, #4]
 8006280:	685b      	ldr	r3, [r3, #4]
 8006282:	2b04      	cmp	r3, #4
 8006284:	d105      	bne.n	8006292 <Heater_Set+0x5e>
 8006286:	687b      	ldr	r3, [r7, #4]
 8006288:	681b      	ldr	r3, [r3, #0]
 800628a:	681a      	ldr	r2, [r3, #0]
 800628c:	68fb      	ldr	r3, [r7, #12]
 800628e:	6393      	str	r3, [r2, #56]	; 0x38
}
 8006290:	e00e      	b.n	80062b0 <Heater_Set+0x7c>
	__HAL_TIM_SET_COMPARE(heaterobj->htim, heaterobj->channel, dutycycle);
 8006292:	687b      	ldr	r3, [r7, #4]
 8006294:	685b      	ldr	r3, [r3, #4]
 8006296:	2b08      	cmp	r3, #8
 8006298:	d105      	bne.n	80062a6 <Heater_Set+0x72>
 800629a:	687b      	ldr	r3, [r7, #4]
 800629c:	681b      	ldr	r3, [r3, #0]
 800629e:	681a      	ldr	r2, [r3, #0]
 80062a0:	68fb      	ldr	r3, [r7, #12]
 80062a2:	63d3      	str	r3, [r2, #60]	; 0x3c
}
 80062a4:	e004      	b.n	80062b0 <Heater_Set+0x7c>
	__HAL_TIM_SET_COMPARE(heaterobj->htim, heaterobj->channel, dutycycle);
 80062a6:	687b      	ldr	r3, [r7, #4]
 80062a8:	681b      	ldr	r3, [r3, #0]
 80062aa:	681a      	ldr	r2, [r3, #0]
 80062ac:	68fb      	ldr	r3, [r7, #12]
 80062ae:	6413      	str	r3, [r2, #64]	; 0x40
}
 80062b0:	bf00      	nop
 80062b2:	3714      	adds	r7, #20
 80062b4:	46bd      	mov	sp, r7
 80062b6:	f85d 7b04 	ldr.w	r7, [sp], #4
 80062ba:	4770      	bx	lr

080062bc <Heater_Controller>:

static void Heater_Controller(tempsensor_t *tempsensorobj, heater_t *heaterobj){
 80062bc:	b590      	push	{r4, r7, lr}
 80062be:	b087      	sub	sp, #28
 80062c0:	af02      	add	r7, sp, #8
 80062c2:	6078      	str	r0, [r7, #4]
 80062c4:	6039      	str	r1, [r7, #0]
	float sensorADCRead = tempsensorobj->read(tempsensorobj);
 80062c6:	687b      	ldr	r3, [r7, #4]
 80062c8:	699b      	ldr	r3, [r3, #24]
 80062ca:	6878      	ldr	r0, [r7, #4]
 80062cc:	4798      	blx	r3
 80062ce:	ed87 0a03 	vstr	s0, [r7, #12]
	if (sensorADCRead == NAN)
		return;

	switch (heaterobj->state){
 80062d2:	683b      	ldr	r3, [r7, #0]
 80062d4:	689b      	ldr	r3, [r3, #8]
 80062d6:	2b04      	cmp	r3, #4
 80062d8:	f200 80d9 	bhi.w	800648e <Heater_Controller+0x1d2>
 80062dc:	a201      	add	r2, pc, #4	; (adr r2, 80062e4 <Heater_Controller+0x28>)
 80062de:	f852 f023 	ldr.w	pc, [r2, r3, lsl #2]
 80062e2:	bf00      	nop
 80062e4:	080062f9 	.word	0x080062f9
 80062e8:	0800633d 	.word	0x0800633d
 80062ec:	08006385 	.word	0x08006385
 80062f0:	0800648f 	.word	0x0800648f
 80062f4:	0800640b 	.word	0x0800640b
		case OFF:
			heaterobj->duty = 0.f;
 80062f8:	683b      	ldr	r3, [r7, #0]
 80062fa:	f04f 0200 	mov.w	r2, #0
 80062fe:	60da      	str	r2, [r3, #12]
			heaterobj->target = 0.f;
 8006300:	683b      	ldr	r3, [r7, #0]
 8006302:	f04f 0200 	mov.w	r2, #0
 8006306:	611a      	str	r2, [r3, #16]
			heaterobj->errorSum = 0.f;
 8006308:	683b      	ldr	r3, [r7, #0]
 800630a:	f04f 0200 	mov.w	r2, #0
 800630e:	61da      	str	r2, [r3, #28]
			heaterobj->prev = 0.f;
 8006310:	683b      	ldr	r3, [r7, #0]
 8006312:	f04f 0200 	mov.w	r2, #0
 8006316:	619a      	str	r2, [r3, #24]
			heaterobj->current = 0.f;
 8006318:	683b      	ldr	r3, [r7, #0]
 800631a:	f04f 0200 	mov.w	r2, #0
 800631e:	615a      	str	r2, [r3, #20]
			if (heaterobj->onFlag) {
 8006320:	683b      	ldr	r3, [r7, #0]
 8006322:	f893 3020 	ldrb.w	r3, [r3, #32]
 8006326:	2b00      	cmp	r3, #0
 8006328:	f000 80b9 	beq.w	800649e <Heater_Controller+0x1e2>
				heaterobj->start(heaterobj);
 800632c:	683b      	ldr	r3, [r7, #0]
 800632e:	6a5b      	ldr	r3, [r3, #36]	; 0x24
 8006330:	6838      	ldr	r0, [r7, #0]
 8006332:	4798      	blx	r3
				heaterobj->state = PREHEATING;
 8006334:	683b      	ldr	r3, [r7, #0]
 8006336:	2201      	movs	r2, #1
 8006338:	609a      	str	r2, [r3, #8]
			}
			break;
 800633a:	e0b0      	b.n	800649e <Heater_Controller+0x1e2>

		case PREHEATING:
			heaterobj->duty = 1.f;
 800633c:	683b      	ldr	r3, [r7, #0]
 800633e:	f04f 527e 	mov.w	r2, #1065353216	; 0x3f800000
 8006342:	60da      	str	r2, [r3, #12]
			if (!heaterobj->onFlag) heaterobj->state = OFF;
 8006344:	683b      	ldr	r3, [r7, #0]
 8006346:	f893 3020 	ldrb.w	r3, [r3, #32]
 800634a:	f083 0301 	eor.w	r3, r3, #1
 800634e:	b2db      	uxtb	r3, r3
 8006350:	2b00      	cmp	r3, #0
 8006352:	d003      	beq.n	800635c <Heater_Controller+0xa0>
 8006354:	683b      	ldr	r3, [r7, #0]
 8006356:	2200      	movs	r2, #0
 8006358:	609a      	str	r2, [r3, #8]
			else if (heaterobj->current > heaterobj->target - 5.f) heaterobj->state = TRANSIENT;
			break;
 800635a:	e0a1      	b.n	80064a0 <Heater_Controller+0x1e4>
			else if (heaterobj->current > heaterobj->target - 5.f) heaterobj->state = TRANSIENT;
 800635c:	683b      	ldr	r3, [r7, #0]
 800635e:	ed93 7a05 	vldr	s14, [r3, #20]
 8006362:	683b      	ldr	r3, [r7, #0]
 8006364:	edd3 7a04 	vldr	s15, [r3, #16]
 8006368:	eef1 6a04 	vmov.f32	s13, #20	; 0x40a00000  5.0
 800636c:	ee77 7ae6 	vsub.f32	s15, s15, s13
 8006370:	eeb4 7ae7 	vcmpe.f32	s14, s15
 8006374:	eef1 fa10 	vmrs	APSR_nzcv, fpscr
 8006378:	dc00      	bgt.n	800637c <Heater_Controller+0xc0>
			break;
 800637a:	e091      	b.n	80064a0 <Heater_Controller+0x1e4>
			else if (heaterobj->current > heaterobj->target - 5.f) heaterobj->state = TRANSIENT;
 800637c:	683b      	ldr	r3, [r7, #0]
 800637e:	2202      	movs	r2, #2
 8006380:	609a      	str	r2, [r3, #8]
			break;
 8006382:	e08d      	b.n	80064a0 <Heater_Controller+0x1e4>

		case TRANSIENT:
			heaterobj->duty = Control_PID(sensorADCRead, heaterobj, PIDTransient);
 8006384:	4b48      	ldr	r3, [pc, #288]	; (80064a8 <Heater_Controller+0x1ec>)
 8006386:	466c      	mov	r4, sp
 8006388:	f103 020c 	add.w	r2, r3, #12
 800638c:	e892 0003 	ldmia.w	r2, {r0, r1}
 8006390:	e884 0003 	stmia.w	r4, {r0, r1}
 8006394:	cb0e      	ldmia	r3, {r1, r2, r3}
 8006396:	6838      	ldr	r0, [r7, #0]
 8006398:	ed97 0a03 	vldr	s0, [r7, #12]
 800639c:	f7ff fde4 	bl	8005f68 <Control_PID>
 80063a0:	eef0 7a40 	vmov.f32	s15, s0
 80063a4:	683b      	ldr	r3, [r7, #0]
 80063a6:	edc3 7a03 	vstr	s15, [r3, #12]
			if (!heaterobj->onFlag) heaterobj->state = OFF;
 80063aa:	683b      	ldr	r3, [r7, #0]
 80063ac:	f893 3020 	ldrb.w	r3, [r3, #32]
 80063b0:	f083 0301 	eor.w	r3, r3, #1
 80063b4:	b2db      	uxtb	r3, r3
 80063b6:	2b00      	cmp	r3, #0
 80063b8:	d003      	beq.n	80063c2 <Heater_Controller+0x106>
 80063ba:	683b      	ldr	r3, [r7, #0]
 80063bc:	2200      	movs	r2, #0
 80063be:	609a      	str	r2, [r3, #8]
			else if ((heaterobj->current > heaterobj->prev - DEVIATION) && (heaterobj->current < heaterobj->prev + DEVIATION)) heaterobj->state = STEADY;
			break;
 80063c0:	e06e      	b.n	80064a0 <Heater_Controller+0x1e4>
			else if ((heaterobj->current > heaterobj->prev - DEVIATION) && (heaterobj->current < heaterobj->prev + DEVIATION)) heaterobj->state = STEADY;
 80063c2:	683b      	ldr	r3, [r7, #0]
 80063c4:	ed93 7a05 	vldr	s14, [r3, #20]
 80063c8:	683b      	ldr	r3, [r7, #0]
 80063ca:	edd3 7a06 	vldr	s15, [r3, #24]
 80063ce:	eddf 6a37 	vldr	s13, [pc, #220]	; 80064ac <Heater_Controller+0x1f0>
 80063d2:	ee77 7ae6 	vsub.f32	s15, s15, s13
 80063d6:	eeb4 7ae7 	vcmpe.f32	s14, s15
 80063da:	eef1 fa10 	vmrs	APSR_nzcv, fpscr
 80063de:	dc00      	bgt.n	80063e2 <Heater_Controller+0x126>
			break;
 80063e0:	e05e      	b.n	80064a0 <Heater_Controller+0x1e4>
			else if ((heaterobj->current > heaterobj->prev - DEVIATION) && (heaterobj->current < heaterobj->prev + DEVIATION)) heaterobj->state = STEADY;
 80063e2:	683b      	ldr	r3, [r7, #0]
 80063e4:	ed93 7a05 	vldr	s14, [r3, #20]
 80063e8:	683b      	ldr	r3, [r7, #0]
 80063ea:	edd3 7a06 	vldr	s15, [r3, #24]
 80063ee:	eddf 6a2f 	vldr	s13, [pc, #188]	; 80064ac <Heater_Controller+0x1f0>
 80063f2:	ee77 7aa6 	vadd.f32	s15, s15, s13
 80063f6:	eeb4 7ae7 	vcmpe.f32	s14, s15
 80063fa:	eef1 fa10 	vmrs	APSR_nzcv, fpscr
 80063fe:	d400      	bmi.n	8006402 <Heater_Controller+0x146>
			break;
 8006400:	e04e      	b.n	80064a0 <Heater_Controller+0x1e4>
			else if ((heaterobj->current > heaterobj->prev - DEVIATION) && (heaterobj->current < heaterobj->prev + DEVIATION)) heaterobj->state = STEADY;
 8006402:	683b      	ldr	r3, [r7, #0]
 8006404:	2204      	movs	r2, #4
 8006406:	609a      	str	r2, [r3, #8]
			break;
 8006408:	e04a      	b.n	80064a0 <Heater_Controller+0x1e4>

		case STEADY:
			heaterobj->duty = Control_PID(sensorADCRead, heaterobj, PIDSteady);
 800640a:	4b29      	ldr	r3, [pc, #164]	; (80064b0 <Heater_Controller+0x1f4>)
 800640c:	466c      	mov	r4, sp
 800640e:	f103 020c 	add.w	r2, r3, #12
 8006412:	e892 0003 	ldmia.w	r2, {r0, r1}
 8006416:	e884 0003 	stmia.w	r4, {r0, r1}
 800641a:	cb0e      	ldmia	r3, {r1, r2, r3}
 800641c:	6838      	ldr	r0, [r7, #0]
 800641e:	ed97 0a03 	vldr	s0, [r7, #12]
 8006422:	f7ff fda1 	bl	8005f68 <Control_PID>
 8006426:	eef0 7a40 	vmov.f32	s15, s0
 800642a:	683b      	ldr	r3, [r7, #0]
 800642c:	edc3 7a03 	vstr	s15, [r3, #12]
			if (!heaterobj->onFlag) heaterobj->state = OFF;
 8006430:	683b      	ldr	r3, [r7, #0]
 8006432:	f893 3020 	ldrb.w	r3, [r3, #32]
 8006436:	f083 0301 	eor.w	r3, r3, #1
 800643a:	b2db      	uxtb	r3, r3
 800643c:	2b00      	cmp	r3, #0
 800643e:	d003      	beq.n	8006448 <Heater_Controller+0x18c>
 8006440:	683b      	ldr	r3, [r7, #0]
 8006442:	2200      	movs	r2, #0
 8006444:	609a      	str	r2, [r3, #8]
			else if ((heaterobj->current <= heaterobj->prev - DEVIATION) || (heaterobj->current >= heaterobj->prev + DEVIATION)) heaterobj->state = TRANSIENT;
			break;
 8006446:	e02b      	b.n	80064a0 <Heater_Controller+0x1e4>
			else if ((heaterobj->current <= heaterobj->prev - DEVIATION) || (heaterobj->current >= heaterobj->prev + DEVIATION)) heaterobj->state = TRANSIENT;
 8006448:	683b      	ldr	r3, [r7, #0]
 800644a:	ed93 7a05 	vldr	s14, [r3, #20]
 800644e:	683b      	ldr	r3, [r7, #0]
 8006450:	edd3 7a06 	vldr	s15, [r3, #24]
 8006454:	eddf 6a15 	vldr	s13, [pc, #84]	; 80064ac <Heater_Controller+0x1f0>
 8006458:	ee77 7ae6 	vsub.f32	s15, s15, s13
 800645c:	eeb4 7ae7 	vcmpe.f32	s14, s15
 8006460:	eef1 fa10 	vmrs	APSR_nzcv, fpscr
 8006464:	d90f      	bls.n	8006486 <Heater_Controller+0x1ca>
 8006466:	683b      	ldr	r3, [r7, #0]
 8006468:	ed93 7a05 	vldr	s14, [r3, #20]
 800646c:	683b      	ldr	r3, [r7, #0]
 800646e:	edd3 7a06 	vldr	s15, [r3, #24]
 8006472:	eddf 6a0e 	vldr	s13, [pc, #56]	; 80064ac <Heater_Controller+0x1f0>
 8006476:	ee77 7aa6 	vadd.f32	s15, s15, s13
 800647a:	eeb4 7ae7 	vcmpe.f32	s14, s15
 800647e:	eef1 fa10 	vmrs	APSR_nzcv, fpscr
 8006482:	da00      	bge.n	8006486 <Heater_Controller+0x1ca>
			break;
 8006484:	e00c      	b.n	80064a0 <Heater_Controller+0x1e4>
			else if ((heaterobj->current <= heaterobj->prev - DEVIATION) || (heaterobj->current >= heaterobj->prev + DEVIATION)) heaterobj->state = TRANSIENT;
 8006486:	683b      	ldr	r3, [r7, #0]
 8006488:	2202      	movs	r2, #2
 800648a:	609a      	str	r2, [r3, #8]
			break;
 800648c:	e008      	b.n	80064a0 <Heater_Controller+0x1e4>

		default:
			heaterobj->onFlag = 0;
 800648e:	683b      	ldr	r3, [r7, #0]
 8006490:	2200      	movs	r2, #0
 8006492:	f883 2020 	strb.w	r2, [r3, #32]
			heaterobj->state = OFF;
 8006496:	683b      	ldr	r3, [r7, #0]
 8006498:	2200      	movs	r2, #0
 800649a:	609a      	str	r2, [r3, #8]
 800649c:	e000      	b.n	80064a0 <Heater_Controller+0x1e4>
			break;
 800649e:	bf00      	nop
	}
}
 80064a0:	3714      	adds	r7, #20
 80064a2:	46bd      	mov	sp, r7
 80064a4:	bd90      	pop	{r4, r7, pc}
 80064a6:	bf00      	nop
 80064a8:	20000204 	.word	0x20000204
 80064ac:	3e4ccccd 	.word	0x3e4ccccd
 80064b0:	20000218 	.word	0x20000218

080064b4 <Systick_Sensor_IRQ>:
/* Functions */

//   1    .
// HAL_InitTick  Systick  1ms  ,
//   1ms.
void Systick_Sensor_IRQ() {
 80064b4:	b480      	push	{r7}
 80064b6:	b083      	sub	sp, #12
 80064b8:	af00      	add	r7, sp, #0
	//  0 , waitcount  1 .
	//   node , next node      .
	if (waitcount_node_storage.size > 0) {
 80064ba:	4b10      	ldr	r3, [pc, #64]	; (80064fc <Systick_Sensor_IRQ+0x48>)
 80064bc:	689b      	ldr	r3, [r3, #8]
 80064be:	2b00      	cmp	r3, #0
 80064c0:	d015      	beq.n	80064ee <Systick_Sensor_IRQ+0x3a>
		waitcount_node *cur_node = waitcount_node_storage.frontPtr;
 80064c2:	4b0e      	ldr	r3, [pc, #56]	; (80064fc <Systick_Sensor_IRQ+0x48>)
 80064c4:	681b      	ldr	r3, [r3, #0]
 80064c6:	607b      	str	r3, [r7, #4]
		while (cur_node != NULL) {
 80064c8:	e00e      	b.n	80064e8 <Systick_Sensor_IRQ+0x34>
			cur_node->data -= (cur_node->data == 0) ? 0 : 1;
 80064ca:	687b      	ldr	r3, [r7, #4]
 80064cc:	681b      	ldr	r3, [r3, #0]
 80064ce:	687a      	ldr	r2, [r7, #4]
 80064d0:	6812      	ldr	r2, [r2, #0]
 80064d2:	2a00      	cmp	r2, #0
 80064d4:	bf14      	ite	ne
 80064d6:	2201      	movne	r2, #1
 80064d8:	2200      	moveq	r2, #0
 80064da:	b2d2      	uxtb	r2, r2
 80064dc:	1a9a      	subs	r2, r3, r2
 80064de:	687b      	ldr	r3, [r7, #4]
 80064e0:	601a      	str	r2, [r3, #0]
			cur_node = cur_node->next;
 80064e2:	687b      	ldr	r3, [r7, #4]
 80064e4:	685b      	ldr	r3, [r3, #4]
 80064e6:	607b      	str	r3, [r7, #4]
		while (cur_node != NULL) {
 80064e8:	687b      	ldr	r3, [r7, #4]
 80064ea:	2b00      	cmp	r3, #0
 80064ec:	d1ed      	bne.n	80064ca <Systick_Sensor_IRQ+0x16>
		}
	}
}
 80064ee:	bf00      	nop
 80064f0:	370c      	adds	r7, #12
 80064f2:	46bd      	mov	sp, r7
 80064f4:	f85d 7b04 	ldr.w	r7, [sp], #4
 80064f8:	4770      	bx	lr
 80064fa:	bf00      	nop
 80064fc:	200006f0 	.word	0x200006f0

08006500 <Custom_Tempsensor>:

tempsensor_t* Custom_Tempsensor(SPI_HandleTypeDef *hspi, GPIO_TypeDef* GPIOx, uint16_t GPIO_Pin, uint32_t interval) {
 8006500:	b580      	push	{r7, lr}
 8006502:	b086      	sub	sp, #24
 8006504:	af00      	add	r7, sp, #0
 8006506:	60f8      	str	r0, [r7, #12]
 8006508:	60b9      	str	r1, [r7, #8]
 800650a:	603b      	str	r3, [r7, #0]
 800650c:	4613      	mov	r3, r2
 800650e:	80fb      	strh	r3, [r7, #6]
	// Setting methods
	tempsensor_t *sensorobj = (tempsensor_t*) calloc(1, sizeof(tempsensor_t));
 8006510:	212c      	movs	r1, #44	; 0x2c
 8006512:	2001      	movs	r0, #1
 8006514:	f000 fd9a 	bl	800704c <calloc>
 8006518:	4603      	mov	r3, r0
 800651a:	617b      	str	r3, [r7, #20]

	sensorobj->read = read;
 800651c:	697b      	ldr	r3, [r7, #20]
 800651e:	4a1b      	ldr	r2, [pc, #108]	; (800658c <Custom_Tempsensor+0x8c>)
 8006520:	619a      	str	r2, [r3, #24]
	sensorobj->is_readable = is_readable;
 8006522:	697b      	ldr	r3, [r7, #20]
 8006524:	4a1a      	ldr	r2, [pc, #104]	; (8006590 <Custom_Tempsensor+0x90>)
 8006526:	61da      	str	r2, [r3, #28]
	sensorobj->set_interval = set_interval;
 8006528:	697b      	ldr	r3, [r7, #20]
 800652a:	4a1a      	ldr	r2, [pc, #104]	; (8006594 <Custom_Tempsensor+0x94>)
 800652c:	621a      	str	r2, [r3, #32]
	sensorobj->get_interval = get_interval;
 800652e:	697b      	ldr	r3, [r7, #20]
 8006530:	4a19      	ldr	r2, [pc, #100]	; (8006598 <Custom_Tempsensor+0x98>)
 8006532:	625a      	str	r2, [r3, #36]	; 0x24
	sensorobj->read_waitcount = read_waitcount;
 8006534:	697b      	ldr	r3, [r7, #20]
 8006536:	4a19      	ldr	r2, [pc, #100]	; (800659c <Custom_Tempsensor+0x9c>)
 8006538:	629a      	str	r2, [r3, #40]	; 0x28


	// Setting fields
	sensorobj->hspi = hspi;
 800653a:	697b      	ldr	r3, [r7, #20]
 800653c:	68fa      	ldr	r2, [r7, #12]
 800653e:	601a      	str	r2, [r3, #0]
	sensorobj->__sensor_interval = interval;
 8006540:	697b      	ldr	r3, [r7, #20]
 8006542:	683a      	ldr	r2, [r7, #0]
 8006544:	60da      	str	r2, [r3, #12]

	// Setting CS pin
	sensorobj->csPin = GPIO_Pin;
 8006546:	697b      	ldr	r3, [r7, #20]
 8006548:	88fa      	ldrh	r2, [r7, #6]
 800654a:	829a      	strh	r2, [r3, #20]
	sensorobj->csPort = GPIOx;
 800654c:	697b      	ldr	r3, [r7, #20]
 800654e:	68ba      	ldr	r2, [r7, #8]
 8006550:	605a      	str	r2, [r3, #4]

	// Pulling up CS pin
	HAL_GPIO_WritePin(sensorobj->csPort, sensorobj->csPin, GPIO_PIN_SET);
 8006552:	697b      	ldr	r3, [r7, #20]
 8006554:	6858      	ldr	r0, [r3, #4]
 8006556:	697b      	ldr	r3, [r7, #20]
 8006558:	8a9b      	ldrh	r3, [r3, #20]
 800655a:	2201      	movs	r2, #1
 800655c:	4619      	mov	r1, r3
 800655e:	f7fb fea1 	bl	80022a4 <HAL_GPIO_WritePin>

	// setting waitCount object
	waitcount_node *waitCntNode = (waitcount_node*) calloc(1, sizeof(waitcount_node));
 8006562:	2108      	movs	r1, #8
 8006564:	2001      	movs	r0, #1
 8006566:	f000 fd71 	bl	800704c <calloc>
 800656a:	4603      	mov	r3, r0
 800656c:	613b      	str	r3, [r7, #16]
	sensorobj->waitCount = &(waitCntNode->data);
 800656e:	693a      	ldr	r2, [r7, #16]
 8006570:	697b      	ldr	r3, [r7, #20]
 8006572:	609a      	str	r2, [r3, #8]
	*(sensorobj->waitCount) = 10;	// for initialize&interrupt working test
 8006574:	697b      	ldr	r3, [r7, #20]
 8006576:	689b      	ldr	r3, [r3, #8]
 8006578:	220a      	movs	r2, #10
 800657a:	601a      	str	r2, [r3, #0]
	Add_GlobalWaitCountNode(waitCntNode);
 800657c:	6938      	ldr	r0, [r7, #16]
 800657e:	f000 f80f 	bl	80065a0 <Add_GlobalWaitCountNode>

	return sensorobj;
 8006582:	697b      	ldr	r3, [r7, #20]
}
 8006584:	4618      	mov	r0, r3
 8006586:	3718      	adds	r7, #24
 8006588:	46bd      	mov	sp, r7
 800658a:	bd80      	pop	{r7, pc}
 800658c:	08006671 	.word	0x08006671
 8006590:	080066bf 	.word	0x080066bf
 8006594:	080066e3 	.word	0x080066e3
 8006598:	080066ff 	.word	0x080066ff
 800659c:	08006717 	.word	0x08006717

080065a0 <Add_GlobalWaitCountNode>:

void Add_GlobalWaitCountNode(waitcount_node *waitCntNode) {
 80065a0:	b480      	push	{r7}
 80065a2:	b083      	sub	sp, #12
 80065a4:	af00      	add	r7, sp, #0
 80065a6:	6078      	str	r0, [r7, #4]
	if (waitCntNode != NULL) {
 80065a8:	687b      	ldr	r3, [r7, #4]
 80065aa:	2b00      	cmp	r3, #0
 80065ac:	d013      	beq.n	80065d6 <Add_GlobalWaitCountNode+0x36>

		if (waitcount_node_storage.size == 0) {
 80065ae:	4b0d      	ldr	r3, [pc, #52]	; (80065e4 <Add_GlobalWaitCountNode+0x44>)
 80065b0:	689b      	ldr	r3, [r3, #8]
 80065b2:	2b00      	cmp	r3, #0
 80065b4:	d103      	bne.n	80065be <Add_GlobalWaitCountNode+0x1e>
			waitcount_node_storage.frontPtr = waitCntNode;
 80065b6:	4a0b      	ldr	r2, [pc, #44]	; (80065e4 <Add_GlobalWaitCountNode+0x44>)
 80065b8:	687b      	ldr	r3, [r7, #4]
 80065ba:	6013      	str	r3, [r2, #0]
 80065bc:	e003      	b.n	80065c6 <Add_GlobalWaitCountNode+0x26>
		} else {
			waitcount_node_storage.backPtr->next = waitCntNode;
 80065be:	4b09      	ldr	r3, [pc, #36]	; (80065e4 <Add_GlobalWaitCountNode+0x44>)
 80065c0:	685b      	ldr	r3, [r3, #4]
 80065c2:	687a      	ldr	r2, [r7, #4]
 80065c4:	605a      	str	r2, [r3, #4]

		}
		waitcount_node_storage.backPtr = waitCntNode;
 80065c6:	4a07      	ldr	r2, [pc, #28]	; (80065e4 <Add_GlobalWaitCountNode+0x44>)
 80065c8:	687b      	ldr	r3, [r7, #4]
 80065ca:	6053      	str	r3, [r2, #4]
		waitcount_node_storage.size++;
 80065cc:	4b05      	ldr	r3, [pc, #20]	; (80065e4 <Add_GlobalWaitCountNode+0x44>)
 80065ce:	689b      	ldr	r3, [r3, #8]
 80065d0:	3301      	adds	r3, #1
 80065d2:	4a04      	ldr	r2, [pc, #16]	; (80065e4 <Add_GlobalWaitCountNode+0x44>)
 80065d4:	6093      	str	r3, [r2, #8]
	}
}
 80065d6:	bf00      	nop
 80065d8:	370c      	adds	r7, #12
 80065da:	46bd      	mov	sp, r7
 80065dc:	f85d 7b04 	ldr.w	r7, [sp], #4
 80065e0:	4770      	bx	lr
 80065e2:	bf00      	nop
 80065e4:	200006f0 	.word	0x200006f0

080065e8 <__sensor_read>:

/* Methods */
__weak float __sensor_read(tempsensor_t *sensorobj) {
 80065e8:	b580      	push	{r7, lr}
 80065ea:	b084      	sub	sp, #16
 80065ec:	af00      	add	r7, sp, #0
 80065ee:	6078      	str	r0, [r7, #4]
	uint8_t pData[2];
	float temp = 0;
 80065f0:	f04f 0300 	mov.w	r3, #0
 80065f4:	60fb      	str	r3, [r7, #12]

	// 16  MSB  .
	HAL_GPIO_WritePin(sensorobj->csPort, sensorobj->csPin, GPIO_PIN_RESET);
 80065f6:	687b      	ldr	r3, [r7, #4]
 80065f8:	6858      	ldr	r0, [r3, #4]
 80065fa:	687b      	ldr	r3, [r7, #4]
 80065fc:	8a9b      	ldrh	r3, [r3, #20]
 80065fe:	2200      	movs	r2, #0
 8006600:	4619      	mov	r1, r3
 8006602:	f7fb fe4f 	bl	80022a4 <HAL_GPIO_WritePin>
	HAL_SPI_Receive(sensorobj->hspi, pData, 1, 50);
 8006606:	687b      	ldr	r3, [r7, #4]
 8006608:	6818      	ldr	r0, [r3, #0]
 800660a:	f107 0108 	add.w	r1, r7, #8
 800660e:	2332      	movs	r3, #50	; 0x32
 8006610:	2201      	movs	r2, #1
 8006612:	f7fc fc7e 	bl	8002f12 <HAL_SPI_Receive>
	HAL_GPIO_WritePin(sensorobj->csPort, sensorobj->csPin, GPIO_PIN_SET);
 8006616:	687b      	ldr	r3, [r7, #4]
 8006618:	6858      	ldr	r0, [r3, #4]
 800661a:	687b      	ldr	r3, [r7, #4]
 800661c:	8a9b      	ldrh	r3, [r3, #20]
 800661e:	2201      	movs	r2, #1
 8006620:	4619      	mov	r1, r3
 8006622:	f7fb fe3f 	bl	80022a4 <HAL_GPIO_WritePin>

	if (((pData[0]|(pData[1]<<8))>>2)& 0x0001)
 8006626:	7a3b      	ldrb	r3, [r7, #8]
 8006628:	461a      	mov	r2, r3
 800662a:	7a7b      	ldrb	r3, [r7, #9]
 800662c:	021b      	lsls	r3, r3, #8
 800662e:	4313      	orrs	r3, r2
 8006630:	f003 0304 	and.w	r3, r3, #4
 8006634:	2b00      	cmp	r3, #0
 8006636:	d002      	beq.n	800663e <__sensor_read+0x56>
	   return NAN;
 8006638:	eddf 7a0c 	vldr	s15, [pc, #48]	; 800666c <__sensor_read+0x84>
 800663c:	e011      	b.n	8006662 <__sensor_read+0x7a>
	temp = ((((pData[0]|pData[1]<<8)))>>3);
 800663e:	7a3b      	ldrb	r3, [r7, #8]
 8006640:	461a      	mov	r2, r3
 8006642:	7a7b      	ldrb	r3, [r7, #9]
 8006644:	021b      	lsls	r3, r3, #8
 8006646:	4313      	orrs	r3, r2
 8006648:	10db      	asrs	r3, r3, #3
 800664a:	ee07 3a90 	vmov	s15, r3
 800664e:	eef8 7ae7 	vcvt.f32.s32	s15, s15
 8006652:	edc7 7a03 	vstr	s15, [r7, #12]

	return temp * 0.25f;
 8006656:	edd7 7a03 	vldr	s15, [r7, #12]
 800665a:	eeb5 7a00 	vmov.f32	s14, #80	; 0x3e800000  0.250
 800665e:	ee67 7a87 	vmul.f32	s15, s15, s14
}
 8006662:	eeb0 0a67 	vmov.f32	s0, s15
 8006666:	3710      	adds	r7, #16
 8006668:	46bd      	mov	sp, r7
 800666a:	bd80      	pop	{r7, pc}
 800666c:	7fc00000 	.word	0x7fc00000

08006670 <read>:
float read(tempsensor_t *sensorobj) {
 8006670:	b580      	push	{r7, lr}
 8006672:	b084      	sub	sp, #16
 8006674:	af00      	add	r7, sp, #0
 8006676:	6078      	str	r0, [r7, #4]
	float data = .0f;
 8006678:	f04f 0300 	mov.w	r3, #0
 800667c:	60fb      	str	r3, [r7, #12]
	if (sensorobj->is_readable(sensorobj)) {
 800667e:	687b      	ldr	r3, [r7, #4]
 8006680:	69db      	ldr	r3, [r3, #28]
 8006682:	6878      	ldr	r0, [r7, #4]
 8006684:	4798      	blx	r3
 8006686:	4603      	mov	r3, r0
 8006688:	2b00      	cmp	r3, #0
 800668a:	d00d      	beq.n	80066a8 <read+0x38>
		data = __sensor_read(sensorobj);
 800668c:	6878      	ldr	r0, [r7, #4]
 800668e:	f7ff ffab 	bl	80065e8 <__sensor_read>
 8006692:	ed87 0a03 	vstr	s0, [r7, #12]
		*(sensorobj->waitCount) = sensorobj->__sensor_interval;
 8006696:	687b      	ldr	r3, [r7, #4]
 8006698:	689b      	ldr	r3, [r3, #8]
 800669a:	687a      	ldr	r2, [r7, #4]
 800669c:	68d2      	ldr	r2, [r2, #12]
 800669e:	601a      	str	r2, [r3, #0]
		sensorobj->lastTemp = data;
 80066a0:	687b      	ldr	r3, [r7, #4]
 80066a2:	68fa      	ldr	r2, [r7, #12]
 80066a4:	611a      	str	r2, [r3, #16]
 80066a6:	e002      	b.n	80066ae <read+0x3e>
	} else {
		data = sensorobj->lastTemp;
 80066a8:	687b      	ldr	r3, [r7, #4]
 80066aa:	691b      	ldr	r3, [r3, #16]
 80066ac:	60fb      	str	r3, [r7, #12]
	}
	return data;
 80066ae:	68fb      	ldr	r3, [r7, #12]
 80066b0:	ee07 3a90 	vmov	s15, r3
}
 80066b4:	eeb0 0a67 	vmov.f32	s0, s15
 80066b8:	3710      	adds	r7, #16
 80066ba:	46bd      	mov	sp, r7
 80066bc:	bd80      	pop	{r7, pc}

080066be <is_readable>:
bool is_readable(tempsensor_t *sensorobj) {
 80066be:	b580      	push	{r7, lr}
 80066c0:	b082      	sub	sp, #8
 80066c2:	af00      	add	r7, sp, #0
 80066c4:	6078      	str	r0, [r7, #4]
	return !(sensorobj->read_waitcount(sensorobj));
 80066c6:	687b      	ldr	r3, [r7, #4]
 80066c8:	6a9b      	ldr	r3, [r3, #40]	; 0x28
 80066ca:	6878      	ldr	r0, [r7, #4]
 80066cc:	4798      	blx	r3
 80066ce:	4603      	mov	r3, r0
 80066d0:	2b00      	cmp	r3, #0
 80066d2:	bf0c      	ite	eq
 80066d4:	2301      	moveq	r3, #1
 80066d6:	2300      	movne	r3, #0
 80066d8:	b2db      	uxtb	r3, r3
}
 80066da:	4618      	mov	r0, r3
 80066dc:	3708      	adds	r7, #8
 80066de:	46bd      	mov	sp, r7
 80066e0:	bd80      	pop	{r7, pc}

080066e2 <set_interval>:

void set_interval(tempsensor_t *sensorobj, uint32_t interval) {
 80066e2:	b480      	push	{r7}
 80066e4:	b083      	sub	sp, #12
 80066e6:	af00      	add	r7, sp, #0
 80066e8:	6078      	str	r0, [r7, #4]
 80066ea:	6039      	str	r1, [r7, #0]
	sensorobj->__sensor_interval = interval;
 80066ec:	687b      	ldr	r3, [r7, #4]
 80066ee:	683a      	ldr	r2, [r7, #0]
 80066f0:	60da      	str	r2, [r3, #12]
}
 80066f2:	bf00      	nop
 80066f4:	370c      	adds	r7, #12
 80066f6:	46bd      	mov	sp, r7
 80066f8:	f85d 7b04 	ldr.w	r7, [sp], #4
 80066fc:	4770      	bx	lr

080066fe <get_interval>:
uint32_t get_interval(tempsensor_t *sensorobj) {
 80066fe:	b480      	push	{r7}
 8006700:	b083      	sub	sp, #12
 8006702:	af00      	add	r7, sp, #0
 8006704:	6078      	str	r0, [r7, #4]
	return sensorobj->__sensor_interval;
 8006706:	687b      	ldr	r3, [r7, #4]
 8006708:	68db      	ldr	r3, [r3, #12]
}
 800670a:	4618      	mov	r0, r3
 800670c:	370c      	adds	r7, #12
 800670e:	46bd      	mov	sp, r7
 8006710:	f85d 7b04 	ldr.w	r7, [sp], #4
 8006714:	4770      	bx	lr

08006716 <read_waitcount>:
uint32_t read_waitcount(tempsensor_t *sensorobj) {
 8006716:	b480      	push	{r7}
 8006718:	b083      	sub	sp, #12
 800671a:	af00      	add	r7, sp, #0
 800671c:	6078      	str	r0, [r7, #4]
	return *(sensorobj->waitCount);
 800671e:	687b      	ldr	r3, [r7, #4]
 8006720:	689b      	ldr	r3, [r3, #8]
 8006722:	681b      	ldr	r3, [r3, #0]
}
 8006724:	4618      	mov	r0, r3
 8006726:	370c      	adds	r7, #12
 8006728:	46bd      	mov	sp, r7
 800672a:	f85d 7b04 	ldr.w	r7, [sp], #4
 800672e:	4770      	bx	lr

08006730 <testTemp>:

extern heater_t *heaterTop;
extern heater_t *heaterBottom;


void testTemp(){
 8006730:	b580      	push	{r7, lr}
 8006732:	b084      	sub	sp, #16
 8006734:	af00      	add	r7, sp, #0
	SwitchLED(COLOR_BLACK);
 8006736:	2100      	movs	r1, #0
 8006738:	2000      	movs	r0, #0
 800673a:	f7ff fac5 	bl	8005cc8 <Switch_LED>
	for(;;){
		uint16_t sw = Switch_Read();
 800673e:	f7ff fadb 	bl	8005cf8 <Switch_Read>
 8006742:	4603      	mov	r3, r0
 8006744:	81fb      	strh	r3, [r7, #14]
		if(sw) break;
 8006746:	89fb      	ldrh	r3, [r7, #14]
 8006748:	2b00      	cmp	r3, #0
 800674a:	d136      	bne.n	80067ba <testTemp+0x8a>
		if (tempTop->is_readable(tempTop) && tempBottom->is_readable(tempBottom)) {
 800674c:	4b1d      	ldr	r3, [pc, #116]	; (80067c4 <testTemp+0x94>)
 800674e:	681b      	ldr	r3, [r3, #0]
 8006750:	69db      	ldr	r3, [r3, #28]
 8006752:	4a1c      	ldr	r2, [pc, #112]	; (80067c4 <testTemp+0x94>)
 8006754:	6812      	ldr	r2, [r2, #0]
 8006756:	4610      	mov	r0, r2
 8006758:	4798      	blx	r3
 800675a:	4603      	mov	r3, r0
 800675c:	2b00      	cmp	r3, #0
 800675e:	d0ee      	beq.n	800673e <testTemp+0xe>
 8006760:	4b19      	ldr	r3, [pc, #100]	; (80067c8 <testTemp+0x98>)
 8006762:	681b      	ldr	r3, [r3, #0]
 8006764:	69db      	ldr	r3, [r3, #28]
 8006766:	4a18      	ldr	r2, [pc, #96]	; (80067c8 <testTemp+0x98>)
 8006768:	6812      	ldr	r2, [r2, #0]
 800676a:	4610      	mov	r0, r2
 800676c:	4798      	blx	r3
 800676e:	4603      	mov	r3, r0
 8006770:	2b00      	cmp	r3, #0
 8006772:	d0e4      	beq.n	800673e <testTemp+0xe>
			float temp1 = tempTop->read(tempTop);
 8006774:	4b13      	ldr	r3, [pc, #76]	; (80067c4 <testTemp+0x94>)
 8006776:	681b      	ldr	r3, [r3, #0]
 8006778:	699b      	ldr	r3, [r3, #24]
 800677a:	4a12      	ldr	r2, [pc, #72]	; (80067c4 <testTemp+0x94>)
 800677c:	6812      	ldr	r2, [r2, #0]
 800677e:	4610      	mov	r0, r2
 8006780:	4798      	blx	r3
 8006782:	ed87 0a02 	vstr	s0, [r7, #8]
			float temp2 = tempBottom->read(tempBottom);
 8006786:	4b10      	ldr	r3, [pc, #64]	; (80067c8 <testTemp+0x98>)
 8006788:	681b      	ldr	r3, [r3, #0]
 800678a:	699b      	ldr	r3, [r3, #24]
 800678c:	4a0e      	ldr	r2, [pc, #56]	; (80067c8 <testTemp+0x98>)
 800678e:	6812      	ldr	r2, [r2, #0]
 8006790:	4610      	mov	r0, r2
 8006792:	4798      	blx	r3
 8006794:	ed87 0a01 	vstr	s0, [r7, #4]
			OLED_Printf("/s/0/rtempU: /y%f\r\n", temp1);
 8006798:	68b8      	ldr	r0, [r7, #8]
 800679a:	f7f9 fedd 	bl	8000558 <__aeabi_f2d>
 800679e:	4602      	mov	r2, r0
 80067a0:	460b      	mov	r3, r1
 80067a2:	480a      	ldr	r0, [pc, #40]	; (80067cc <testTemp+0x9c>)
 80067a4:	f7fe fe52 	bl	800544c <OLED_Printf>
			OLED_Printf("/s/1/rtempD: /y%f\r\n", temp2);
 80067a8:	6878      	ldr	r0, [r7, #4]
 80067aa:	f7f9 fed5 	bl	8000558 <__aeabi_f2d>
 80067ae:	4602      	mov	r2, r0
 80067b0:	460b      	mov	r3, r1
 80067b2:	4807      	ldr	r0, [pc, #28]	; (80067d0 <testTemp+0xa0>)
 80067b4:	f7fe fe4a 	bl	800544c <OLED_Printf>
	for(;;){
 80067b8:	e7c1      	b.n	800673e <testTemp+0xe>
		if(sw) break;
 80067ba:	bf00      	nop
//			printf("temp: %f\r\n", temp1->read(temp1));
		}
	}
}
 80067bc:	bf00      	nop
 80067be:	3710      	adds	r7, #16
 80067c0:	46bd      	mov	sp, r7
 80067c2:	bd80      	pop	{r7, pc}
 80067c4:	200006c4 	.word	0x200006c4
 80067c8:	200006c8 	.word	0x200006c8
 80067cc:	0800a01c 	.word	0x0800a01c
 80067d0:	0800a030 	.word	0x0800a030

080067d4 <testHeat>:

// FLAG_TEMPSENSOR_DEBUG      .
void testHeat(){
 80067d4:	b580      	push	{r7, lr}
 80067d6:	b084      	sub	sp, #16
 80067d8:	af00      	add	r7, sp, #0
	SwitchLED(COLOR_SKY);
 80067da:	21a0      	movs	r1, #160	; 0xa0
 80067dc:	2035      	movs	r0, #53	; 0x35
 80067de:	f7ff fa73 	bl	8005cc8 <Switch_LED>
	int idx = 0;
 80067e2:	2300      	movs	r3, #0
 80067e4:	60fb      	str	r3, [r7, #12]
	heaterTop->start(heaterTop);
 80067e6:	4b5e      	ldr	r3, [pc, #376]	; (8006960 <testHeat+0x18c>)
 80067e8:	681b      	ldr	r3, [r3, #0]
 80067ea:	6a5b      	ldr	r3, [r3, #36]	; 0x24
 80067ec:	4a5c      	ldr	r2, [pc, #368]	; (8006960 <testHeat+0x18c>)
 80067ee:	6812      	ldr	r2, [r2, #0]
 80067f0:	4610      	mov	r0, r2
 80067f2:	4798      	blx	r3
	HAL_GPIO_WritePin(Motor1_GPIO_Port, Motor1_Pin, GPIO_PIN_SET);	// Convection  
 80067f4:	2201      	movs	r2, #1
 80067f6:	f44f 7100 	mov.w	r1, #512	; 0x200
 80067fa:	485a      	ldr	r0, [pc, #360]	; (8006964 <testHeat+0x190>)
 80067fc:	f7fb fd52 	bl	80022a4 <HAL_GPIO_WritePin>
	for(;;){
		uint16_t sw = Switch_Read();
 8006800:	f7ff fa7a 	bl	8005cf8 <Switch_Read>
 8006804:	4603      	mov	r3, r0
 8006806:	817b      	strh	r3, [r7, #10]

		if(sw==SW_LEFT_LONG) break;
 8006808:	897b      	ldrh	r3, [r7, #10]
 800680a:	2b30      	cmp	r3, #48	; 0x30
 800680c:	f000 809b 	beq.w	8006946 <testHeat+0x172>
		else if (sw==SW_LEFT) idx -= (idx>0)?1:0;
 8006810:	897b      	ldrh	r3, [r7, #10]
 8006812:	2b10      	cmp	r3, #16
 8006814:	d10a      	bne.n	800682c <testHeat+0x58>
 8006816:	68fb      	ldr	r3, [r7, #12]
 8006818:	2b00      	cmp	r3, #0
 800681a:	bfcc      	ite	gt
 800681c:	2301      	movgt	r3, #1
 800681e:	2300      	movle	r3, #0
 8006820:	b2db      	uxtb	r3, r3
 8006822:	461a      	mov	r2, r3
 8006824:	68fb      	ldr	r3, [r7, #12]
 8006826:	1a9b      	subs	r3, r3, r2
 8006828:	60fb      	str	r3, [r7, #12]
 800682a:	e051      	b.n	80068d0 <testHeat+0xfc>
		else if (sw==SW_RIGHT) idx += (idx<2)?1:0;
 800682c:	897b      	ldrh	r3, [r7, #10]
 800682e:	2b01      	cmp	r3, #1
 8006830:	d10a      	bne.n	8006848 <testHeat+0x74>
 8006832:	68fb      	ldr	r3, [r7, #12]
 8006834:	2b01      	cmp	r3, #1
 8006836:	bfd4      	ite	le
 8006838:	2301      	movle	r3, #1
 800683a:	2300      	movgt	r3, #0
 800683c:	b2db      	uxtb	r3, r3
 800683e:	461a      	mov	r2, r3
 8006840:	68fb      	ldr	r3, [r7, #12]
 8006842:	4413      	add	r3, r2
 8006844:	60fb      	str	r3, [r7, #12]
 8006846:	e043      	b.n	80068d0 <testHeat+0xfc>
		else if (sw==SW_TOP || sw==SW_TOP_LONG) {
 8006848:	897b      	ldrh	r3, [r7, #10]
 800684a:	2b02      	cmp	r3, #2
 800684c:	d002      	beq.n	8006854 <testHeat+0x80>
 800684e:	897b      	ldrh	r3, [r7, #10]
 8006850:	2b22      	cmp	r3, #34	; 0x22
 8006852:	d11b      	bne.n	800688c <testHeat+0xb8>
			switch(idx) {
 8006854:	68fb      	ldr	r3, [r7, #12]
 8006856:	2b01      	cmp	r3, #1
 8006858:	d003      	beq.n	8006862 <testHeat+0x8e>
 800685a:	68fb      	ldr	r3, [r7, #12]
 800685c:	2b02      	cmp	r3, #2
 800685e:	d00d      	beq.n	800687c <testHeat+0xa8>
 8006860:	e036      	b.n	80068d0 <testHeat+0xfc>
			case 0:
				tempTop->lastTemp += 10.0f;
				break;
#endif
			case 1:
				heaterTop->target += 1.0f;
 8006862:	4b3f      	ldr	r3, [pc, #252]	; (8006960 <testHeat+0x18c>)
 8006864:	681b      	ldr	r3, [r3, #0]
 8006866:	edd3 7a04 	vldr	s15, [r3, #16]
 800686a:	4b3d      	ldr	r3, [pc, #244]	; (8006960 <testHeat+0x18c>)
 800686c:	681b      	ldr	r3, [r3, #0]
 800686e:	eeb7 7a00 	vmov.f32	s14, #112	; 0x3f800000  1.0
 8006872:	ee77 7a87 	vadd.f32	s15, s15, s14
 8006876:	edc3 7a04 	vstr	s15, [r3, #16]
				break;
 800687a:	e006      	b.n	800688a <testHeat+0xb6>
			case 2:
				HAL_GPIO_WritePin(Motor1_GPIO_Port, Motor1_Pin, GPIO_PIN_RESET);
 800687c:	2200      	movs	r2, #0
 800687e:	f44f 7100 	mov.w	r1, #512	; 0x200
 8006882:	4838      	ldr	r0, [pc, #224]	; (8006964 <testHeat+0x190>)
 8006884:	f7fb fd0e 	bl	80022a4 <HAL_GPIO_WritePin>
				break;
 8006888:	bf00      	nop
			switch(idx) {
 800688a:	e021      	b.n	80068d0 <testHeat+0xfc>
			}
		}
		else if (sw==SW_BOTTOM || sw==SW_BOTTOM_LONG) {
 800688c:	897b      	ldrh	r3, [r7, #10]
 800688e:	2b08      	cmp	r3, #8
 8006890:	d002      	beq.n	8006898 <testHeat+0xc4>
 8006892:	897b      	ldrh	r3, [r7, #10]
 8006894:	2b28      	cmp	r3, #40	; 0x28
 8006896:	d11a      	bne.n	80068ce <testHeat+0xfa>
			switch(idx) {
 8006898:	68fb      	ldr	r3, [r7, #12]
 800689a:	2b01      	cmp	r3, #1
 800689c:	d003      	beq.n	80068a6 <testHeat+0xd2>
 800689e:	68fb      	ldr	r3, [r7, #12]
 80068a0:	2b02      	cmp	r3, #2
 80068a2:	d00d      	beq.n	80068c0 <testHeat+0xec>
 80068a4:	e014      	b.n	80068d0 <testHeat+0xfc>
			case 0:
				tempTop->lastTemp -= 10.0f;
				break;
#endif
			case 1:
				heaterTop->target -= 1.0f;
 80068a6:	4b2e      	ldr	r3, [pc, #184]	; (8006960 <testHeat+0x18c>)
 80068a8:	681b      	ldr	r3, [r3, #0]
 80068aa:	edd3 7a04 	vldr	s15, [r3, #16]
 80068ae:	4b2c      	ldr	r3, [pc, #176]	; (8006960 <testHeat+0x18c>)
 80068b0:	681b      	ldr	r3, [r3, #0]
 80068b2:	eeb7 7a00 	vmov.f32	s14, #112	; 0x3f800000  1.0
 80068b6:	ee77 7ac7 	vsub.f32	s15, s15, s14
 80068ba:	edc3 7a04 	vstr	s15, [r3, #16]
				break;
 80068be:	e007      	b.n	80068d0 <testHeat+0xfc>
			case 2:
				HAL_GPIO_WritePin(Motor1_GPIO_Port, Motor1_Pin, GPIO_PIN_SET);
 80068c0:	2201      	movs	r2, #1
 80068c2:	f44f 7100 	mov.w	r1, #512	; 0x200
 80068c6:	4827      	ldr	r0, [pc, #156]	; (8006964 <testHeat+0x190>)
 80068c8:	f7fb fcec 	bl	80022a4 <HAL_GPIO_WritePin>
				break;
 80068cc:	e000      	b.n	80068d0 <testHeat+0xfc>
			}
		}
 80068ce:	bf00      	nop
		float temp = tempTop->read(tempTop);
 80068d0:	4b25      	ldr	r3, [pc, #148]	; (8006968 <testHeat+0x194>)
 80068d2:	681b      	ldr	r3, [r3, #0]
 80068d4:	699b      	ldr	r3, [r3, #24]
 80068d6:	4a24      	ldr	r2, [pc, #144]	; (8006968 <testHeat+0x194>)
 80068d8:	6812      	ldr	r2, [r2, #0]
 80068da:	4610      	mov	r0, r2
 80068dc:	4798      	blx	r3
 80068de:	ed87 0a01 	vstr	s0, [r7, #4]

		OLED_Printf("/s/0/wSelect: /p%d\r\n", idx);
 80068e2:	68f9      	ldr	r1, [r7, #12]
 80068e4:	4821      	ldr	r0, [pc, #132]	; (800696c <testHeat+0x198>)
 80068e6:	f7fe fdb1 	bl	800544c <OLED_Printf>
		OLED_Printf("/s/1/rtempU: /y%f\r\n", temp);
 80068ea:	6878      	ldr	r0, [r7, #4]
 80068ec:	f7f9 fe34 	bl	8000558 <__aeabi_f2d>
 80068f0:	4602      	mov	r2, r0
 80068f2:	460b      	mov	r3, r1
 80068f4:	481e      	ldr	r0, [pc, #120]	; (8006970 <testHeat+0x19c>)
 80068f6:	f7fe fda9 	bl	800544c <OLED_Printf>
		OLED_Printf("/s/2/rtargetU: /y%f\r\n", heaterTop->target);
 80068fa:	4b19      	ldr	r3, [pc, #100]	; (8006960 <testHeat+0x18c>)
 80068fc:	681b      	ldr	r3, [r3, #0]
 80068fe:	691b      	ldr	r3, [r3, #16]
 8006900:	4618      	mov	r0, r3
 8006902:	f7f9 fe29 	bl	8000558 <__aeabi_f2d>
 8006906:	4602      	mov	r2, r0
 8006908:	460b      	mov	r3, r1
 800690a:	481a      	ldr	r0, [pc, #104]	; (8006974 <testHeat+0x1a0>)
 800690c:	f7fe fd9e 	bl	800544c <OLED_Printf>
		OLED_Printf("/s/3/rConvect: /y%s\r\n", HAL_GPIO_ReadPin(Motor1_GPIO_Port, Motor1_Pin)?"OFF":"ON");
 8006910:	f44f 7100 	mov.w	r1, #512	; 0x200
 8006914:	4813      	ldr	r0, [pc, #76]	; (8006964 <testHeat+0x190>)
 8006916:	f7fb fcad 	bl	8002274 <HAL_GPIO_ReadPin>
 800691a:	4603      	mov	r3, r0
 800691c:	2b00      	cmp	r3, #0
 800691e:	d001      	beq.n	8006924 <testHeat+0x150>
 8006920:	4b15      	ldr	r3, [pc, #84]	; (8006978 <testHeat+0x1a4>)
 8006922:	e000      	b.n	8006926 <testHeat+0x152>
 8006924:	4b15      	ldr	r3, [pc, #84]	; (800697c <testHeat+0x1a8>)
 8006926:	4619      	mov	r1, r3
 8006928:	4815      	ldr	r0, [pc, #84]	; (8006980 <testHeat+0x1ac>)
 800692a:	f7fe fd8f 	bl	800544c <OLED_Printf>
		OLED_Printf("/s/4/wdutyU: /p%f\r\n", heaterTop->duty);
 800692e:	4b0c      	ldr	r3, [pc, #48]	; (8006960 <testHeat+0x18c>)
 8006930:	681b      	ldr	r3, [r3, #0]
 8006932:	68db      	ldr	r3, [r3, #12]
 8006934:	4618      	mov	r0, r3
 8006936:	f7f9 fe0f 	bl	8000558 <__aeabi_f2d>
 800693a:	4602      	mov	r2, r0
 800693c:	460b      	mov	r3, r1
 800693e:	4811      	ldr	r0, [pc, #68]	; (8006984 <testHeat+0x1b0>)
 8006940:	f7fe fd84 	bl	800544c <OLED_Printf>
	for(;;){
 8006944:	e75c      	b.n	8006800 <testHeat+0x2c>
		if(sw==SW_LEFT_LONG) break;
 8006946:	bf00      	nop
	}
	heaterTop->stop(heaterTop);
 8006948:	4b05      	ldr	r3, [pc, #20]	; (8006960 <testHeat+0x18c>)
 800694a:	681b      	ldr	r3, [r3, #0]
 800694c:	6a9b      	ldr	r3, [r3, #40]	; 0x28
 800694e:	4a04      	ldr	r2, [pc, #16]	; (8006960 <testHeat+0x18c>)
 8006950:	6812      	ldr	r2, [r2, #0]
 8006952:	4610      	mov	r0, r2
 8006954:	4798      	blx	r3
}
 8006956:	bf00      	nop
 8006958:	3710      	adds	r7, #16
 800695a:	46bd      	mov	sp, r7
 800695c:	bd80      	pop	{r7, pc}
 800695e:	bf00      	nop
 8006960:	200006cc 	.word	0x200006cc
 8006964:	40020000 	.word	0x40020000
 8006968:	200006c4 	.word	0x200006c4
 800696c:	0800a044 	.word	0x0800a044
 8006970:	0800a05c 	.word	0x0800a05c
 8006974:	0800a070 	.word	0x0800a070
 8006978:	0800a088 	.word	0x0800a088
 800697c:	0800a08c 	.word	0x0800a08c
 8006980:	0800a090 	.word	0x0800a090
 8006984:	0800a0a8 	.word	0x0800a0a8

08006988 <profile>:



void profile(){}
 8006988:	b480      	push	{r7}
 800698a:	af00      	add	r7, sp, #0
 800698c:	bf00      	nop
 800698e:	46bd      	mov	sp, r7
 8006990:	f85d 7b04 	ldr.w	r7, [sp], #4
 8006994:	4770      	bx	lr
	...

08006998 <Menu_Setup>:

};

const uint8_t menuCnt = sizeof(menuList) / sizeof(Menu_t);

void Menu_Setup(){
 8006998:	b580      	push	{r7, lr}
 800699a:	b082      	sub	sp, #8
 800699c:	af02      	add	r7, sp, #8
	OLED_Begin();
 800699e:	f7fe fb27 	bl	8004ff0 <OLED_Begin>
	OLED_MenuUI("STM32 OVEN", 0xFF8800, 0x000000, menuList, menuCnt > 6 ? 6 : menuCnt, 0xFFFF00);
 80069a2:	2307      	movs	r3, #7
 80069a4:	2b06      	cmp	r3, #6
 80069a6:	bf28      	it	cs
 80069a8:	2306      	movcs	r3, #6
 80069aa:	b2db      	uxtb	r3, r3
 80069ac:	461a      	mov	r2, r3
 80069ae:	4b0e      	ldr	r3, [pc, #56]	; (80069e8 <Menu_Setup+0x50>)
 80069b0:	9301      	str	r3, [sp, #4]
 80069b2:	9200      	str	r2, [sp, #0]
 80069b4:	4b0d      	ldr	r3, [pc, #52]	; (80069ec <Menu_Setup+0x54>)
 80069b6:	2200      	movs	r2, #0
 80069b8:	490d      	ldr	r1, [pc, #52]	; (80069f0 <Menu_Setup+0x58>)
 80069ba:	480e      	ldr	r0, [pc, #56]	; (80069f4 <Menu_Setup+0x5c>)
 80069bc:	f7ff f8b8 	bl	8005b30 <OLED_MenuUI>
	OLED_Cursor(0, 0xFF0000);
 80069c0:	f44f 017f 	mov.w	r1, #16711680	; 0xff0000
 80069c4:	2000      	movs	r0, #0
 80069c6:	f7ff f8ff 	bl	8005bc8 <OLED_Cursor>
	SwitchLED(menuList[0].color);
 80069ca:	4b08      	ldr	r3, [pc, #32]	; (80069ec <Menu_Setup+0x54>)
 80069cc:	891b      	ldrh	r3, [r3, #8]
 80069ce:	0a1b      	lsrs	r3, r3, #8
 80069d0:	b29b      	uxth	r3, r3
 80069d2:	4a06      	ldr	r2, [pc, #24]	; (80069ec <Menu_Setup+0x54>)
 80069d4:	8912      	ldrh	r2, [r2, #8]
 80069d6:	b2d2      	uxtb	r2, r2
 80069d8:	b292      	uxth	r2, r2
 80069da:	4611      	mov	r1, r2
 80069dc:	4618      	mov	r0, r3
 80069de:	f7ff f973 	bl	8005cc8 <Switch_LED>
}
 80069e2:	bf00      	nop
 80069e4:	46bd      	mov	sp, r7
 80069e6:	bd80      	pop	{r7, pc}
 80069e8:	00ffff00 	.word	0x00ffff00
 80069ec:	2000022c 	.word	0x2000022c
 80069f0:	00ff8800 	.word	0x00ff8800
 80069f4:	0800a0fc 	.word	0x0800a0fc

080069f8 <Menu>:

void Menu(){
 80069f8:	b580      	push	{r7, lr}
 80069fa:	b084      	sub	sp, #16
 80069fc:	af02      	add	r7, sp, #8
	Menu_Setup();
 80069fe:	f7ff ffcb 	bl	8006998 <Menu_Setup>
	uint8_t idx = 0;
 8006a02:	2300      	movs	r3, #0
 8006a04:	71fb      	strb	r3, [r7, #7]
	for(;;){
		uint16_t sw = Switch_Read();
 8006a06:	f7ff f977 	bl	8005cf8 <Switch_Read>
 8006a0a:	4603      	mov	r3, r0
 8006a0c:	80bb      	strh	r3, [r7, #4]
		if(sw == SW_TOP || sw == SW_TOP_LONG){
 8006a0e:	88bb      	ldrh	r3, [r7, #4]
 8006a10:	2b02      	cmp	r3, #2
 8006a12:	d002      	beq.n	8006a1a <Menu+0x22>
 8006a14:	88bb      	ldrh	r3, [r7, #4]
 8006a16:	2b22      	cmp	r3, #34	; 0x22
 8006a18:	d177      	bne.n	8006b0a <Menu+0x112>
			idx+=menuCnt - 1;
 8006a1a:	2207      	movs	r2, #7
 8006a1c:	79fb      	ldrb	r3, [r7, #7]
 8006a1e:	4413      	add	r3, r2
 8006a20:	b2db      	uxtb	r3, r3
 8006a22:	3b01      	subs	r3, #1
 8006a24:	71fb      	strb	r3, [r7, #7]
			idx %= menuCnt;
 8006a26:	2207      	movs	r2, #7
 8006a28:	79fb      	ldrb	r3, [r7, #7]
 8006a2a:	fbb3 f1f2 	udiv	r1, r3, r2
 8006a2e:	fb01 f202 	mul.w	r2, r1, r2
 8006a32:	1a9b      	subs	r3, r3, r2
 8006a34:	71fb      	strb	r3, [r7, #7]
			if(menuCnt > 6 && (idx % 6 == 5 || idx == menuCnt - 1)){
 8006a36:	2307      	movs	r3, #7
 8006a38:	2b06      	cmp	r3, #6
 8006a3a:	d93c      	bls.n	8006ab6 <Menu+0xbe>
 8006a3c:	79fa      	ldrb	r2, [r7, #7]
 8006a3e:	4b89      	ldr	r3, [pc, #548]	; (8006c64 <Menu+0x26c>)
 8006a40:	fba3 1302 	umull	r1, r3, r3, r2
 8006a44:	0899      	lsrs	r1, r3, #2
 8006a46:	460b      	mov	r3, r1
 8006a48:	005b      	lsls	r3, r3, #1
 8006a4a:	440b      	add	r3, r1
 8006a4c:	005b      	lsls	r3, r3, #1
 8006a4e:	1ad3      	subs	r3, r2, r3
 8006a50:	b2db      	uxtb	r3, r3
 8006a52:	2b05      	cmp	r3, #5
 8006a54:	d004      	beq.n	8006a60 <Menu+0x68>
 8006a56:	79fa      	ldrb	r2, [r7, #7]
 8006a58:	2307      	movs	r3, #7
 8006a5a:	3b01      	subs	r3, #1
 8006a5c:	429a      	cmp	r2, r3
 8006a5e:	d12a      	bne.n	8006ab6 <Menu+0xbe>
				OLED_Clear();
 8006a60:	f7fe fa96 	bl	8004f90 <OLED_Clear>
				OLED_MenuUI("STM32 OVEN", 0xFF8800, 0x000000, menuList + (idx / 6) * 6, menuCnt - (idx / 6) * 6 > 6 ? 6 : menuCnt - (idx / 6) * 6, 0xFFFF00);
 8006a64:	79fb      	ldrb	r3, [r7, #7]
 8006a66:	4a7f      	ldr	r2, [pc, #508]	; (8006c64 <Menu+0x26c>)
 8006a68:	fba2 2303 	umull	r2, r3, r2, r3
 8006a6c:	089b      	lsrs	r3, r3, #2
 8006a6e:	b2db      	uxtb	r3, r3
 8006a70:	461a      	mov	r2, r3
 8006a72:	4613      	mov	r3, r2
 8006a74:	00db      	lsls	r3, r3, #3
 8006a76:	4413      	add	r3, r2
 8006a78:	00db      	lsls	r3, r3, #3
 8006a7a:	461a      	mov	r2, r3
 8006a7c:	4b7a      	ldr	r3, [pc, #488]	; (8006c68 <Menu+0x270>)
 8006a7e:	18d1      	adds	r1, r2, r3
 8006a80:	2307      	movs	r3, #7
 8006a82:	4618      	mov	r0, r3
 8006a84:	79fb      	ldrb	r3, [r7, #7]
 8006a86:	4a77      	ldr	r2, [pc, #476]	; (8006c64 <Menu+0x26c>)
 8006a88:	fba2 2303 	umull	r2, r3, r2, r3
 8006a8c:	089b      	lsrs	r3, r3, #2
 8006a8e:	b2db      	uxtb	r3, r3
 8006a90:	461a      	mov	r2, r3
 8006a92:	4613      	mov	r3, r2
 8006a94:	0092      	lsls	r2, r2, #2
 8006a96:	1a9b      	subs	r3, r3, r2
 8006a98:	005b      	lsls	r3, r3, #1
 8006a9a:	4403      	add	r3, r0
 8006a9c:	2b06      	cmp	r3, #6
 8006a9e:	bfa8      	it	ge
 8006aa0:	2306      	movge	r3, #6
 8006aa2:	461a      	mov	r2, r3
 8006aa4:	4b71      	ldr	r3, [pc, #452]	; (8006c6c <Menu+0x274>)
 8006aa6:	9301      	str	r3, [sp, #4]
 8006aa8:	9200      	str	r2, [sp, #0]
 8006aaa:	460b      	mov	r3, r1
 8006aac:	2200      	movs	r2, #0
 8006aae:	4970      	ldr	r1, [pc, #448]	; (8006c70 <Menu+0x278>)
 8006ab0:	4870      	ldr	r0, [pc, #448]	; (8006c74 <Menu+0x27c>)
 8006ab2:	f7ff f83d 	bl	8005b30 <OLED_MenuUI>
			}
			OLED_Cursor(idx%6, 0xFF0000);
 8006ab6:	79fa      	ldrb	r2, [r7, #7]
 8006ab8:	4b6a      	ldr	r3, [pc, #424]	; (8006c64 <Menu+0x26c>)
 8006aba:	fba3 1302 	umull	r1, r3, r3, r2
 8006abe:	0899      	lsrs	r1, r3, #2
 8006ac0:	460b      	mov	r3, r1
 8006ac2:	005b      	lsls	r3, r3, #1
 8006ac4:	440b      	add	r3, r1
 8006ac6:	005b      	lsls	r3, r3, #1
 8006ac8:	1ad3      	subs	r3, r2, r3
 8006aca:	b2db      	uxtb	r3, r3
 8006acc:	f44f 017f 	mov.w	r1, #16711680	; 0xff0000
 8006ad0:	4618      	mov	r0, r3
 8006ad2:	f7ff f879 	bl	8005bc8 <OLED_Cursor>
			SwitchLED(menuList[idx].color);
 8006ad6:	79fa      	ldrb	r2, [r7, #7]
 8006ad8:	4963      	ldr	r1, [pc, #396]	; (8006c68 <Menu+0x270>)
 8006ada:	4613      	mov	r3, r2
 8006adc:	005b      	lsls	r3, r3, #1
 8006ade:	4413      	add	r3, r2
 8006ae0:	009b      	lsls	r3, r3, #2
 8006ae2:	440b      	add	r3, r1
 8006ae4:	3308      	adds	r3, #8
 8006ae6:	881b      	ldrh	r3, [r3, #0]
 8006ae8:	0a1b      	lsrs	r3, r3, #8
 8006aea:	b298      	uxth	r0, r3
 8006aec:	79fa      	ldrb	r2, [r7, #7]
 8006aee:	495e      	ldr	r1, [pc, #376]	; (8006c68 <Menu+0x270>)
 8006af0:	4613      	mov	r3, r2
 8006af2:	005b      	lsls	r3, r3, #1
 8006af4:	4413      	add	r3, r2
 8006af6:	009b      	lsls	r3, r3, #2
 8006af8:	440b      	add	r3, r1
 8006afa:	3308      	adds	r3, #8
 8006afc:	881b      	ldrh	r3, [r3, #0]
 8006afe:	b2db      	uxtb	r3, r3
 8006b00:	b29b      	uxth	r3, r3
 8006b02:	4619      	mov	r1, r3
 8006b04:	f7ff f8e0 	bl	8005cc8 <Switch_LED>
 8006b08:	e0aa      	b.n	8006c60 <Menu+0x268>
		}
		else if(sw == SW_BOTTOM || sw == SW_BOTTOM_LONG){
 8006b0a:	88bb      	ldrh	r3, [r7, #4]
 8006b0c:	2b08      	cmp	r3, #8
 8006b0e:	d002      	beq.n	8006b16 <Menu+0x11e>
 8006b10:	88bb      	ldrh	r3, [r7, #4]
 8006b12:	2b28      	cmp	r3, #40	; 0x28
 8006b14:	d15f      	bne.n	8006bd6 <Menu+0x1de>
			idx+=1;
 8006b16:	79fb      	ldrb	r3, [r7, #7]
 8006b18:	3301      	adds	r3, #1
 8006b1a:	71fb      	strb	r3, [r7, #7]
			idx %= menuCnt;
 8006b1c:	2207      	movs	r2, #7
 8006b1e:	79fb      	ldrb	r3, [r7, #7]
 8006b20:	fbb3 f1f2 	udiv	r1, r3, r2
 8006b24:	fb01 f202 	mul.w	r2, r1, r2
 8006b28:	1a9b      	subs	r3, r3, r2
 8006b2a:	71fb      	strb	r3, [r7, #7]
			if(menuCnt > 6 && idx % 6 == 0){
 8006b2c:	2307      	movs	r3, #7
 8006b2e:	2b06      	cmp	r3, #6
 8006b30:	d927      	bls.n	8006b82 <Menu+0x18a>
 8006b32:	79fa      	ldrb	r2, [r7, #7]
 8006b34:	4b4b      	ldr	r3, [pc, #300]	; (8006c64 <Menu+0x26c>)
 8006b36:	fba3 1302 	umull	r1, r3, r3, r2
 8006b3a:	0899      	lsrs	r1, r3, #2
 8006b3c:	460b      	mov	r3, r1
 8006b3e:	005b      	lsls	r3, r3, #1
 8006b40:	440b      	add	r3, r1
 8006b42:	005b      	lsls	r3, r3, #1
 8006b44:	1ad3      	subs	r3, r2, r3
 8006b46:	b2db      	uxtb	r3, r3
 8006b48:	2b00      	cmp	r3, #0
 8006b4a:	d11a      	bne.n	8006b82 <Menu+0x18a>
				OLED_Clear();
 8006b4c:	f7fe fa20 	bl	8004f90 <OLED_Clear>
				OLED_MenuUI("STM32 OVEN", 0xFF8800, 0x000000, menuList + idx, menuCnt - idx > 6 ? 6 : menuCnt - idx, 0xFFFF00);
 8006b50:	79fa      	ldrb	r2, [r7, #7]
 8006b52:	4613      	mov	r3, r2
 8006b54:	005b      	lsls	r3, r3, #1
 8006b56:	4413      	add	r3, r2
 8006b58:	009b      	lsls	r3, r3, #2
 8006b5a:	461a      	mov	r2, r3
 8006b5c:	4b42      	ldr	r3, [pc, #264]	; (8006c68 <Menu+0x270>)
 8006b5e:	441a      	add	r2, r3
 8006b60:	2307      	movs	r3, #7
 8006b62:	4619      	mov	r1, r3
 8006b64:	79fb      	ldrb	r3, [r7, #7]
 8006b66:	1acb      	subs	r3, r1, r3
 8006b68:	2b06      	cmp	r3, #6
 8006b6a:	bfa8      	it	ge
 8006b6c:	2306      	movge	r3, #6
 8006b6e:	4619      	mov	r1, r3
 8006b70:	4b3e      	ldr	r3, [pc, #248]	; (8006c6c <Menu+0x274>)
 8006b72:	9301      	str	r3, [sp, #4]
 8006b74:	9100      	str	r1, [sp, #0]
 8006b76:	4613      	mov	r3, r2
 8006b78:	2200      	movs	r2, #0
 8006b7a:	493d      	ldr	r1, [pc, #244]	; (8006c70 <Menu+0x278>)
 8006b7c:	483d      	ldr	r0, [pc, #244]	; (8006c74 <Menu+0x27c>)
 8006b7e:	f7fe ffd7 	bl	8005b30 <OLED_MenuUI>
			}
			OLED_Cursor(idx%6, 0xFF0000);
 8006b82:	79fa      	ldrb	r2, [r7, #7]
 8006b84:	4b37      	ldr	r3, [pc, #220]	; (8006c64 <Menu+0x26c>)
 8006b86:	fba3 1302 	umull	r1, r3, r3, r2
 8006b8a:	0899      	lsrs	r1, r3, #2
 8006b8c:	460b      	mov	r3, r1
 8006b8e:	005b      	lsls	r3, r3, #1
 8006b90:	440b      	add	r3, r1
 8006b92:	005b      	lsls	r3, r3, #1
 8006b94:	1ad3      	subs	r3, r2, r3
 8006b96:	b2db      	uxtb	r3, r3
 8006b98:	f44f 017f 	mov.w	r1, #16711680	; 0xff0000
 8006b9c:	4618      	mov	r0, r3
 8006b9e:	f7ff f813 	bl	8005bc8 <OLED_Cursor>
			SwitchLED(menuList[idx].color);
 8006ba2:	79fa      	ldrb	r2, [r7, #7]
 8006ba4:	4930      	ldr	r1, [pc, #192]	; (8006c68 <Menu+0x270>)
 8006ba6:	4613      	mov	r3, r2
 8006ba8:	005b      	lsls	r3, r3, #1
 8006baa:	4413      	add	r3, r2
 8006bac:	009b      	lsls	r3, r3, #2
 8006bae:	440b      	add	r3, r1
 8006bb0:	3308      	adds	r3, #8
 8006bb2:	881b      	ldrh	r3, [r3, #0]
 8006bb4:	0a1b      	lsrs	r3, r3, #8
 8006bb6:	b298      	uxth	r0, r3
 8006bb8:	79fa      	ldrb	r2, [r7, #7]
 8006bba:	492b      	ldr	r1, [pc, #172]	; (8006c68 <Menu+0x270>)
 8006bbc:	4613      	mov	r3, r2
 8006bbe:	005b      	lsls	r3, r3, #1
 8006bc0:	4413      	add	r3, r2
 8006bc2:	009b      	lsls	r3, r3, #2
 8006bc4:	440b      	add	r3, r1
 8006bc6:	3308      	adds	r3, #8
 8006bc8:	881b      	ldrh	r3, [r3, #0]
 8006bca:	b2db      	uxtb	r3, r3
 8006bcc:	b29b      	uxth	r3, r3
 8006bce:	4619      	mov	r1, r3
 8006bd0:	f7ff f87a 	bl	8005cc8 <Switch_LED>
 8006bd4:	e044      	b.n	8006c60 <Menu+0x268>
		}
		else if(sw == SW_ENTER){
 8006bd6:	88bb      	ldrh	r3, [r7, #4]
 8006bd8:	2b04      	cmp	r3, #4
 8006bda:	f47f af14 	bne.w	8006a06 <Menu+0xe>
			OLED_Clear();//OLED .
 8006bde:	f7fe f9d7 	bl	8004f90 <OLED_Clear>
			menuList[idx].function();
 8006be2:	79fa      	ldrb	r2, [r7, #7]
 8006be4:	4920      	ldr	r1, [pc, #128]	; (8006c68 <Menu+0x270>)
 8006be6:	4613      	mov	r3, r2
 8006be8:	005b      	lsls	r3, r3, #1
 8006bea:	4413      	add	r3, r2
 8006bec:	009b      	lsls	r3, r3, #2
 8006bee:	440b      	add	r3, r1
 8006bf0:	681b      	ldr	r3, [r3, #0]
 8006bf2:	4798      	blx	r3
			OLED_Clear();//OLED .
 8006bf4:	f7fe f9cc 	bl	8004f90 <OLED_Clear>
			OLED_MenuUI("STM32 OVEN", 0xFF8800, 0x000000, menuList, menuCnt, 0xFFFF00);
 8006bf8:	2307      	movs	r3, #7
 8006bfa:	461a      	mov	r2, r3
 8006bfc:	4b1b      	ldr	r3, [pc, #108]	; (8006c6c <Menu+0x274>)
 8006bfe:	9301      	str	r3, [sp, #4]
 8006c00:	9200      	str	r2, [sp, #0]
 8006c02:	4b19      	ldr	r3, [pc, #100]	; (8006c68 <Menu+0x270>)
 8006c04:	2200      	movs	r2, #0
 8006c06:	491a      	ldr	r1, [pc, #104]	; (8006c70 <Menu+0x278>)
 8006c08:	481a      	ldr	r0, [pc, #104]	; (8006c74 <Menu+0x27c>)
 8006c0a:	f7fe ff91 	bl	8005b30 <OLED_MenuUI>
			OLED_Cursor(idx % 6, 0xFF0000);
 8006c0e:	79fa      	ldrb	r2, [r7, #7]
 8006c10:	4b14      	ldr	r3, [pc, #80]	; (8006c64 <Menu+0x26c>)
 8006c12:	fba3 1302 	umull	r1, r3, r3, r2
 8006c16:	0899      	lsrs	r1, r3, #2
 8006c18:	460b      	mov	r3, r1
 8006c1a:	005b      	lsls	r3, r3, #1
 8006c1c:	440b      	add	r3, r1
 8006c1e:	005b      	lsls	r3, r3, #1
 8006c20:	1ad3      	subs	r3, r2, r3
 8006c22:	b2db      	uxtb	r3, r3
 8006c24:	f44f 017f 	mov.w	r1, #16711680	; 0xff0000
 8006c28:	4618      	mov	r0, r3
 8006c2a:	f7fe ffcd 	bl	8005bc8 <OLED_Cursor>
			SwitchLED(menuList[idx].color);
 8006c2e:	79fa      	ldrb	r2, [r7, #7]
 8006c30:	490d      	ldr	r1, [pc, #52]	; (8006c68 <Menu+0x270>)
 8006c32:	4613      	mov	r3, r2
 8006c34:	005b      	lsls	r3, r3, #1
 8006c36:	4413      	add	r3, r2
 8006c38:	009b      	lsls	r3, r3, #2
 8006c3a:	440b      	add	r3, r1
 8006c3c:	3308      	adds	r3, #8
 8006c3e:	881b      	ldrh	r3, [r3, #0]
 8006c40:	0a1b      	lsrs	r3, r3, #8
 8006c42:	b298      	uxth	r0, r3
 8006c44:	79fa      	ldrb	r2, [r7, #7]
 8006c46:	4908      	ldr	r1, [pc, #32]	; (8006c68 <Menu+0x270>)
 8006c48:	4613      	mov	r3, r2
 8006c4a:	005b      	lsls	r3, r3, #1
 8006c4c:	4413      	add	r3, r2
 8006c4e:	009b      	lsls	r3, r3, #2
 8006c50:	440b      	add	r3, r1
 8006c52:	3308      	adds	r3, #8
 8006c54:	881b      	ldrh	r3, [r3, #0]
 8006c56:	b2db      	uxtb	r3, r3
 8006c58:	b29b      	uxth	r3, r3
 8006c5a:	4619      	mov	r1, r3
 8006c5c:	f7ff f834 	bl	8005cc8 <Switch_LED>
	for(;;){
 8006c60:	e6d1      	b.n	8006a06 <Menu+0xe>
 8006c62:	bf00      	nop
 8006c64:	aaaaaaab 	.word	0xaaaaaaab
 8006c68:	2000022c 	.word	0x2000022c
 8006c6c:	00ffff00 	.word	0x00ffff00
 8006c70:	00ff8800 	.word	0x00ff8800
 8006c74:	0800a0fc 	.word	0x0800a0fc

08006c78 <test>:
		{NULL, "FAN   : OFF", COLOR_RED},
};


//    .
void test(){
 8006c78:	b580      	push	{r7, lr}
 8006c7a:	b084      	sub	sp, #16
 8006c7c:	af02      	add	r7, sp, #8
	uint8_t idx = 0;
 8006c7e:	2300      	movs	r3, #0
 8006c80:	71fb      	strb	r3, [r7, #7]
	OLED_MenuUI("TEST", 0xFF00FF, 0x000000, testList, 6, 0x6600FF);
 8006c82:	4bbb      	ldr	r3, [pc, #748]	; (8006f70 <test+0x2f8>)
 8006c84:	9301      	str	r3, [sp, #4]
 8006c86:	2306      	movs	r3, #6
 8006c88:	9300      	str	r3, [sp, #0]
 8006c8a:	4bba      	ldr	r3, [pc, #744]	; (8006f74 <test+0x2fc>)
 8006c8c:	2200      	movs	r2, #0
 8006c8e:	f04f 11ff 	mov.w	r1, #16711935	; 0xff00ff
 8006c92:	48b9      	ldr	r0, [pc, #740]	; (8006f78 <test+0x300>)
 8006c94:	f7fe ff4c 	bl	8005b30 <OLED_MenuUI>
	OLED_Cursor(0, 0xFF0000);
 8006c98:	f44f 017f 	mov.w	r1, #16711680	; 0xff0000
 8006c9c:	2000      	movs	r0, #0
 8006c9e:	f7fe ff93 	bl	8005bc8 <OLED_Cursor>
	SwitchLED(testList[0].color);
 8006ca2:	4bb4      	ldr	r3, [pc, #720]	; (8006f74 <test+0x2fc>)
 8006ca4:	891b      	ldrh	r3, [r3, #8]
 8006ca6:	0a1b      	lsrs	r3, r3, #8
 8006ca8:	b29b      	uxth	r3, r3
 8006caa:	4ab2      	ldr	r2, [pc, #712]	; (8006f74 <test+0x2fc>)
 8006cac:	8912      	ldrh	r2, [r2, #8]
 8006cae:	b2d2      	uxtb	r2, r2
 8006cb0:	b292      	uxth	r2, r2
 8006cb2:	4611      	mov	r1, r2
 8006cb4:	4618      	mov	r0, r3
 8006cb6:	f7ff f807 	bl	8005cc8 <Switch_LED>
	testList[0].color = COLOR_RED;
 8006cba:	4bae      	ldr	r3, [pc, #696]	; (8006f74 <test+0x2fc>)
 8006cbc:	f44f 4220 	mov.w	r2, #40960	; 0xa000
 8006cc0:	811a      	strh	r2, [r3, #8]
	testList[1].color = COLOR_RED;
 8006cc2:	4bac      	ldr	r3, [pc, #688]	; (8006f74 <test+0x2fc>)
 8006cc4:	f44f 4220 	mov.w	r2, #40960	; 0xa000
 8006cc8:	829a      	strh	r2, [r3, #20]
	testList[2].color = COLOR_RED;
 8006cca:	4baa      	ldr	r3, [pc, #680]	; (8006f74 <test+0x2fc>)
 8006ccc:	f44f 4220 	mov.w	r2, #40960	; 0xa000
 8006cd0:	841a      	strh	r2, [r3, #32]
	testList[3].color = COLOR_RED;
 8006cd2:	4ba8      	ldr	r3, [pc, #672]	; (8006f74 <test+0x2fc>)
 8006cd4:	f44f 4220 	mov.w	r2, #40960	; 0xa000
 8006cd8:	859a      	strh	r2, [r3, #44]	; 0x2c
	testList[4].color = COLOR_RED;
 8006cda:	4ba6      	ldr	r3, [pc, #664]	; (8006f74 <test+0x2fc>)
 8006cdc:	f44f 4220 	mov.w	r2, #40960	; 0xa000
 8006ce0:	871a      	strh	r2, [r3, #56]	; 0x38
	testList[5].color = COLOR_RED;
 8006ce2:	4ba4      	ldr	r3, [pc, #656]	; (8006f74 <test+0x2fc>)
 8006ce4:	f44f 4220 	mov.w	r2, #40960	; 0xa000
 8006ce8:	f8a3 2044 	strh.w	r2, [r3, #68]	; 0x44
	for(;;){
		uint16_t sw = Switch_Read();
 8006cec:	f7ff f804 	bl	8005cf8 <Switch_Read>
 8006cf0:	4603      	mov	r3, r0
 8006cf2:	80bb      	strh	r3, [r7, #4]
		if(sw == SW_TOP || sw == SW_TOP_LONG){
 8006cf4:	88bb      	ldrh	r3, [r7, #4]
 8006cf6:	2b02      	cmp	r3, #2
 8006cf8:	d002      	beq.n	8006d00 <test+0x88>
 8006cfa:	88bb      	ldrh	r3, [r7, #4]
 8006cfc:	2b22      	cmp	r3, #34	; 0x22
 8006cfe:	d12d      	bne.n	8006d5c <test+0xe4>
			idx+=5;
 8006d00:	79fb      	ldrb	r3, [r7, #7]
 8006d02:	3305      	adds	r3, #5
 8006d04:	71fb      	strb	r3, [r7, #7]
			idx %= 6;
 8006d06:	79fa      	ldrb	r2, [r7, #7]
 8006d08:	4b9c      	ldr	r3, [pc, #624]	; (8006f7c <test+0x304>)
 8006d0a:	fba3 1302 	umull	r1, r3, r3, r2
 8006d0e:	0899      	lsrs	r1, r3, #2
 8006d10:	460b      	mov	r3, r1
 8006d12:	005b      	lsls	r3, r3, #1
 8006d14:	440b      	add	r3, r1
 8006d16:	005b      	lsls	r3, r3, #1
 8006d18:	1ad3      	subs	r3, r2, r3
 8006d1a:	71fb      	strb	r3, [r7, #7]
			OLED_Cursor(idx, 0xFF0000);
 8006d1c:	79fb      	ldrb	r3, [r7, #7]
 8006d1e:	f44f 017f 	mov.w	r1, #16711680	; 0xff0000
 8006d22:	4618      	mov	r0, r3
 8006d24:	f7fe ff50 	bl	8005bc8 <OLED_Cursor>
			SwitchLED(testList[idx].color);
 8006d28:	79fa      	ldrb	r2, [r7, #7]
 8006d2a:	4992      	ldr	r1, [pc, #584]	; (8006f74 <test+0x2fc>)
 8006d2c:	4613      	mov	r3, r2
 8006d2e:	005b      	lsls	r3, r3, #1
 8006d30:	4413      	add	r3, r2
 8006d32:	009b      	lsls	r3, r3, #2
 8006d34:	440b      	add	r3, r1
 8006d36:	3308      	adds	r3, #8
 8006d38:	881b      	ldrh	r3, [r3, #0]
 8006d3a:	0a1b      	lsrs	r3, r3, #8
 8006d3c:	b298      	uxth	r0, r3
 8006d3e:	79fa      	ldrb	r2, [r7, #7]
 8006d40:	498c      	ldr	r1, [pc, #560]	; (8006f74 <test+0x2fc>)
 8006d42:	4613      	mov	r3, r2
 8006d44:	005b      	lsls	r3, r3, #1
 8006d46:	4413      	add	r3, r2
 8006d48:	009b      	lsls	r3, r3, #2
 8006d4a:	440b      	add	r3, r1
 8006d4c:	3308      	adds	r3, #8
 8006d4e:	881b      	ldrh	r3, [r3, #0]
 8006d50:	b2db      	uxtb	r3, r3
 8006d52:	b29b      	uxth	r3, r3
 8006d54:	4619      	mov	r1, r3
 8006d56:	f7fe ffb7 	bl	8005cc8 <Switch_LED>
 8006d5a:	e147      	b.n	8006fec <test+0x374>
		}
		else if(sw == SW_BOTTOM || sw == SW_BOTTOM_LONG){
 8006d5c:	88bb      	ldrh	r3, [r7, #4]
 8006d5e:	2b08      	cmp	r3, #8
 8006d60:	d002      	beq.n	8006d68 <test+0xf0>
 8006d62:	88bb      	ldrh	r3, [r7, #4]
 8006d64:	2b28      	cmp	r3, #40	; 0x28
 8006d66:	d12d      	bne.n	8006dc4 <test+0x14c>
			idx+=1;
 8006d68:	79fb      	ldrb	r3, [r7, #7]
 8006d6a:	3301      	adds	r3, #1
 8006d6c:	71fb      	strb	r3, [r7, #7]
			idx %= 6;
 8006d6e:	79fa      	ldrb	r2, [r7, #7]
 8006d70:	4b82      	ldr	r3, [pc, #520]	; (8006f7c <test+0x304>)
 8006d72:	fba3 1302 	umull	r1, r3, r3, r2
 8006d76:	0899      	lsrs	r1, r3, #2
 8006d78:	460b      	mov	r3, r1
 8006d7a:	005b      	lsls	r3, r3, #1
 8006d7c:	440b      	add	r3, r1
 8006d7e:	005b      	lsls	r3, r3, #1
 8006d80:	1ad3      	subs	r3, r2, r3
 8006d82:	71fb      	strb	r3, [r7, #7]
			OLED_Cursor(idx, 0xFF0000);
 8006d84:	79fb      	ldrb	r3, [r7, #7]
 8006d86:	f44f 017f 	mov.w	r1, #16711680	; 0xff0000
 8006d8a:	4618      	mov	r0, r3
 8006d8c:	f7fe ff1c 	bl	8005bc8 <OLED_Cursor>
			SwitchLED(testList[idx].color);
 8006d90:	79fa      	ldrb	r2, [r7, #7]
 8006d92:	4978      	ldr	r1, [pc, #480]	; (8006f74 <test+0x2fc>)
 8006d94:	4613      	mov	r3, r2
 8006d96:	005b      	lsls	r3, r3, #1
 8006d98:	4413      	add	r3, r2
 8006d9a:	009b      	lsls	r3, r3, #2
 8006d9c:	440b      	add	r3, r1
 8006d9e:	3308      	adds	r3, #8
 8006da0:	881b      	ldrh	r3, [r3, #0]
 8006da2:	0a1b      	lsrs	r3, r3, #8
 8006da4:	b298      	uxth	r0, r3
 8006da6:	79fa      	ldrb	r2, [r7, #7]
 8006da8:	4972      	ldr	r1, [pc, #456]	; (8006f74 <test+0x2fc>)
 8006daa:	4613      	mov	r3, r2
 8006dac:	005b      	lsls	r3, r3, #1
 8006dae:	4413      	add	r3, r2
 8006db0:	009b      	lsls	r3, r3, #2
 8006db2:	440b      	add	r3, r1
 8006db4:	3308      	adds	r3, #8
 8006db6:	881b      	ldrh	r3, [r3, #0]
 8006db8:	b2db      	uxtb	r3, r3
 8006dba:	b29b      	uxth	r3, r3
 8006dbc:	4619      	mov	r1, r3
 8006dbe:	f7fe ff83 	bl	8005cc8 <Switch_LED>
 8006dc2:	e113      	b.n	8006fec <test+0x374>
		}
		else if(sw == SW_ENTER){
 8006dc4:	88bb      	ldrh	r3, [r7, #4]
 8006dc6:	2b04      	cmp	r3, #4
 8006dc8:	f000 8111 	beq.w	8006fee <test+0x376>
			break;
		}
		else if(sw == SW_LEFT || sw == SW_RIGHT){
 8006dcc:	88bb      	ldrh	r3, [r7, #4]
 8006dce:	2b10      	cmp	r3, #16
 8006dd0:	d002      	beq.n	8006dd8 <test+0x160>
 8006dd2:	88bb      	ldrh	r3, [r7, #4]
 8006dd4:	2b01      	cmp	r3, #1
 8006dd6:	d189      	bne.n	8006cec <test+0x74>
			if(testList[idx].color == COLOR_RED){
 8006dd8:	79fa      	ldrb	r2, [r7, #7]
 8006dda:	4966      	ldr	r1, [pc, #408]	; (8006f74 <test+0x2fc>)
 8006ddc:	4613      	mov	r3, r2
 8006dde:	005b      	lsls	r3, r3, #1
 8006de0:	4413      	add	r3, r2
 8006de2:	009b      	lsls	r3, r3, #2
 8006de4:	440b      	add	r3, r1
 8006de6:	3308      	adds	r3, #8
 8006de8:	881b      	ldrh	r3, [r3, #0]
 8006dea:	f5b3 4f20 	cmp.w	r3, #40960	; 0xa000
 8006dee:	d158      	bne.n	8006ea2 <test+0x22a>
				testList[idx].color = COLOR_WHITE;
 8006df0:	79fa      	ldrb	r2, [r7, #7]
 8006df2:	4960      	ldr	r1, [pc, #384]	; (8006f74 <test+0x2fc>)
 8006df4:	4613      	mov	r3, r2
 8006df6:	005b      	lsls	r3, r3, #1
 8006df8:	4413      	add	r3, r2
 8006dfa:	009b      	lsls	r3, r3, #2
 8006dfc:	440b      	add	r3, r1
 8006dfe:	3308      	adds	r3, #8
 8006e00:	f24a 02a0 	movw	r2, #41120	; 0xa0a0
 8006e04:	801a      	strh	r2, [r3, #0]
				switch(idx){
 8006e06:	79fb      	ldrb	r3, [r7, #7]
 8006e08:	2b05      	cmp	r3, #5
 8006e0a:	f200 80d6 	bhi.w	8006fba <test+0x342>
 8006e0e:	a201      	add	r2, pc, #4	; (adr r2, 8006e14 <test+0x19c>)
 8006e10:	f852 f023 	ldr.w	pc, [r2, r3, lsl #2]
 8006e14:	08006e2d 	.word	0x08006e2d
 8006e18:	08006e41 	.word	0x08006e41
 8006e1c:	08006e55 	.word	0x08006e55
 8006e20:	08006e69 	.word	0x08006e69
 8006e24:	08006e7d 	.word	0x08006e7d
 8006e28:	08006e8f 	.word	0x08006e8f
				case 0:
					// Convection Fan
					HAL_GPIO_WritePin(Motor1_GPIO_Port, Motor1_Pin, 0);
 8006e2c:	2200      	movs	r2, #0
 8006e2e:	f44f 7100 	mov.w	r1, #512	; 0x200
 8006e32:	4853      	ldr	r0, [pc, #332]	; (8006f80 <test+0x308>)
 8006e34:	f7fb fa36 	bl	80022a4 <HAL_GPIO_WritePin>
					OLED_Printf("/1Motor1: ON ");
 8006e38:	4852      	ldr	r0, [pc, #328]	; (8006f84 <test+0x30c>)
 8006e3a:	f7fe fb07 	bl	800544c <OLED_Printf>
					break;
 8006e3e:	e0bc      	b.n	8006fba <test+0x342>
				case 1:
					// Rotisserie Motor
					HAL_GPIO_WritePin(Motor2_GPIO_Port, Motor2_Pin, 0);
 8006e40:	2200      	movs	r2, #0
 8006e42:	f44f 7180 	mov.w	r1, #256	; 0x100
 8006e46:	484e      	ldr	r0, [pc, #312]	; (8006f80 <test+0x308>)
 8006e48:	f7fb fa2c 	bl	80022a4 <HAL_GPIO_WritePin>
					OLED_Printf("/2Motor2: ON ");
 8006e4c:	484e      	ldr	r0, [pc, #312]	; (8006f88 <test+0x310>)
 8006e4e:	f7fe fafd 	bl	800544c <OLED_Printf>
					break;
 8006e52:	e0b2      	b.n	8006fba <test+0x342>
				case 2:
					// Lamp
					HAL_GPIO_WritePin(LAMP_GPIO_Port, LAMP_Pin, 0);
 8006e54:	2200      	movs	r2, #0
 8006e56:	f44f 6100 	mov.w	r1, #2048	; 0x800
 8006e5a:	4849      	ldr	r0, [pc, #292]	; (8006f80 <test+0x308>)
 8006e5c:	f7fb fa22 	bl	80022a4 <HAL_GPIO_WritePin>
					OLED_Printf("/3LAMP  : ON ");
 8006e60:	484a      	ldr	r0, [pc, #296]	; (8006f8c <test+0x314>)
 8006e62:	f7fe faf3 	bl	800544c <OLED_Printf>
					break;
 8006e66:	e0a8      	b.n	8006fba <test+0x342>
				case 3:
					// Heater Up
					HAL_GPIO_WritePin(Heater_Top_GPIO_Port, Heater_Top_Pin, 0);
 8006e68:	2200      	movs	r2, #0
 8006e6a:	f44f 7180 	mov.w	r1, #256	; 0x100
 8006e6e:	4848      	ldr	r0, [pc, #288]	; (8006f90 <test+0x318>)
 8006e70:	f7fb fa18 	bl	80022a4 <HAL_GPIO_WritePin>
					OLED_Printf("/4HU    : ON ");
 8006e74:	4847      	ldr	r0, [pc, #284]	; (8006f94 <test+0x31c>)
 8006e76:	f7fe fae9 	bl	800544c <OLED_Printf>
					break;
 8006e7a:	e09e      	b.n	8006fba <test+0x342>
				case 4:
					// Heater Down
					HAL_GPIO_WritePin(Heater_Bottom_GPIO_Port, Heater_Bottom_Pin, 0);
 8006e7c:	2200      	movs	r2, #0
 8006e7e:	2180      	movs	r1, #128	; 0x80
 8006e80:	4843      	ldr	r0, [pc, #268]	; (8006f90 <test+0x318>)
 8006e82:	f7fb fa0f 	bl	80022a4 <HAL_GPIO_WritePin>
					OLED_Printf("/5HD    : ON ");
 8006e86:	4844      	ldr	r0, [pc, #272]	; (8006f98 <test+0x320>)
 8006e88:	f7fe fae0 	bl	800544c <OLED_Printf>
					break;
 8006e8c:	e095      	b.n	8006fba <test+0x342>
				case 5:
					HAL_GPIO_WritePin(DCFAN_GPIO_Port, DCFAN_Pin, 1);
 8006e8e:	2201      	movs	r2, #1
 8006e90:	f44f 7100 	mov.w	r1, #512	; 0x200
 8006e94:	483e      	ldr	r0, [pc, #248]	; (8006f90 <test+0x318>)
 8006e96:	f7fb fa05 	bl	80022a4 <HAL_GPIO_WritePin>
					OLED_Printf("/6FAN   : ON ");
 8006e9a:	4840      	ldr	r0, [pc, #256]	; (8006f9c <test+0x324>)
 8006e9c:	f7fe fad6 	bl	800544c <OLED_Printf>
					break;
 8006ea0:	e08b      	b.n	8006fba <test+0x342>
				}
			}
			else if(testList[idx].color == COLOR_WHITE){
 8006ea2:	79fa      	ldrb	r2, [r7, #7]
 8006ea4:	4933      	ldr	r1, [pc, #204]	; (8006f74 <test+0x2fc>)
 8006ea6:	4613      	mov	r3, r2
 8006ea8:	005b      	lsls	r3, r3, #1
 8006eaa:	4413      	add	r3, r2
 8006eac:	009b      	lsls	r3, r3, #2
 8006eae:	440b      	add	r3, r1
 8006eb0:	3308      	adds	r3, #8
 8006eb2:	881b      	ldrh	r3, [r3, #0]
 8006eb4:	f24a 02a0 	movw	r2, #41120	; 0xa0a0
 8006eb8:	4293      	cmp	r3, r2
 8006eba:	d17d      	bne.n	8006fb8 <test+0x340>
				testList[idx].color = COLOR_RED;
 8006ebc:	79fa      	ldrb	r2, [r7, #7]
 8006ebe:	492d      	ldr	r1, [pc, #180]	; (8006f74 <test+0x2fc>)
 8006ec0:	4613      	mov	r3, r2
 8006ec2:	005b      	lsls	r3, r3, #1
 8006ec4:	4413      	add	r3, r2
 8006ec6:	009b      	lsls	r3, r3, #2
 8006ec8:	440b      	add	r3, r1
 8006eca:	3308      	adds	r3, #8
 8006ecc:	f44f 4220 	mov.w	r2, #40960	; 0xa000
 8006ed0:	801a      	strh	r2, [r3, #0]
				switch(idx){
 8006ed2:	79fb      	ldrb	r3, [r7, #7]
 8006ed4:	2b05      	cmp	r3, #5
 8006ed6:	d870      	bhi.n	8006fba <test+0x342>
 8006ed8:	a201      	add	r2, pc, #4	; (adr r2, 8006ee0 <test+0x268>)
 8006eda:	f852 f023 	ldr.w	pc, [r2, r3, lsl #2]
 8006ede:	bf00      	nop
 8006ee0:	08006ef9 	.word	0x08006ef9
 8006ee4:	08006f0d 	.word	0x08006f0d
 8006ee8:	08006f21 	.word	0x08006f21
 8006eec:	08006f35 	.word	0x08006f35
 8006ef0:	08006f49 	.word	0x08006f49
 8006ef4:	08006f5b 	.word	0x08006f5b
				case 0:
					HAL_GPIO_WritePin(Motor1_GPIO_Port, Motor1_Pin, 1);
 8006ef8:	2201      	movs	r2, #1
 8006efa:	f44f 7100 	mov.w	r1, #512	; 0x200
 8006efe:	4820      	ldr	r0, [pc, #128]	; (8006f80 <test+0x308>)
 8006f00:	f7fb f9d0 	bl	80022a4 <HAL_GPIO_WritePin>
					OLED_Printf("/1Motor1: OFF");
 8006f04:	4826      	ldr	r0, [pc, #152]	; (8006fa0 <test+0x328>)
 8006f06:	f7fe faa1 	bl	800544c <OLED_Printf>
					break;
 8006f0a:	e056      	b.n	8006fba <test+0x342>
				case 1:
					HAL_GPIO_WritePin(Motor2_GPIO_Port, Motor2_Pin, 1);
 8006f0c:	2201      	movs	r2, #1
 8006f0e:	f44f 7180 	mov.w	r1, #256	; 0x100
 8006f12:	481b      	ldr	r0, [pc, #108]	; (8006f80 <test+0x308>)
 8006f14:	f7fb f9c6 	bl	80022a4 <HAL_GPIO_WritePin>
					OLED_Printf("/2Motor2: OFF");
 8006f18:	4822      	ldr	r0, [pc, #136]	; (8006fa4 <test+0x32c>)
 8006f1a:	f7fe fa97 	bl	800544c <OLED_Printf>
					break;
 8006f1e:	e04c      	b.n	8006fba <test+0x342>
				case 2:
					HAL_GPIO_WritePin(LAMP_GPIO_Port, LAMP_Pin, 1);
 8006f20:	2201      	movs	r2, #1
 8006f22:	f44f 6100 	mov.w	r1, #2048	; 0x800
 8006f26:	4816      	ldr	r0, [pc, #88]	; (8006f80 <test+0x308>)
 8006f28:	f7fb f9bc 	bl	80022a4 <HAL_GPIO_WritePin>
					OLED_Printf("/3LAMP  : OFF");
 8006f2c:	481e      	ldr	r0, [pc, #120]	; (8006fa8 <test+0x330>)
 8006f2e:	f7fe fa8d 	bl	800544c <OLED_Printf>
					break;
 8006f32:	e042      	b.n	8006fba <test+0x342>
				case 3:
					HAL_GPIO_WritePin(Heater_Top_GPIO_Port, Heater_Top_Pin, 1);
 8006f34:	2201      	movs	r2, #1
 8006f36:	f44f 7180 	mov.w	r1, #256	; 0x100
 8006f3a:	4815      	ldr	r0, [pc, #84]	; (8006f90 <test+0x318>)
 8006f3c:	f7fb f9b2 	bl	80022a4 <HAL_GPIO_WritePin>
					OLED_Printf("/4HU    : OFF");
 8006f40:	481a      	ldr	r0, [pc, #104]	; (8006fac <test+0x334>)
 8006f42:	f7fe fa83 	bl	800544c <OLED_Printf>
					break;
 8006f46:	e038      	b.n	8006fba <test+0x342>
				case 4:
					HAL_GPIO_WritePin(Heater_Bottom_GPIO_Port, Heater_Bottom_Pin, 1);
 8006f48:	2201      	movs	r2, #1
 8006f4a:	2180      	movs	r1, #128	; 0x80
 8006f4c:	4810      	ldr	r0, [pc, #64]	; (8006f90 <test+0x318>)
 8006f4e:	f7fb f9a9 	bl	80022a4 <HAL_GPIO_WritePin>
					OLED_Printf("/5HD    : OFF");
 8006f52:	4817      	ldr	r0, [pc, #92]	; (8006fb0 <test+0x338>)
 8006f54:	f7fe fa7a 	bl	800544c <OLED_Printf>
					break;
 8006f58:	e02f      	b.n	8006fba <test+0x342>
				case 5:
					HAL_GPIO_WritePin(DCFAN_GPIO_Port, DCFAN_Pin, 0);
 8006f5a:	2200      	movs	r2, #0
 8006f5c:	f44f 7100 	mov.w	r1, #512	; 0x200
 8006f60:	480b      	ldr	r0, [pc, #44]	; (8006f90 <test+0x318>)
 8006f62:	f7fb f99f 	bl	80022a4 <HAL_GPIO_WritePin>
					OLED_Printf("/6FAN   : OFF");
 8006f66:	4813      	ldr	r0, [pc, #76]	; (8006fb4 <test+0x33c>)
 8006f68:	f7fe fa70 	bl	800544c <OLED_Printf>
					break;
 8006f6c:	e025      	b.n	8006fba <test+0x342>
 8006f6e:	bf00      	nop
 8006f70:	006600ff 	.word	0x006600ff
 8006f74:	20000280 	.word	0x20000280
 8006f78:	0800a150 	.word	0x0800a150
 8006f7c:	aaaaaaab 	.word	0xaaaaaaab
 8006f80:	40020000 	.word	0x40020000
 8006f84:	0800a158 	.word	0x0800a158
 8006f88:	0800a168 	.word	0x0800a168
 8006f8c:	0800a178 	.word	0x0800a178
 8006f90:	40020800 	.word	0x40020800
 8006f94:	0800a188 	.word	0x0800a188
 8006f98:	0800a198 	.word	0x0800a198
 8006f9c:	0800a1a8 	.word	0x0800a1a8
 8006fa0:	0800a1b8 	.word	0x0800a1b8
 8006fa4:	0800a1c8 	.word	0x0800a1c8
 8006fa8:	0800a1d8 	.word	0x0800a1d8
 8006fac:	0800a1e8 	.word	0x0800a1e8
 8006fb0:	0800a1f8 	.word	0x0800a1f8
 8006fb4:	0800a208 	.word	0x0800a208
				}
			}
 8006fb8:	bf00      	nop

			SwitchLED(testList[idx].color);
 8006fba:	79fa      	ldrb	r2, [r7, #7]
 8006fbc:	4920      	ldr	r1, [pc, #128]	; (8007040 <test+0x3c8>)
 8006fbe:	4613      	mov	r3, r2
 8006fc0:	005b      	lsls	r3, r3, #1
 8006fc2:	4413      	add	r3, r2
 8006fc4:	009b      	lsls	r3, r3, #2
 8006fc6:	440b      	add	r3, r1
 8006fc8:	3308      	adds	r3, #8
 8006fca:	881b      	ldrh	r3, [r3, #0]
 8006fcc:	0a1b      	lsrs	r3, r3, #8
 8006fce:	b298      	uxth	r0, r3
 8006fd0:	79fa      	ldrb	r2, [r7, #7]
 8006fd2:	491b      	ldr	r1, [pc, #108]	; (8007040 <test+0x3c8>)
 8006fd4:	4613      	mov	r3, r2
 8006fd6:	005b      	lsls	r3, r3, #1
 8006fd8:	4413      	add	r3, r2
 8006fda:	009b      	lsls	r3, r3, #2
 8006fdc:	440b      	add	r3, r1
 8006fde:	3308      	adds	r3, #8
 8006fe0:	881b      	ldrh	r3, [r3, #0]
 8006fe2:	b2db      	uxtb	r3, r3
 8006fe4:	b29b      	uxth	r3, r3
 8006fe6:	4619      	mov	r1, r3
 8006fe8:	f7fe fe6e 	bl	8005cc8 <Switch_LED>
	for(;;){
 8006fec:	e67e      	b.n	8006cec <test+0x74>
			break;
 8006fee:	bf00      	nop
		}
	}

	HAL_GPIO_WritePin(Motor1_GPIO_Port, Motor1_Pin, 1);
 8006ff0:	2201      	movs	r2, #1
 8006ff2:	f44f 7100 	mov.w	r1, #512	; 0x200
 8006ff6:	4813      	ldr	r0, [pc, #76]	; (8007044 <test+0x3cc>)
 8006ff8:	f7fb f954 	bl	80022a4 <HAL_GPIO_WritePin>
	HAL_GPIO_WritePin(Motor2_GPIO_Port, Motor2_Pin, 1);
 8006ffc:	2201      	movs	r2, #1
 8006ffe:	f44f 7180 	mov.w	r1, #256	; 0x100
 8007002:	4810      	ldr	r0, [pc, #64]	; (8007044 <test+0x3cc>)
 8007004:	f7fb f94e 	bl	80022a4 <HAL_GPIO_WritePin>
	HAL_GPIO_WritePin(LAMP_GPIO_Port, LAMP_Pin, 1);
 8007008:	2201      	movs	r2, #1
 800700a:	f44f 6100 	mov.w	r1, #2048	; 0x800
 800700e:	480d      	ldr	r0, [pc, #52]	; (8007044 <test+0x3cc>)
 8007010:	f7fb f948 	bl	80022a4 <HAL_GPIO_WritePin>
	HAL_GPIO_WritePin(Heater_Top_GPIO_Port, Heater_Top_Pin, 1);
 8007014:	2201      	movs	r2, #1
 8007016:	f44f 7180 	mov.w	r1, #256	; 0x100
 800701a:	480b      	ldr	r0, [pc, #44]	; (8007048 <test+0x3d0>)
 800701c:	f7fb f942 	bl	80022a4 <HAL_GPIO_WritePin>
	HAL_GPIO_WritePin(Heater_Bottom_GPIO_Port, Heater_Bottom_Pin, 1);
 8007020:	2201      	movs	r2, #1
 8007022:	2180      	movs	r1, #128	; 0x80
 8007024:	4808      	ldr	r0, [pc, #32]	; (8007048 <test+0x3d0>)
 8007026:	f7fb f93d 	bl	80022a4 <HAL_GPIO_WritePin>
	HAL_GPIO_WritePin(DCFAN_GPIO_Port, DCFAN_Pin, 0);
 800702a:	2200      	movs	r2, #0
 800702c:	f44f 7100 	mov.w	r1, #512	; 0x200
 8007030:	4805      	ldr	r0, [pc, #20]	; (8007048 <test+0x3d0>)
 8007032:	f7fb f937 	bl	80022a4 <HAL_GPIO_WritePin>

}
 8007036:	bf00      	nop
 8007038:	3708      	adds	r7, #8
 800703a:	46bd      	mov	sp, r7
 800703c:	bd80      	pop	{r7, pc}
 800703e:	bf00      	nop
 8007040:	20000280 	.word	0x20000280
 8007044:	40020000 	.word	0x40020000
 8007048:	40020800 	.word	0x40020800

0800704c <calloc>:
 800704c:	4b02      	ldr	r3, [pc, #8]	; (8007058 <calloc+0xc>)
 800704e:	460a      	mov	r2, r1
 8007050:	4601      	mov	r1, r0
 8007052:	6818      	ldr	r0, [r3, #0]
 8007054:	f000 b83c 	b.w	80070d0 <_calloc_r>
 8007058:	200002c8 	.word	0x200002c8

0800705c <__errno>:
 800705c:	4b01      	ldr	r3, [pc, #4]	; (8007064 <__errno+0x8>)
 800705e:	6818      	ldr	r0, [r3, #0]
 8007060:	4770      	bx	lr
 8007062:	bf00      	nop
 8007064:	200002c8 	.word	0x200002c8

08007068 <__libc_init_array>:
 8007068:	b570      	push	{r4, r5, r6, lr}
 800706a:	4d0d      	ldr	r5, [pc, #52]	; (80070a0 <__libc_init_array+0x38>)
 800706c:	4c0d      	ldr	r4, [pc, #52]	; (80070a4 <__libc_init_array+0x3c>)
 800706e:	1b64      	subs	r4, r4, r5
 8007070:	10a4      	asrs	r4, r4, #2
 8007072:	2600      	movs	r6, #0
 8007074:	42a6      	cmp	r6, r4
 8007076:	d109      	bne.n	800708c <__libc_init_array+0x24>
 8007078:	4d0b      	ldr	r5, [pc, #44]	; (80070a8 <__libc_init_array+0x40>)
 800707a:	4c0c      	ldr	r4, [pc, #48]	; (80070ac <__libc_init_array+0x44>)
 800707c:	f002 ffa4 	bl	8009fc8 <_init>
 8007080:	1b64      	subs	r4, r4, r5
 8007082:	10a4      	asrs	r4, r4, #2
 8007084:	2600      	movs	r6, #0
 8007086:	42a6      	cmp	r6, r4
 8007088:	d105      	bne.n	8007096 <__libc_init_array+0x2e>
 800708a:	bd70      	pop	{r4, r5, r6, pc}
 800708c:	f855 3b04 	ldr.w	r3, [r5], #4
 8007090:	4798      	blx	r3
 8007092:	3601      	adds	r6, #1
 8007094:	e7ee      	b.n	8007074 <__libc_init_array+0xc>
 8007096:	f855 3b04 	ldr.w	r3, [r5], #4
 800709a:	4798      	blx	r3
 800709c:	3601      	adds	r6, #1
 800709e:	e7f2      	b.n	8007086 <__libc_init_array+0x1e>
 80070a0:	0800a614 	.word	0x0800a614
 80070a4:	0800a614 	.word	0x0800a614
 80070a8:	0800a614 	.word	0x0800a614
 80070ac:	0800a618 	.word	0x0800a618

080070b0 <malloc>:
 80070b0:	4b02      	ldr	r3, [pc, #8]	; (80070bc <malloc+0xc>)
 80070b2:	4601      	mov	r1, r0
 80070b4:	6818      	ldr	r0, [r3, #0]
 80070b6:	f000 b88d 	b.w	80071d4 <_malloc_r>
 80070ba:	bf00      	nop
 80070bc:	200002c8 	.word	0x200002c8

080070c0 <memset>:
 80070c0:	4402      	add	r2, r0
 80070c2:	4603      	mov	r3, r0
 80070c4:	4293      	cmp	r3, r2
 80070c6:	d100      	bne.n	80070ca <memset+0xa>
 80070c8:	4770      	bx	lr
 80070ca:	f803 1b01 	strb.w	r1, [r3], #1
 80070ce:	e7f9      	b.n	80070c4 <memset+0x4>

080070d0 <_calloc_r>:
 80070d0:	b537      	push	{r0, r1, r2, r4, r5, lr}
 80070d2:	fba1 2402 	umull	r2, r4, r1, r2
 80070d6:	b94c      	cbnz	r4, 80070ec <_calloc_r+0x1c>
 80070d8:	4611      	mov	r1, r2
 80070da:	9201      	str	r2, [sp, #4]
 80070dc:	f000 f87a 	bl	80071d4 <_malloc_r>
 80070e0:	9a01      	ldr	r2, [sp, #4]
 80070e2:	4605      	mov	r5, r0
 80070e4:	b930      	cbnz	r0, 80070f4 <_calloc_r+0x24>
 80070e6:	4628      	mov	r0, r5
 80070e8:	b003      	add	sp, #12
 80070ea:	bd30      	pop	{r4, r5, pc}
 80070ec:	220c      	movs	r2, #12
 80070ee:	6002      	str	r2, [r0, #0]
 80070f0:	2500      	movs	r5, #0
 80070f2:	e7f8      	b.n	80070e6 <_calloc_r+0x16>
 80070f4:	4621      	mov	r1, r4
 80070f6:	f7ff ffe3 	bl	80070c0 <memset>
 80070fa:	e7f4      	b.n	80070e6 <_calloc_r+0x16>

080070fc <_free_r>:
 80070fc:	b537      	push	{r0, r1, r2, r4, r5, lr}
 80070fe:	2900      	cmp	r1, #0
 8007100:	d044      	beq.n	800718c <_free_r+0x90>
 8007102:	f851 3c04 	ldr.w	r3, [r1, #-4]
 8007106:	9001      	str	r0, [sp, #4]
 8007108:	2b00      	cmp	r3, #0
 800710a:	f1a1 0404 	sub.w	r4, r1, #4
 800710e:	bfb8      	it	lt
 8007110:	18e4      	addlt	r4, r4, r3
 8007112:	f001 ff7d 	bl	8009010 <__malloc_lock>
 8007116:	4a1e      	ldr	r2, [pc, #120]	; (8007190 <_free_r+0x94>)
 8007118:	9801      	ldr	r0, [sp, #4]
 800711a:	6813      	ldr	r3, [r2, #0]
 800711c:	b933      	cbnz	r3, 800712c <_free_r+0x30>
 800711e:	6063      	str	r3, [r4, #4]
 8007120:	6014      	str	r4, [r2, #0]
 8007122:	b003      	add	sp, #12
 8007124:	e8bd 4030 	ldmia.w	sp!, {r4, r5, lr}
 8007128:	f001 bf78 	b.w	800901c <__malloc_unlock>
 800712c:	42a3      	cmp	r3, r4
 800712e:	d908      	bls.n	8007142 <_free_r+0x46>
 8007130:	6825      	ldr	r5, [r4, #0]
 8007132:	1961      	adds	r1, r4, r5
 8007134:	428b      	cmp	r3, r1
 8007136:	bf01      	itttt	eq
 8007138:	6819      	ldreq	r1, [r3, #0]
 800713a:	685b      	ldreq	r3, [r3, #4]
 800713c:	1949      	addeq	r1, r1, r5
 800713e:	6021      	streq	r1, [r4, #0]
 8007140:	e7ed      	b.n	800711e <_free_r+0x22>
 8007142:	461a      	mov	r2, r3
 8007144:	685b      	ldr	r3, [r3, #4]
 8007146:	b10b      	cbz	r3, 800714c <_free_r+0x50>
 8007148:	42a3      	cmp	r3, r4
 800714a:	d9fa      	bls.n	8007142 <_free_r+0x46>
 800714c:	6811      	ldr	r1, [r2, #0]
 800714e:	1855      	adds	r5, r2, r1
 8007150:	42a5      	cmp	r5, r4
 8007152:	d10b      	bne.n	800716c <_free_r+0x70>
 8007154:	6824      	ldr	r4, [r4, #0]
 8007156:	4421      	add	r1, r4
 8007158:	1854      	adds	r4, r2, r1
 800715a:	42a3      	cmp	r3, r4
 800715c:	6011      	str	r1, [r2, #0]
 800715e:	d1e0      	bne.n	8007122 <_free_r+0x26>
 8007160:	681c      	ldr	r4, [r3, #0]
 8007162:	685b      	ldr	r3, [r3, #4]
 8007164:	6053      	str	r3, [r2, #4]
 8007166:	4421      	add	r1, r4
 8007168:	6011      	str	r1, [r2, #0]
 800716a:	e7da      	b.n	8007122 <_free_r+0x26>
 800716c:	d902      	bls.n	8007174 <_free_r+0x78>
 800716e:	230c      	movs	r3, #12
 8007170:	6003      	str	r3, [r0, #0]
 8007172:	e7d6      	b.n	8007122 <_free_r+0x26>
 8007174:	6825      	ldr	r5, [r4, #0]
 8007176:	1961      	adds	r1, r4, r5
 8007178:	428b      	cmp	r3, r1
 800717a:	bf04      	itt	eq
 800717c:	6819      	ldreq	r1, [r3, #0]
 800717e:	685b      	ldreq	r3, [r3, #4]
 8007180:	6063      	str	r3, [r4, #4]
 8007182:	bf04      	itt	eq
 8007184:	1949      	addeq	r1, r1, r5
 8007186:	6021      	streq	r1, [r4, #0]
 8007188:	6054      	str	r4, [r2, #4]
 800718a:	e7ca      	b.n	8007122 <_free_r+0x26>
 800718c:	b003      	add	sp, #12
 800718e:	bd30      	pop	{r4, r5, pc}
 8007190:	200006fc 	.word	0x200006fc

08007194 <sbrk_aligned>:
 8007194:	b570      	push	{r4, r5, r6, lr}
 8007196:	4e0e      	ldr	r6, [pc, #56]	; (80071d0 <sbrk_aligned+0x3c>)
 8007198:	460c      	mov	r4, r1
 800719a:	6831      	ldr	r1, [r6, #0]
 800719c:	4605      	mov	r5, r0
 800719e:	b911      	cbnz	r1, 80071a6 <sbrk_aligned+0x12>
 80071a0:	f000 fd84 	bl	8007cac <_sbrk_r>
 80071a4:	6030      	str	r0, [r6, #0]
 80071a6:	4621      	mov	r1, r4
 80071a8:	4628      	mov	r0, r5
 80071aa:	f000 fd7f 	bl	8007cac <_sbrk_r>
 80071ae:	1c43      	adds	r3, r0, #1
 80071b0:	d00a      	beq.n	80071c8 <sbrk_aligned+0x34>
 80071b2:	1cc4      	adds	r4, r0, #3
 80071b4:	f024 0403 	bic.w	r4, r4, #3
 80071b8:	42a0      	cmp	r0, r4
 80071ba:	d007      	beq.n	80071cc <sbrk_aligned+0x38>
 80071bc:	1a21      	subs	r1, r4, r0
 80071be:	4628      	mov	r0, r5
 80071c0:	f000 fd74 	bl	8007cac <_sbrk_r>
 80071c4:	3001      	adds	r0, #1
 80071c6:	d101      	bne.n	80071cc <sbrk_aligned+0x38>
 80071c8:	f04f 34ff 	mov.w	r4, #4294967295
 80071cc:	4620      	mov	r0, r4
 80071ce:	bd70      	pop	{r4, r5, r6, pc}
 80071d0:	20000700 	.word	0x20000700

080071d4 <_malloc_r>:
 80071d4:	e92d 41f0 	stmdb	sp!, {r4, r5, r6, r7, r8, lr}
 80071d8:	1ccd      	adds	r5, r1, #3
 80071da:	f025 0503 	bic.w	r5, r5, #3
 80071de:	3508      	adds	r5, #8
 80071e0:	2d0c      	cmp	r5, #12
 80071e2:	bf38      	it	cc
 80071e4:	250c      	movcc	r5, #12
 80071e6:	2d00      	cmp	r5, #0
 80071e8:	4607      	mov	r7, r0
 80071ea:	db01      	blt.n	80071f0 <_malloc_r+0x1c>
 80071ec:	42a9      	cmp	r1, r5
 80071ee:	d905      	bls.n	80071fc <_malloc_r+0x28>
 80071f0:	230c      	movs	r3, #12
 80071f2:	603b      	str	r3, [r7, #0]
 80071f4:	2600      	movs	r6, #0
 80071f6:	4630      	mov	r0, r6
 80071f8:	e8bd 81f0 	ldmia.w	sp!, {r4, r5, r6, r7, r8, pc}
 80071fc:	4e2e      	ldr	r6, [pc, #184]	; (80072b8 <_malloc_r+0xe4>)
 80071fe:	f001 ff07 	bl	8009010 <__malloc_lock>
 8007202:	6833      	ldr	r3, [r6, #0]
 8007204:	461c      	mov	r4, r3
 8007206:	bb34      	cbnz	r4, 8007256 <_malloc_r+0x82>
 8007208:	4629      	mov	r1, r5
 800720a:	4638      	mov	r0, r7
 800720c:	f7ff ffc2 	bl	8007194 <sbrk_aligned>
 8007210:	1c43      	adds	r3, r0, #1
 8007212:	4604      	mov	r4, r0
 8007214:	d14d      	bne.n	80072b2 <_malloc_r+0xde>
 8007216:	6834      	ldr	r4, [r6, #0]
 8007218:	4626      	mov	r6, r4
 800721a:	2e00      	cmp	r6, #0
 800721c:	d140      	bne.n	80072a0 <_malloc_r+0xcc>
 800721e:	6823      	ldr	r3, [r4, #0]
 8007220:	4631      	mov	r1, r6
 8007222:	4638      	mov	r0, r7
 8007224:	eb04 0803 	add.w	r8, r4, r3
 8007228:	f000 fd40 	bl	8007cac <_sbrk_r>
 800722c:	4580      	cmp	r8, r0
 800722e:	d13a      	bne.n	80072a6 <_malloc_r+0xd2>
 8007230:	6821      	ldr	r1, [r4, #0]
 8007232:	3503      	adds	r5, #3
 8007234:	1a6d      	subs	r5, r5, r1
 8007236:	f025 0503 	bic.w	r5, r5, #3
 800723a:	3508      	adds	r5, #8
 800723c:	2d0c      	cmp	r5, #12
 800723e:	bf38      	it	cc
 8007240:	250c      	movcc	r5, #12
 8007242:	4629      	mov	r1, r5
 8007244:	4638      	mov	r0, r7
 8007246:	f7ff ffa5 	bl	8007194 <sbrk_aligned>
 800724a:	3001      	adds	r0, #1
 800724c:	d02b      	beq.n	80072a6 <_malloc_r+0xd2>
 800724e:	6823      	ldr	r3, [r4, #0]
 8007250:	442b      	add	r3, r5
 8007252:	6023      	str	r3, [r4, #0]
 8007254:	e00e      	b.n	8007274 <_malloc_r+0xa0>
 8007256:	6822      	ldr	r2, [r4, #0]
 8007258:	1b52      	subs	r2, r2, r5
 800725a:	d41e      	bmi.n	800729a <_malloc_r+0xc6>
 800725c:	2a0b      	cmp	r2, #11
 800725e:	d916      	bls.n	800728e <_malloc_r+0xba>
 8007260:	1961      	adds	r1, r4, r5
 8007262:	42a3      	cmp	r3, r4
 8007264:	6025      	str	r5, [r4, #0]
 8007266:	bf18      	it	ne
 8007268:	6059      	strne	r1, [r3, #4]
 800726a:	6863      	ldr	r3, [r4, #4]
 800726c:	bf08      	it	eq
 800726e:	6031      	streq	r1, [r6, #0]
 8007270:	5162      	str	r2, [r4, r5]
 8007272:	604b      	str	r3, [r1, #4]
 8007274:	4638      	mov	r0, r7
 8007276:	f104 060b 	add.w	r6, r4, #11
 800727a:	f001 fecf 	bl	800901c <__malloc_unlock>
 800727e:	f026 0607 	bic.w	r6, r6, #7
 8007282:	1d23      	adds	r3, r4, #4
 8007284:	1af2      	subs	r2, r6, r3
 8007286:	d0b6      	beq.n	80071f6 <_malloc_r+0x22>
 8007288:	1b9b      	subs	r3, r3, r6
 800728a:	50a3      	str	r3, [r4, r2]
 800728c:	e7b3      	b.n	80071f6 <_malloc_r+0x22>
 800728e:	6862      	ldr	r2, [r4, #4]
 8007290:	42a3      	cmp	r3, r4
 8007292:	bf0c      	ite	eq
 8007294:	6032      	streq	r2, [r6, #0]
 8007296:	605a      	strne	r2, [r3, #4]
 8007298:	e7ec      	b.n	8007274 <_malloc_r+0xa0>
 800729a:	4623      	mov	r3, r4
 800729c:	6864      	ldr	r4, [r4, #4]
 800729e:	e7b2      	b.n	8007206 <_malloc_r+0x32>
 80072a0:	4634      	mov	r4, r6
 80072a2:	6876      	ldr	r6, [r6, #4]
 80072a4:	e7b9      	b.n	800721a <_malloc_r+0x46>
 80072a6:	230c      	movs	r3, #12
 80072a8:	603b      	str	r3, [r7, #0]
 80072aa:	4638      	mov	r0, r7
 80072ac:	f001 feb6 	bl	800901c <__malloc_unlock>
 80072b0:	e7a1      	b.n	80071f6 <_malloc_r+0x22>
 80072b2:	6025      	str	r5, [r4, #0]
 80072b4:	e7de      	b.n	8007274 <_malloc_r+0xa0>
 80072b6:	bf00      	nop
 80072b8:	200006fc 	.word	0x200006fc

080072bc <__cvt>:
 80072bc:	e92d 47ff 	stmdb	sp!, {r0, r1, r2, r3, r4, r5, r6, r7, r8, r9, sl, lr}
 80072c0:	ec55 4b10 	vmov	r4, r5, d0
 80072c4:	2d00      	cmp	r5, #0
 80072c6:	460e      	mov	r6, r1
 80072c8:	4619      	mov	r1, r3
 80072ca:	462b      	mov	r3, r5
 80072cc:	bfbb      	ittet	lt
 80072ce:	f105 4300 	addlt.w	r3, r5, #2147483648	; 0x80000000
 80072d2:	461d      	movlt	r5, r3
 80072d4:	2300      	movge	r3, #0
 80072d6:	232d      	movlt	r3, #45	; 0x2d
 80072d8:	700b      	strb	r3, [r1, #0]
 80072da:	9b0d      	ldr	r3, [sp, #52]	; 0x34
 80072dc:	f8dd a030 	ldr.w	sl, [sp, #48]	; 0x30
 80072e0:	4691      	mov	r9, r2
 80072e2:	f023 0820 	bic.w	r8, r3, #32
 80072e6:	bfbc      	itt	lt
 80072e8:	4622      	movlt	r2, r4
 80072ea:	4614      	movlt	r4, r2
 80072ec:	f1b8 0f46 	cmp.w	r8, #70	; 0x46
 80072f0:	d005      	beq.n	80072fe <__cvt+0x42>
 80072f2:	f1b8 0f45 	cmp.w	r8, #69	; 0x45
 80072f6:	d100      	bne.n	80072fa <__cvt+0x3e>
 80072f8:	3601      	adds	r6, #1
 80072fa:	2102      	movs	r1, #2
 80072fc:	e000      	b.n	8007300 <__cvt+0x44>
 80072fe:	2103      	movs	r1, #3
 8007300:	ab03      	add	r3, sp, #12
 8007302:	9301      	str	r3, [sp, #4]
 8007304:	ab02      	add	r3, sp, #8
 8007306:	9300      	str	r3, [sp, #0]
 8007308:	ec45 4b10 	vmov	d0, r4, r5
 800730c:	4653      	mov	r3, sl
 800730e:	4632      	mov	r2, r6
 8007310:	f000 fe5e 	bl	8007fd0 <_dtoa_r>
 8007314:	f1b8 0f47 	cmp.w	r8, #71	; 0x47
 8007318:	4607      	mov	r7, r0
 800731a:	d102      	bne.n	8007322 <__cvt+0x66>
 800731c:	f019 0f01 	tst.w	r9, #1
 8007320:	d022      	beq.n	8007368 <__cvt+0xac>
 8007322:	f1b8 0f46 	cmp.w	r8, #70	; 0x46
 8007326:	eb07 0906 	add.w	r9, r7, r6
 800732a:	d110      	bne.n	800734e <__cvt+0x92>
 800732c:	783b      	ldrb	r3, [r7, #0]
 800732e:	2b30      	cmp	r3, #48	; 0x30
 8007330:	d10a      	bne.n	8007348 <__cvt+0x8c>
 8007332:	2200      	movs	r2, #0
 8007334:	2300      	movs	r3, #0
 8007336:	4620      	mov	r0, r4
 8007338:	4629      	mov	r1, r5
 800733a:	f7f9 fbcd 	bl	8000ad8 <__aeabi_dcmpeq>
 800733e:	b918      	cbnz	r0, 8007348 <__cvt+0x8c>
 8007340:	f1c6 0601 	rsb	r6, r6, #1
 8007344:	f8ca 6000 	str.w	r6, [sl]
 8007348:	f8da 3000 	ldr.w	r3, [sl]
 800734c:	4499      	add	r9, r3
 800734e:	2200      	movs	r2, #0
 8007350:	2300      	movs	r3, #0
 8007352:	4620      	mov	r0, r4
 8007354:	4629      	mov	r1, r5
 8007356:	f7f9 fbbf 	bl	8000ad8 <__aeabi_dcmpeq>
 800735a:	b108      	cbz	r0, 8007360 <__cvt+0xa4>
 800735c:	f8cd 900c 	str.w	r9, [sp, #12]
 8007360:	2230      	movs	r2, #48	; 0x30
 8007362:	9b03      	ldr	r3, [sp, #12]
 8007364:	454b      	cmp	r3, r9
 8007366:	d307      	bcc.n	8007378 <__cvt+0xbc>
 8007368:	9b03      	ldr	r3, [sp, #12]
 800736a:	9a0e      	ldr	r2, [sp, #56]	; 0x38
 800736c:	1bdb      	subs	r3, r3, r7
 800736e:	4638      	mov	r0, r7
 8007370:	6013      	str	r3, [r2, #0]
 8007372:	b004      	add	sp, #16
 8007374:	e8bd 87f0 	ldmia.w	sp!, {r4, r5, r6, r7, r8, r9, sl, pc}
 8007378:	1c59      	adds	r1, r3, #1
 800737a:	9103      	str	r1, [sp, #12]
 800737c:	701a      	strb	r2, [r3, #0]
 800737e:	e7f0      	b.n	8007362 <__cvt+0xa6>

08007380 <__exponent>:
 8007380:	b5f7      	push	{r0, r1, r2, r4, r5, r6, r7, lr}
 8007382:	4603      	mov	r3, r0
 8007384:	2900      	cmp	r1, #0
 8007386:	bfb8      	it	lt
 8007388:	4249      	neglt	r1, r1
 800738a:	f803 2b02 	strb.w	r2, [r3], #2
 800738e:	bfb4      	ite	lt
 8007390:	222d      	movlt	r2, #45	; 0x2d
 8007392:	222b      	movge	r2, #43	; 0x2b
 8007394:	2909      	cmp	r1, #9
 8007396:	7042      	strb	r2, [r0, #1]
 8007398:	dd2a      	ble.n	80073f0 <__exponent+0x70>
 800739a:	f10d 0407 	add.w	r4, sp, #7
 800739e:	46a4      	mov	ip, r4
 80073a0:	270a      	movs	r7, #10
 80073a2:	46a6      	mov	lr, r4
 80073a4:	460a      	mov	r2, r1
 80073a6:	fb91 f6f7 	sdiv	r6, r1, r7
 80073aa:	fb07 1516 	mls	r5, r7, r6, r1
 80073ae:	3530      	adds	r5, #48	; 0x30
 80073b0:	2a63      	cmp	r2, #99	; 0x63
 80073b2:	f104 34ff 	add.w	r4, r4, #4294967295
 80073b6:	f80e 5c01 	strb.w	r5, [lr, #-1]
 80073ba:	4631      	mov	r1, r6
 80073bc:	dcf1      	bgt.n	80073a2 <__exponent+0x22>
 80073be:	3130      	adds	r1, #48	; 0x30
 80073c0:	f1ae 0502 	sub.w	r5, lr, #2
 80073c4:	f804 1c01 	strb.w	r1, [r4, #-1]
 80073c8:	1c44      	adds	r4, r0, #1
 80073ca:	4629      	mov	r1, r5
 80073cc:	4561      	cmp	r1, ip
 80073ce:	d30a      	bcc.n	80073e6 <__exponent+0x66>
 80073d0:	f10d 0209 	add.w	r2, sp, #9
 80073d4:	eba2 020e 	sub.w	r2, r2, lr
 80073d8:	4565      	cmp	r5, ip
 80073da:	bf88      	it	hi
 80073dc:	2200      	movhi	r2, #0
 80073de:	4413      	add	r3, r2
 80073e0:	1a18      	subs	r0, r3, r0
 80073e2:	b003      	add	sp, #12
 80073e4:	bdf0      	pop	{r4, r5, r6, r7, pc}
 80073e6:	f811 2b01 	ldrb.w	r2, [r1], #1
 80073ea:	f804 2f01 	strb.w	r2, [r4, #1]!
 80073ee:	e7ed      	b.n	80073cc <__exponent+0x4c>
 80073f0:	2330      	movs	r3, #48	; 0x30
 80073f2:	3130      	adds	r1, #48	; 0x30
 80073f4:	7083      	strb	r3, [r0, #2]
 80073f6:	70c1      	strb	r1, [r0, #3]
 80073f8:	1d03      	adds	r3, r0, #4
 80073fa:	e7f1      	b.n	80073e0 <__exponent+0x60>

080073fc <_printf_float>:
 80073fc:	e92d 4ff0 	stmdb	sp!, {r4, r5, r6, r7, r8, r9, sl, fp, lr}
 8007400:	ed2d 8b02 	vpush	{d8}
 8007404:	b08d      	sub	sp, #52	; 0x34
 8007406:	460c      	mov	r4, r1
 8007408:	f8dd 8060 	ldr.w	r8, [sp, #96]	; 0x60
 800740c:	4616      	mov	r6, r2
 800740e:	461f      	mov	r7, r3
 8007410:	4605      	mov	r5, r0
 8007412:	f001 fd83 	bl	8008f1c <_localeconv_r>
 8007416:	f8d0 a000 	ldr.w	sl, [r0]
 800741a:	4650      	mov	r0, sl
 800741c:	f7f8 fee0 	bl	80001e0 <strlen>
 8007420:	2300      	movs	r3, #0
 8007422:	930a      	str	r3, [sp, #40]	; 0x28
 8007424:	6823      	ldr	r3, [r4, #0]
 8007426:	9305      	str	r3, [sp, #20]
 8007428:	f8d8 3000 	ldr.w	r3, [r8]
 800742c:	f894 b018 	ldrb.w	fp, [r4, #24]
 8007430:	3307      	adds	r3, #7
 8007432:	f023 0307 	bic.w	r3, r3, #7
 8007436:	f103 0208 	add.w	r2, r3, #8
 800743a:	f8c8 2000 	str.w	r2, [r8]
 800743e:	e9d3 2300 	ldrd	r2, r3, [r3]
 8007442:	e9c4 2312 	strd	r2, r3, [r4, #72]	; 0x48
 8007446:	e9d4 8912 	ldrd	r8, r9, [r4, #72]	; 0x48
 800744a:	f029 4300 	bic.w	r3, r9, #2147483648	; 0x80000000
 800744e:	9307      	str	r3, [sp, #28]
 8007450:	f8cd 8018 	str.w	r8, [sp, #24]
 8007454:	ee08 0a10 	vmov	s16, r0
 8007458:	4b9f      	ldr	r3, [pc, #636]	; (80076d8 <_printf_float+0x2dc>)
 800745a:	e9dd 0106 	ldrd	r0, r1, [sp, #24]
 800745e:	f04f 32ff 	mov.w	r2, #4294967295
 8007462:	f7f9 fb6b 	bl	8000b3c <__aeabi_dcmpun>
 8007466:	bb88      	cbnz	r0, 80074cc <_printf_float+0xd0>
 8007468:	e9dd 0106 	ldrd	r0, r1, [sp, #24]
 800746c:	4b9a      	ldr	r3, [pc, #616]	; (80076d8 <_printf_float+0x2dc>)
 800746e:	f04f 32ff 	mov.w	r2, #4294967295
 8007472:	f7f9 fb45 	bl	8000b00 <__aeabi_dcmple>
 8007476:	bb48      	cbnz	r0, 80074cc <_printf_float+0xd0>
 8007478:	2200      	movs	r2, #0
 800747a:	2300      	movs	r3, #0
 800747c:	4640      	mov	r0, r8
 800747e:	4649      	mov	r1, r9
 8007480:	f7f9 fb34 	bl	8000aec <__aeabi_dcmplt>
 8007484:	b110      	cbz	r0, 800748c <_printf_float+0x90>
 8007486:	232d      	movs	r3, #45	; 0x2d
 8007488:	f884 3043 	strb.w	r3, [r4, #67]	; 0x43
 800748c:	4b93      	ldr	r3, [pc, #588]	; (80076dc <_printf_float+0x2e0>)
 800748e:	4894      	ldr	r0, [pc, #592]	; (80076e0 <_printf_float+0x2e4>)
 8007490:	f1bb 0f47 	cmp.w	fp, #71	; 0x47
 8007494:	bf94      	ite	ls
 8007496:	4698      	movls	r8, r3
 8007498:	4680      	movhi	r8, r0
 800749a:	2303      	movs	r3, #3
 800749c:	6123      	str	r3, [r4, #16]
 800749e:	9b05      	ldr	r3, [sp, #20]
 80074a0:	f023 0204 	bic.w	r2, r3, #4
 80074a4:	6022      	str	r2, [r4, #0]
 80074a6:	f04f 0900 	mov.w	r9, #0
 80074aa:	9700      	str	r7, [sp, #0]
 80074ac:	4633      	mov	r3, r6
 80074ae:	aa0b      	add	r2, sp, #44	; 0x2c
 80074b0:	4621      	mov	r1, r4
 80074b2:	4628      	mov	r0, r5
 80074b4:	f000 f9d8 	bl	8007868 <_printf_common>
 80074b8:	3001      	adds	r0, #1
 80074ba:	f040 8090 	bne.w	80075de <_printf_float+0x1e2>
 80074be:	f04f 30ff 	mov.w	r0, #4294967295
 80074c2:	b00d      	add	sp, #52	; 0x34
 80074c4:	ecbd 8b02 	vpop	{d8}
 80074c8:	e8bd 8ff0 	ldmia.w	sp!, {r4, r5, r6, r7, r8, r9, sl, fp, pc}
 80074cc:	4642      	mov	r2, r8
 80074ce:	464b      	mov	r3, r9
 80074d0:	4640      	mov	r0, r8
 80074d2:	4649      	mov	r1, r9
 80074d4:	f7f9 fb32 	bl	8000b3c <__aeabi_dcmpun>
 80074d8:	b140      	cbz	r0, 80074ec <_printf_float+0xf0>
 80074da:	464b      	mov	r3, r9
 80074dc:	2b00      	cmp	r3, #0
 80074de:	bfbc      	itt	lt
 80074e0:	232d      	movlt	r3, #45	; 0x2d
 80074e2:	f884 3043 	strblt.w	r3, [r4, #67]	; 0x43
 80074e6:	487f      	ldr	r0, [pc, #508]	; (80076e4 <_printf_float+0x2e8>)
 80074e8:	4b7f      	ldr	r3, [pc, #508]	; (80076e8 <_printf_float+0x2ec>)
 80074ea:	e7d1      	b.n	8007490 <_printf_float+0x94>
 80074ec:	6863      	ldr	r3, [r4, #4]
 80074ee:	f00b 02df 	and.w	r2, fp, #223	; 0xdf
 80074f2:	9206      	str	r2, [sp, #24]
 80074f4:	1c5a      	adds	r2, r3, #1
 80074f6:	d13f      	bne.n	8007578 <_printf_float+0x17c>
 80074f8:	2306      	movs	r3, #6
 80074fa:	6063      	str	r3, [r4, #4]
 80074fc:	9b05      	ldr	r3, [sp, #20]
 80074fe:	6861      	ldr	r1, [r4, #4]
 8007500:	f443 6280 	orr.w	r2, r3, #1024	; 0x400
 8007504:	2300      	movs	r3, #0
 8007506:	9303      	str	r3, [sp, #12]
 8007508:	ab0a      	add	r3, sp, #40	; 0x28
 800750a:	e9cd b301 	strd	fp, r3, [sp, #4]
 800750e:	ab09      	add	r3, sp, #36	; 0x24
 8007510:	ec49 8b10 	vmov	d0, r8, r9
 8007514:	9300      	str	r3, [sp, #0]
 8007516:	6022      	str	r2, [r4, #0]
 8007518:	f10d 0323 	add.w	r3, sp, #35	; 0x23
 800751c:	4628      	mov	r0, r5
 800751e:	f7ff fecd 	bl	80072bc <__cvt>
 8007522:	9b06      	ldr	r3, [sp, #24]
 8007524:	9909      	ldr	r1, [sp, #36]	; 0x24
 8007526:	2b47      	cmp	r3, #71	; 0x47
 8007528:	4680      	mov	r8, r0
 800752a:	d108      	bne.n	800753e <_printf_float+0x142>
 800752c:	1cc8      	adds	r0, r1, #3
 800752e:	db02      	blt.n	8007536 <_printf_float+0x13a>
 8007530:	6863      	ldr	r3, [r4, #4]
 8007532:	4299      	cmp	r1, r3
 8007534:	dd41      	ble.n	80075ba <_printf_float+0x1be>
 8007536:	f1ab 0b02 	sub.w	fp, fp, #2
 800753a:	fa5f fb8b 	uxtb.w	fp, fp
 800753e:	f1bb 0f65 	cmp.w	fp, #101	; 0x65
 8007542:	d820      	bhi.n	8007586 <_printf_float+0x18a>
 8007544:	3901      	subs	r1, #1
 8007546:	465a      	mov	r2, fp
 8007548:	f104 0050 	add.w	r0, r4, #80	; 0x50
 800754c:	9109      	str	r1, [sp, #36]	; 0x24
 800754e:	f7ff ff17 	bl	8007380 <__exponent>
 8007552:	9a0a      	ldr	r2, [sp, #40]	; 0x28
 8007554:	1813      	adds	r3, r2, r0
 8007556:	2a01      	cmp	r2, #1
 8007558:	4681      	mov	r9, r0
 800755a:	6123      	str	r3, [r4, #16]
 800755c:	dc02      	bgt.n	8007564 <_printf_float+0x168>
 800755e:	6822      	ldr	r2, [r4, #0]
 8007560:	07d2      	lsls	r2, r2, #31
 8007562:	d501      	bpl.n	8007568 <_printf_float+0x16c>
 8007564:	3301      	adds	r3, #1
 8007566:	6123      	str	r3, [r4, #16]
 8007568:	f89d 3023 	ldrb.w	r3, [sp, #35]	; 0x23
 800756c:	2b00      	cmp	r3, #0
 800756e:	d09c      	beq.n	80074aa <_printf_float+0xae>
 8007570:	232d      	movs	r3, #45	; 0x2d
 8007572:	f884 3043 	strb.w	r3, [r4, #67]	; 0x43
 8007576:	e798      	b.n	80074aa <_printf_float+0xae>
 8007578:	9a06      	ldr	r2, [sp, #24]
 800757a:	2a47      	cmp	r2, #71	; 0x47
 800757c:	d1be      	bne.n	80074fc <_printf_float+0x100>
 800757e:	2b00      	cmp	r3, #0
 8007580:	d1bc      	bne.n	80074fc <_printf_float+0x100>
 8007582:	2301      	movs	r3, #1
 8007584:	e7b9      	b.n	80074fa <_printf_float+0xfe>
 8007586:	f1bb 0f66 	cmp.w	fp, #102	; 0x66
 800758a:	d118      	bne.n	80075be <_printf_float+0x1c2>
 800758c:	2900      	cmp	r1, #0
 800758e:	6863      	ldr	r3, [r4, #4]
 8007590:	dd0b      	ble.n	80075aa <_printf_float+0x1ae>
 8007592:	6121      	str	r1, [r4, #16]
 8007594:	b913      	cbnz	r3, 800759c <_printf_float+0x1a0>
 8007596:	6822      	ldr	r2, [r4, #0]
 8007598:	07d0      	lsls	r0, r2, #31
 800759a:	d502      	bpl.n	80075a2 <_printf_float+0x1a6>
 800759c:	3301      	adds	r3, #1
 800759e:	440b      	add	r3, r1
 80075a0:	6123      	str	r3, [r4, #16]
 80075a2:	65a1      	str	r1, [r4, #88]	; 0x58
 80075a4:	f04f 0900 	mov.w	r9, #0
 80075a8:	e7de      	b.n	8007568 <_printf_float+0x16c>
 80075aa:	b913      	cbnz	r3, 80075b2 <_printf_float+0x1b6>
 80075ac:	6822      	ldr	r2, [r4, #0]
 80075ae:	07d2      	lsls	r2, r2, #31
 80075b0:	d501      	bpl.n	80075b6 <_printf_float+0x1ba>
 80075b2:	3302      	adds	r3, #2
 80075b4:	e7f4      	b.n	80075a0 <_printf_float+0x1a4>
 80075b6:	2301      	movs	r3, #1
 80075b8:	e7f2      	b.n	80075a0 <_printf_float+0x1a4>
 80075ba:	f04f 0b67 	mov.w	fp, #103	; 0x67
 80075be:	9b0a      	ldr	r3, [sp, #40]	; 0x28
 80075c0:	4299      	cmp	r1, r3
 80075c2:	db05      	blt.n	80075d0 <_printf_float+0x1d4>
 80075c4:	6823      	ldr	r3, [r4, #0]
 80075c6:	6121      	str	r1, [r4, #16]
 80075c8:	07d8      	lsls	r0, r3, #31
 80075ca:	d5ea      	bpl.n	80075a2 <_printf_float+0x1a6>
 80075cc:	1c4b      	adds	r3, r1, #1
 80075ce:	e7e7      	b.n	80075a0 <_printf_float+0x1a4>
 80075d0:	2900      	cmp	r1, #0
 80075d2:	bfd4      	ite	le
 80075d4:	f1c1 0202 	rsble	r2, r1, #2
 80075d8:	2201      	movgt	r2, #1
 80075da:	4413      	add	r3, r2
 80075dc:	e7e0      	b.n	80075a0 <_printf_float+0x1a4>
 80075de:	6823      	ldr	r3, [r4, #0]
 80075e0:	055a      	lsls	r2, r3, #21
 80075e2:	d407      	bmi.n	80075f4 <_printf_float+0x1f8>
 80075e4:	6923      	ldr	r3, [r4, #16]
 80075e6:	4642      	mov	r2, r8
 80075e8:	4631      	mov	r1, r6
 80075ea:	4628      	mov	r0, r5
 80075ec:	47b8      	blx	r7
 80075ee:	3001      	adds	r0, #1
 80075f0:	d12c      	bne.n	800764c <_printf_float+0x250>
 80075f2:	e764      	b.n	80074be <_printf_float+0xc2>
 80075f4:	f1bb 0f65 	cmp.w	fp, #101	; 0x65
 80075f8:	f240 80e0 	bls.w	80077bc <_printf_float+0x3c0>
 80075fc:	e9d4 0112 	ldrd	r0, r1, [r4, #72]	; 0x48
 8007600:	2200      	movs	r2, #0
 8007602:	2300      	movs	r3, #0
 8007604:	f7f9 fa68 	bl	8000ad8 <__aeabi_dcmpeq>
 8007608:	2800      	cmp	r0, #0
 800760a:	d034      	beq.n	8007676 <_printf_float+0x27a>
 800760c:	4a37      	ldr	r2, [pc, #220]	; (80076ec <_printf_float+0x2f0>)
 800760e:	2301      	movs	r3, #1
 8007610:	4631      	mov	r1, r6
 8007612:	4628      	mov	r0, r5
 8007614:	47b8      	blx	r7
 8007616:	3001      	adds	r0, #1
 8007618:	f43f af51 	beq.w	80074be <_printf_float+0xc2>
 800761c:	e9dd 2309 	ldrd	r2, r3, [sp, #36]	; 0x24
 8007620:	429a      	cmp	r2, r3
 8007622:	db02      	blt.n	800762a <_printf_float+0x22e>
 8007624:	6823      	ldr	r3, [r4, #0]
 8007626:	07d8      	lsls	r0, r3, #31
 8007628:	d510      	bpl.n	800764c <_printf_float+0x250>
 800762a:	ee18 3a10 	vmov	r3, s16
 800762e:	4652      	mov	r2, sl
 8007630:	4631      	mov	r1, r6
 8007632:	4628      	mov	r0, r5
 8007634:	47b8      	blx	r7
 8007636:	3001      	adds	r0, #1
 8007638:	f43f af41 	beq.w	80074be <_printf_float+0xc2>
 800763c:	f04f 0800 	mov.w	r8, #0
 8007640:	f104 091a 	add.w	r9, r4, #26
 8007644:	9b0a      	ldr	r3, [sp, #40]	; 0x28
 8007646:	3b01      	subs	r3, #1
 8007648:	4543      	cmp	r3, r8
 800764a:	dc09      	bgt.n	8007660 <_printf_float+0x264>
 800764c:	6823      	ldr	r3, [r4, #0]
 800764e:	079b      	lsls	r3, r3, #30
 8007650:	f100 8105 	bmi.w	800785e <_printf_float+0x462>
 8007654:	68e0      	ldr	r0, [r4, #12]
 8007656:	9b0b      	ldr	r3, [sp, #44]	; 0x2c
 8007658:	4298      	cmp	r0, r3
 800765a:	bfb8      	it	lt
 800765c:	4618      	movlt	r0, r3
 800765e:	e730      	b.n	80074c2 <_printf_float+0xc6>
 8007660:	2301      	movs	r3, #1
 8007662:	464a      	mov	r2, r9
 8007664:	4631      	mov	r1, r6
 8007666:	4628      	mov	r0, r5
 8007668:	47b8      	blx	r7
 800766a:	3001      	adds	r0, #1
 800766c:	f43f af27 	beq.w	80074be <_printf_float+0xc2>
 8007670:	f108 0801 	add.w	r8, r8, #1
 8007674:	e7e6      	b.n	8007644 <_printf_float+0x248>
 8007676:	9b09      	ldr	r3, [sp, #36]	; 0x24
 8007678:	2b00      	cmp	r3, #0
 800767a:	dc39      	bgt.n	80076f0 <_printf_float+0x2f4>
 800767c:	4a1b      	ldr	r2, [pc, #108]	; (80076ec <_printf_float+0x2f0>)
 800767e:	2301      	movs	r3, #1
 8007680:	4631      	mov	r1, r6
 8007682:	4628      	mov	r0, r5
 8007684:	47b8      	blx	r7
 8007686:	3001      	adds	r0, #1
 8007688:	f43f af19 	beq.w	80074be <_printf_float+0xc2>
 800768c:	e9dd 2309 	ldrd	r2, r3, [sp, #36]	; 0x24
 8007690:	4313      	orrs	r3, r2
 8007692:	d102      	bne.n	800769a <_printf_float+0x29e>
 8007694:	6823      	ldr	r3, [r4, #0]
 8007696:	07d9      	lsls	r1, r3, #31
 8007698:	d5d8      	bpl.n	800764c <_printf_float+0x250>
 800769a:	ee18 3a10 	vmov	r3, s16
 800769e:	4652      	mov	r2, sl
 80076a0:	4631      	mov	r1, r6
 80076a2:	4628      	mov	r0, r5
 80076a4:	47b8      	blx	r7
 80076a6:	3001      	adds	r0, #1
 80076a8:	f43f af09 	beq.w	80074be <_printf_float+0xc2>
 80076ac:	f04f 0900 	mov.w	r9, #0
 80076b0:	f104 0a1a 	add.w	sl, r4, #26
 80076b4:	9b09      	ldr	r3, [sp, #36]	; 0x24
 80076b6:	425b      	negs	r3, r3
 80076b8:	454b      	cmp	r3, r9
 80076ba:	dc01      	bgt.n	80076c0 <_printf_float+0x2c4>
 80076bc:	9b0a      	ldr	r3, [sp, #40]	; 0x28
 80076be:	e792      	b.n	80075e6 <_printf_float+0x1ea>
 80076c0:	2301      	movs	r3, #1
 80076c2:	4652      	mov	r2, sl
 80076c4:	4631      	mov	r1, r6
 80076c6:	4628      	mov	r0, r5
 80076c8:	47b8      	blx	r7
 80076ca:	3001      	adds	r0, #1
 80076cc:	f43f aef7 	beq.w	80074be <_printf_float+0xc2>
 80076d0:	f109 0901 	add.w	r9, r9, #1
 80076d4:	e7ee      	b.n	80076b4 <_printf_float+0x2b8>
 80076d6:	bf00      	nop
 80076d8:	7fefffff 	.word	0x7fefffff
 80076dc:	0800a234 	.word	0x0800a234
 80076e0:	0800a238 	.word	0x0800a238
 80076e4:	0800a240 	.word	0x0800a240
 80076e8:	0800a23c 	.word	0x0800a23c
 80076ec:	0800a244 	.word	0x0800a244
 80076f0:	9a0a      	ldr	r2, [sp, #40]	; 0x28
 80076f2:	6da3      	ldr	r3, [r4, #88]	; 0x58
 80076f4:	429a      	cmp	r2, r3
 80076f6:	bfa8      	it	ge
 80076f8:	461a      	movge	r2, r3
 80076fa:	2a00      	cmp	r2, #0
 80076fc:	4691      	mov	r9, r2
 80076fe:	dc37      	bgt.n	8007770 <_printf_float+0x374>
 8007700:	f04f 0b00 	mov.w	fp, #0
 8007704:	ea29 79e9 	bic.w	r9, r9, r9, asr #31
 8007708:	f104 021a 	add.w	r2, r4, #26
 800770c:	6da3      	ldr	r3, [r4, #88]	; 0x58
 800770e:	9305      	str	r3, [sp, #20]
 8007710:	eba3 0309 	sub.w	r3, r3, r9
 8007714:	455b      	cmp	r3, fp
 8007716:	dc33      	bgt.n	8007780 <_printf_float+0x384>
 8007718:	e9dd 2309 	ldrd	r2, r3, [sp, #36]	; 0x24
 800771c:	429a      	cmp	r2, r3
 800771e:	db3b      	blt.n	8007798 <_printf_float+0x39c>
 8007720:	6823      	ldr	r3, [r4, #0]
 8007722:	07da      	lsls	r2, r3, #31
 8007724:	d438      	bmi.n	8007798 <_printf_float+0x39c>
 8007726:	9b0a      	ldr	r3, [sp, #40]	; 0x28
 8007728:	9a05      	ldr	r2, [sp, #20]
 800772a:	9909      	ldr	r1, [sp, #36]	; 0x24
 800772c:	1a9a      	subs	r2, r3, r2
 800772e:	eba3 0901 	sub.w	r9, r3, r1
 8007732:	4591      	cmp	r9, r2
 8007734:	bfa8      	it	ge
 8007736:	4691      	movge	r9, r2
 8007738:	f1b9 0f00 	cmp.w	r9, #0
 800773c:	dc35      	bgt.n	80077aa <_printf_float+0x3ae>
 800773e:	f04f 0800 	mov.w	r8, #0
 8007742:	ea29 79e9 	bic.w	r9, r9, r9, asr #31
 8007746:	f104 0a1a 	add.w	sl, r4, #26
 800774a:	e9dd 2309 	ldrd	r2, r3, [sp, #36]	; 0x24
 800774e:	1a9b      	subs	r3, r3, r2
 8007750:	eba3 0309 	sub.w	r3, r3, r9
 8007754:	4543      	cmp	r3, r8
 8007756:	f77f af79 	ble.w	800764c <_printf_float+0x250>
 800775a:	2301      	movs	r3, #1
 800775c:	4652      	mov	r2, sl
 800775e:	4631      	mov	r1, r6
 8007760:	4628      	mov	r0, r5
 8007762:	47b8      	blx	r7
 8007764:	3001      	adds	r0, #1
 8007766:	f43f aeaa 	beq.w	80074be <_printf_float+0xc2>
 800776a:	f108 0801 	add.w	r8, r8, #1
 800776e:	e7ec      	b.n	800774a <_printf_float+0x34e>
 8007770:	4613      	mov	r3, r2
 8007772:	4631      	mov	r1, r6
 8007774:	4642      	mov	r2, r8
 8007776:	4628      	mov	r0, r5
 8007778:	47b8      	blx	r7
 800777a:	3001      	adds	r0, #1
 800777c:	d1c0      	bne.n	8007700 <_printf_float+0x304>
 800777e:	e69e      	b.n	80074be <_printf_float+0xc2>
 8007780:	2301      	movs	r3, #1
 8007782:	4631      	mov	r1, r6
 8007784:	4628      	mov	r0, r5
 8007786:	9205      	str	r2, [sp, #20]
 8007788:	47b8      	blx	r7
 800778a:	3001      	adds	r0, #1
 800778c:	f43f ae97 	beq.w	80074be <_printf_float+0xc2>
 8007790:	9a05      	ldr	r2, [sp, #20]
 8007792:	f10b 0b01 	add.w	fp, fp, #1
 8007796:	e7b9      	b.n	800770c <_printf_float+0x310>
 8007798:	ee18 3a10 	vmov	r3, s16
 800779c:	4652      	mov	r2, sl
 800779e:	4631      	mov	r1, r6
 80077a0:	4628      	mov	r0, r5
 80077a2:	47b8      	blx	r7
 80077a4:	3001      	adds	r0, #1
 80077a6:	d1be      	bne.n	8007726 <_printf_float+0x32a>
 80077a8:	e689      	b.n	80074be <_printf_float+0xc2>
 80077aa:	9a05      	ldr	r2, [sp, #20]
 80077ac:	464b      	mov	r3, r9
 80077ae:	4442      	add	r2, r8
 80077b0:	4631      	mov	r1, r6
 80077b2:	4628      	mov	r0, r5
 80077b4:	47b8      	blx	r7
 80077b6:	3001      	adds	r0, #1
 80077b8:	d1c1      	bne.n	800773e <_printf_float+0x342>
 80077ba:	e680      	b.n	80074be <_printf_float+0xc2>
 80077bc:	9a0a      	ldr	r2, [sp, #40]	; 0x28
 80077be:	2a01      	cmp	r2, #1
 80077c0:	dc01      	bgt.n	80077c6 <_printf_float+0x3ca>
 80077c2:	07db      	lsls	r3, r3, #31
 80077c4:	d538      	bpl.n	8007838 <_printf_float+0x43c>
 80077c6:	2301      	movs	r3, #1
 80077c8:	4642      	mov	r2, r8
 80077ca:	4631      	mov	r1, r6
 80077cc:	4628      	mov	r0, r5
 80077ce:	47b8      	blx	r7
 80077d0:	3001      	adds	r0, #1
 80077d2:	f43f ae74 	beq.w	80074be <_printf_float+0xc2>
 80077d6:	ee18 3a10 	vmov	r3, s16
 80077da:	4652      	mov	r2, sl
 80077dc:	4631      	mov	r1, r6
 80077de:	4628      	mov	r0, r5
 80077e0:	47b8      	blx	r7
 80077e2:	3001      	adds	r0, #1
 80077e4:	f43f ae6b 	beq.w	80074be <_printf_float+0xc2>
 80077e8:	e9d4 0112 	ldrd	r0, r1, [r4, #72]	; 0x48
 80077ec:	2200      	movs	r2, #0
 80077ee:	2300      	movs	r3, #0
 80077f0:	f7f9 f972 	bl	8000ad8 <__aeabi_dcmpeq>
 80077f4:	b9d8      	cbnz	r0, 800782e <_printf_float+0x432>
 80077f6:	9b0a      	ldr	r3, [sp, #40]	; 0x28
 80077f8:	f108 0201 	add.w	r2, r8, #1
 80077fc:	3b01      	subs	r3, #1
 80077fe:	4631      	mov	r1, r6
 8007800:	4628      	mov	r0, r5
 8007802:	47b8      	blx	r7
 8007804:	3001      	adds	r0, #1
 8007806:	d10e      	bne.n	8007826 <_printf_float+0x42a>
 8007808:	e659      	b.n	80074be <_printf_float+0xc2>
 800780a:	2301      	movs	r3, #1
 800780c:	4652      	mov	r2, sl
 800780e:	4631      	mov	r1, r6
 8007810:	4628      	mov	r0, r5
 8007812:	47b8      	blx	r7
 8007814:	3001      	adds	r0, #1
 8007816:	f43f ae52 	beq.w	80074be <_printf_float+0xc2>
 800781a:	f108 0801 	add.w	r8, r8, #1
 800781e:	9b0a      	ldr	r3, [sp, #40]	; 0x28
 8007820:	3b01      	subs	r3, #1
 8007822:	4543      	cmp	r3, r8
 8007824:	dcf1      	bgt.n	800780a <_printf_float+0x40e>
 8007826:	464b      	mov	r3, r9
 8007828:	f104 0250 	add.w	r2, r4, #80	; 0x50
 800782c:	e6dc      	b.n	80075e8 <_printf_float+0x1ec>
 800782e:	f04f 0800 	mov.w	r8, #0
 8007832:	f104 0a1a 	add.w	sl, r4, #26
 8007836:	e7f2      	b.n	800781e <_printf_float+0x422>
 8007838:	2301      	movs	r3, #1
 800783a:	4642      	mov	r2, r8
 800783c:	e7df      	b.n	80077fe <_printf_float+0x402>
 800783e:	2301      	movs	r3, #1
 8007840:	464a      	mov	r2, r9
 8007842:	4631      	mov	r1, r6
 8007844:	4628      	mov	r0, r5
 8007846:	47b8      	blx	r7
 8007848:	3001      	adds	r0, #1
 800784a:	f43f ae38 	beq.w	80074be <_printf_float+0xc2>
 800784e:	f108 0801 	add.w	r8, r8, #1
 8007852:	68e3      	ldr	r3, [r4, #12]
 8007854:	990b      	ldr	r1, [sp, #44]	; 0x2c
 8007856:	1a5b      	subs	r3, r3, r1
 8007858:	4543      	cmp	r3, r8
 800785a:	dcf0      	bgt.n	800783e <_printf_float+0x442>
 800785c:	e6fa      	b.n	8007654 <_printf_float+0x258>
 800785e:	f04f 0800 	mov.w	r8, #0
 8007862:	f104 0919 	add.w	r9, r4, #25
 8007866:	e7f4      	b.n	8007852 <_printf_float+0x456>

08007868 <_printf_common>:
 8007868:	e92d 47f0 	stmdb	sp!, {r4, r5, r6, r7, r8, r9, sl, lr}
 800786c:	4616      	mov	r6, r2
 800786e:	4699      	mov	r9, r3
 8007870:	688a      	ldr	r2, [r1, #8]
 8007872:	690b      	ldr	r3, [r1, #16]
 8007874:	f8dd 8020 	ldr.w	r8, [sp, #32]
 8007878:	4293      	cmp	r3, r2
 800787a:	bfb8      	it	lt
 800787c:	4613      	movlt	r3, r2
 800787e:	6033      	str	r3, [r6, #0]
 8007880:	f891 2043 	ldrb.w	r2, [r1, #67]	; 0x43
 8007884:	4607      	mov	r7, r0
 8007886:	460c      	mov	r4, r1
 8007888:	b10a      	cbz	r2, 800788e <_printf_common+0x26>
 800788a:	3301      	adds	r3, #1
 800788c:	6033      	str	r3, [r6, #0]
 800788e:	6823      	ldr	r3, [r4, #0]
 8007890:	0699      	lsls	r1, r3, #26
 8007892:	bf42      	ittt	mi
 8007894:	6833      	ldrmi	r3, [r6, #0]
 8007896:	3302      	addmi	r3, #2
 8007898:	6033      	strmi	r3, [r6, #0]
 800789a:	6825      	ldr	r5, [r4, #0]
 800789c:	f015 0506 	ands.w	r5, r5, #6
 80078a0:	d106      	bne.n	80078b0 <_printf_common+0x48>
 80078a2:	f104 0a19 	add.w	sl, r4, #25
 80078a6:	68e3      	ldr	r3, [r4, #12]
 80078a8:	6832      	ldr	r2, [r6, #0]
 80078aa:	1a9b      	subs	r3, r3, r2
 80078ac:	42ab      	cmp	r3, r5
 80078ae:	dc26      	bgt.n	80078fe <_printf_common+0x96>
 80078b0:	f894 2043 	ldrb.w	r2, [r4, #67]	; 0x43
 80078b4:	1e13      	subs	r3, r2, #0
 80078b6:	6822      	ldr	r2, [r4, #0]
 80078b8:	bf18      	it	ne
 80078ba:	2301      	movne	r3, #1
 80078bc:	0692      	lsls	r2, r2, #26
 80078be:	d42b      	bmi.n	8007918 <_printf_common+0xb0>
 80078c0:	f104 0243 	add.w	r2, r4, #67	; 0x43
 80078c4:	4649      	mov	r1, r9
 80078c6:	4638      	mov	r0, r7
 80078c8:	47c0      	blx	r8
 80078ca:	3001      	adds	r0, #1
 80078cc:	d01e      	beq.n	800790c <_printf_common+0xa4>
 80078ce:	6823      	ldr	r3, [r4, #0]
 80078d0:	68e5      	ldr	r5, [r4, #12]
 80078d2:	6832      	ldr	r2, [r6, #0]
 80078d4:	f003 0306 	and.w	r3, r3, #6
 80078d8:	2b04      	cmp	r3, #4
 80078da:	bf08      	it	eq
 80078dc:	1aad      	subeq	r5, r5, r2
 80078de:	68a3      	ldr	r3, [r4, #8]
 80078e0:	6922      	ldr	r2, [r4, #16]
 80078e2:	bf0c      	ite	eq
 80078e4:	ea25 75e5 	biceq.w	r5, r5, r5, asr #31
 80078e8:	2500      	movne	r5, #0
 80078ea:	4293      	cmp	r3, r2
 80078ec:	bfc4      	itt	gt
 80078ee:	1a9b      	subgt	r3, r3, r2
 80078f0:	18ed      	addgt	r5, r5, r3
 80078f2:	2600      	movs	r6, #0
 80078f4:	341a      	adds	r4, #26
 80078f6:	42b5      	cmp	r5, r6
 80078f8:	d11a      	bne.n	8007930 <_printf_common+0xc8>
 80078fa:	2000      	movs	r0, #0
 80078fc:	e008      	b.n	8007910 <_printf_common+0xa8>
 80078fe:	2301      	movs	r3, #1
 8007900:	4652      	mov	r2, sl
 8007902:	4649      	mov	r1, r9
 8007904:	4638      	mov	r0, r7
 8007906:	47c0      	blx	r8
 8007908:	3001      	adds	r0, #1
 800790a:	d103      	bne.n	8007914 <_printf_common+0xac>
 800790c:	f04f 30ff 	mov.w	r0, #4294967295
 8007910:	e8bd 87f0 	ldmia.w	sp!, {r4, r5, r6, r7, r8, r9, sl, pc}
 8007914:	3501      	adds	r5, #1
 8007916:	e7c6      	b.n	80078a6 <_printf_common+0x3e>
 8007918:	18e1      	adds	r1, r4, r3
 800791a:	1c5a      	adds	r2, r3, #1
 800791c:	2030      	movs	r0, #48	; 0x30
 800791e:	f881 0043 	strb.w	r0, [r1, #67]	; 0x43
 8007922:	4422      	add	r2, r4
 8007924:	f894 1045 	ldrb.w	r1, [r4, #69]	; 0x45
 8007928:	f882 1043 	strb.w	r1, [r2, #67]	; 0x43
 800792c:	3302      	adds	r3, #2
 800792e:	e7c7      	b.n	80078c0 <_printf_common+0x58>
 8007930:	2301      	movs	r3, #1
 8007932:	4622      	mov	r2, r4
 8007934:	4649      	mov	r1, r9
 8007936:	4638      	mov	r0, r7
 8007938:	47c0      	blx	r8
 800793a:	3001      	adds	r0, #1
 800793c:	d0e6      	beq.n	800790c <_printf_common+0xa4>
 800793e:	3601      	adds	r6, #1
 8007940:	e7d9      	b.n	80078f6 <_printf_common+0x8e>
	...

08007944 <_printf_i>:
 8007944:	e92d 47ff 	stmdb	sp!, {r0, r1, r2, r3, r4, r5, r6, r7, r8, r9, sl, lr}
 8007948:	7e0f      	ldrb	r7, [r1, #24]
 800794a:	9d0c      	ldr	r5, [sp, #48]	; 0x30
 800794c:	2f78      	cmp	r7, #120	; 0x78
 800794e:	4691      	mov	r9, r2
 8007950:	4680      	mov	r8, r0
 8007952:	460c      	mov	r4, r1
 8007954:	469a      	mov	sl, r3
 8007956:	f101 0243 	add.w	r2, r1, #67	; 0x43
 800795a:	d807      	bhi.n	800796c <_printf_i+0x28>
 800795c:	2f62      	cmp	r7, #98	; 0x62
 800795e:	d80a      	bhi.n	8007976 <_printf_i+0x32>
 8007960:	2f00      	cmp	r7, #0
 8007962:	f000 80d8 	beq.w	8007b16 <_printf_i+0x1d2>
 8007966:	2f58      	cmp	r7, #88	; 0x58
 8007968:	f000 80a3 	beq.w	8007ab2 <_printf_i+0x16e>
 800796c:	f104 0542 	add.w	r5, r4, #66	; 0x42
 8007970:	f884 7042 	strb.w	r7, [r4, #66]	; 0x42
 8007974:	e03a      	b.n	80079ec <_printf_i+0xa8>
 8007976:	f1a7 0363 	sub.w	r3, r7, #99	; 0x63
 800797a:	2b15      	cmp	r3, #21
 800797c:	d8f6      	bhi.n	800796c <_printf_i+0x28>
 800797e:	a101      	add	r1, pc, #4	; (adr r1, 8007984 <_printf_i+0x40>)
 8007980:	f851 f023 	ldr.w	pc, [r1, r3, lsl #2]
 8007984:	080079dd 	.word	0x080079dd
 8007988:	080079f1 	.word	0x080079f1
 800798c:	0800796d 	.word	0x0800796d
 8007990:	0800796d 	.word	0x0800796d
 8007994:	0800796d 	.word	0x0800796d
 8007998:	0800796d 	.word	0x0800796d
 800799c:	080079f1 	.word	0x080079f1
 80079a0:	0800796d 	.word	0x0800796d
 80079a4:	0800796d 	.word	0x0800796d
 80079a8:	0800796d 	.word	0x0800796d
 80079ac:	0800796d 	.word	0x0800796d
 80079b0:	08007afd 	.word	0x08007afd
 80079b4:	08007a21 	.word	0x08007a21
 80079b8:	08007adf 	.word	0x08007adf
 80079bc:	0800796d 	.word	0x0800796d
 80079c0:	0800796d 	.word	0x0800796d
 80079c4:	08007b1f 	.word	0x08007b1f
 80079c8:	0800796d 	.word	0x0800796d
 80079cc:	08007a21 	.word	0x08007a21
 80079d0:	0800796d 	.word	0x0800796d
 80079d4:	0800796d 	.word	0x0800796d
 80079d8:	08007ae7 	.word	0x08007ae7
 80079dc:	682b      	ldr	r3, [r5, #0]
 80079de:	1d1a      	adds	r2, r3, #4
 80079e0:	681b      	ldr	r3, [r3, #0]
 80079e2:	602a      	str	r2, [r5, #0]
 80079e4:	f104 0542 	add.w	r5, r4, #66	; 0x42
 80079e8:	f884 3042 	strb.w	r3, [r4, #66]	; 0x42
 80079ec:	2301      	movs	r3, #1
 80079ee:	e0a3      	b.n	8007b38 <_printf_i+0x1f4>
 80079f0:	6820      	ldr	r0, [r4, #0]
 80079f2:	6829      	ldr	r1, [r5, #0]
 80079f4:	0606      	lsls	r6, r0, #24
 80079f6:	f101 0304 	add.w	r3, r1, #4
 80079fa:	d50a      	bpl.n	8007a12 <_printf_i+0xce>
 80079fc:	680e      	ldr	r6, [r1, #0]
 80079fe:	602b      	str	r3, [r5, #0]
 8007a00:	2e00      	cmp	r6, #0
 8007a02:	da03      	bge.n	8007a0c <_printf_i+0xc8>
 8007a04:	232d      	movs	r3, #45	; 0x2d
 8007a06:	4276      	negs	r6, r6
 8007a08:	f884 3043 	strb.w	r3, [r4, #67]	; 0x43
 8007a0c:	485e      	ldr	r0, [pc, #376]	; (8007b88 <_printf_i+0x244>)
 8007a0e:	230a      	movs	r3, #10
 8007a10:	e019      	b.n	8007a46 <_printf_i+0x102>
 8007a12:	680e      	ldr	r6, [r1, #0]
 8007a14:	602b      	str	r3, [r5, #0]
 8007a16:	f010 0f40 	tst.w	r0, #64	; 0x40
 8007a1a:	bf18      	it	ne
 8007a1c:	b236      	sxthne	r6, r6
 8007a1e:	e7ef      	b.n	8007a00 <_printf_i+0xbc>
 8007a20:	682b      	ldr	r3, [r5, #0]
 8007a22:	6820      	ldr	r0, [r4, #0]
 8007a24:	1d19      	adds	r1, r3, #4
 8007a26:	6029      	str	r1, [r5, #0]
 8007a28:	0601      	lsls	r1, r0, #24
 8007a2a:	d501      	bpl.n	8007a30 <_printf_i+0xec>
 8007a2c:	681e      	ldr	r6, [r3, #0]
 8007a2e:	e002      	b.n	8007a36 <_printf_i+0xf2>
 8007a30:	0646      	lsls	r6, r0, #25
 8007a32:	d5fb      	bpl.n	8007a2c <_printf_i+0xe8>
 8007a34:	881e      	ldrh	r6, [r3, #0]
 8007a36:	4854      	ldr	r0, [pc, #336]	; (8007b88 <_printf_i+0x244>)
 8007a38:	2f6f      	cmp	r7, #111	; 0x6f
 8007a3a:	bf0c      	ite	eq
 8007a3c:	2308      	moveq	r3, #8
 8007a3e:	230a      	movne	r3, #10
 8007a40:	2100      	movs	r1, #0
 8007a42:	f884 1043 	strb.w	r1, [r4, #67]	; 0x43
 8007a46:	6865      	ldr	r5, [r4, #4]
 8007a48:	60a5      	str	r5, [r4, #8]
 8007a4a:	2d00      	cmp	r5, #0
 8007a4c:	bfa2      	ittt	ge
 8007a4e:	6821      	ldrge	r1, [r4, #0]
 8007a50:	f021 0104 	bicge.w	r1, r1, #4
 8007a54:	6021      	strge	r1, [r4, #0]
 8007a56:	b90e      	cbnz	r6, 8007a5c <_printf_i+0x118>
 8007a58:	2d00      	cmp	r5, #0
 8007a5a:	d04d      	beq.n	8007af8 <_printf_i+0x1b4>
 8007a5c:	4615      	mov	r5, r2
 8007a5e:	fbb6 f1f3 	udiv	r1, r6, r3
 8007a62:	fb03 6711 	mls	r7, r3, r1, r6
 8007a66:	5dc7      	ldrb	r7, [r0, r7]
 8007a68:	f805 7d01 	strb.w	r7, [r5, #-1]!
 8007a6c:	4637      	mov	r7, r6
 8007a6e:	42bb      	cmp	r3, r7
 8007a70:	460e      	mov	r6, r1
 8007a72:	d9f4      	bls.n	8007a5e <_printf_i+0x11a>
 8007a74:	2b08      	cmp	r3, #8
 8007a76:	d10b      	bne.n	8007a90 <_printf_i+0x14c>
 8007a78:	6823      	ldr	r3, [r4, #0]
 8007a7a:	07de      	lsls	r6, r3, #31
 8007a7c:	d508      	bpl.n	8007a90 <_printf_i+0x14c>
 8007a7e:	6923      	ldr	r3, [r4, #16]
 8007a80:	6861      	ldr	r1, [r4, #4]
 8007a82:	4299      	cmp	r1, r3
 8007a84:	bfde      	ittt	le
 8007a86:	2330      	movle	r3, #48	; 0x30
 8007a88:	f805 3c01 	strble.w	r3, [r5, #-1]
 8007a8c:	f105 35ff 	addle.w	r5, r5, #4294967295
 8007a90:	1b52      	subs	r2, r2, r5
 8007a92:	6122      	str	r2, [r4, #16]
 8007a94:	f8cd a000 	str.w	sl, [sp]
 8007a98:	464b      	mov	r3, r9
 8007a9a:	aa03      	add	r2, sp, #12
 8007a9c:	4621      	mov	r1, r4
 8007a9e:	4640      	mov	r0, r8
 8007aa0:	f7ff fee2 	bl	8007868 <_printf_common>
 8007aa4:	3001      	adds	r0, #1
 8007aa6:	d14c      	bne.n	8007b42 <_printf_i+0x1fe>
 8007aa8:	f04f 30ff 	mov.w	r0, #4294967295
 8007aac:	b004      	add	sp, #16
 8007aae:	e8bd 87f0 	ldmia.w	sp!, {r4, r5, r6, r7, r8, r9, sl, pc}
 8007ab2:	4835      	ldr	r0, [pc, #212]	; (8007b88 <_printf_i+0x244>)
 8007ab4:	f881 7045 	strb.w	r7, [r1, #69]	; 0x45
 8007ab8:	6829      	ldr	r1, [r5, #0]
 8007aba:	6823      	ldr	r3, [r4, #0]
 8007abc:	f851 6b04 	ldr.w	r6, [r1], #4
 8007ac0:	6029      	str	r1, [r5, #0]
 8007ac2:	061d      	lsls	r5, r3, #24
 8007ac4:	d514      	bpl.n	8007af0 <_printf_i+0x1ac>
 8007ac6:	07df      	lsls	r7, r3, #31
 8007ac8:	bf44      	itt	mi
 8007aca:	f043 0320 	orrmi.w	r3, r3, #32
 8007ace:	6023      	strmi	r3, [r4, #0]
 8007ad0:	b91e      	cbnz	r6, 8007ada <_printf_i+0x196>
 8007ad2:	6823      	ldr	r3, [r4, #0]
 8007ad4:	f023 0320 	bic.w	r3, r3, #32
 8007ad8:	6023      	str	r3, [r4, #0]
 8007ada:	2310      	movs	r3, #16
 8007adc:	e7b0      	b.n	8007a40 <_printf_i+0xfc>
 8007ade:	6823      	ldr	r3, [r4, #0]
 8007ae0:	f043 0320 	orr.w	r3, r3, #32
 8007ae4:	6023      	str	r3, [r4, #0]
 8007ae6:	2378      	movs	r3, #120	; 0x78
 8007ae8:	4828      	ldr	r0, [pc, #160]	; (8007b8c <_printf_i+0x248>)
 8007aea:	f884 3045 	strb.w	r3, [r4, #69]	; 0x45
 8007aee:	e7e3      	b.n	8007ab8 <_printf_i+0x174>
 8007af0:	0659      	lsls	r1, r3, #25
 8007af2:	bf48      	it	mi
 8007af4:	b2b6      	uxthmi	r6, r6
 8007af6:	e7e6      	b.n	8007ac6 <_printf_i+0x182>
 8007af8:	4615      	mov	r5, r2
 8007afa:	e7bb      	b.n	8007a74 <_printf_i+0x130>
 8007afc:	682b      	ldr	r3, [r5, #0]
 8007afe:	6826      	ldr	r6, [r4, #0]
 8007b00:	6961      	ldr	r1, [r4, #20]
 8007b02:	1d18      	adds	r0, r3, #4
 8007b04:	6028      	str	r0, [r5, #0]
 8007b06:	0635      	lsls	r5, r6, #24
 8007b08:	681b      	ldr	r3, [r3, #0]
 8007b0a:	d501      	bpl.n	8007b10 <_printf_i+0x1cc>
 8007b0c:	6019      	str	r1, [r3, #0]
 8007b0e:	e002      	b.n	8007b16 <_printf_i+0x1d2>
 8007b10:	0670      	lsls	r0, r6, #25
 8007b12:	d5fb      	bpl.n	8007b0c <_printf_i+0x1c8>
 8007b14:	8019      	strh	r1, [r3, #0]
 8007b16:	2300      	movs	r3, #0
 8007b18:	6123      	str	r3, [r4, #16]
 8007b1a:	4615      	mov	r5, r2
 8007b1c:	e7ba      	b.n	8007a94 <_printf_i+0x150>
 8007b1e:	682b      	ldr	r3, [r5, #0]
 8007b20:	1d1a      	adds	r2, r3, #4
 8007b22:	602a      	str	r2, [r5, #0]
 8007b24:	681d      	ldr	r5, [r3, #0]
 8007b26:	6862      	ldr	r2, [r4, #4]
 8007b28:	2100      	movs	r1, #0
 8007b2a:	4628      	mov	r0, r5
 8007b2c:	f7f8 fb60 	bl	80001f0 <memchr>
 8007b30:	b108      	cbz	r0, 8007b36 <_printf_i+0x1f2>
 8007b32:	1b40      	subs	r0, r0, r5
 8007b34:	6060      	str	r0, [r4, #4]
 8007b36:	6863      	ldr	r3, [r4, #4]
 8007b38:	6123      	str	r3, [r4, #16]
 8007b3a:	2300      	movs	r3, #0
 8007b3c:	f884 3043 	strb.w	r3, [r4, #67]	; 0x43
 8007b40:	e7a8      	b.n	8007a94 <_printf_i+0x150>
 8007b42:	6923      	ldr	r3, [r4, #16]
 8007b44:	462a      	mov	r2, r5
 8007b46:	4649      	mov	r1, r9
 8007b48:	4640      	mov	r0, r8
 8007b4a:	47d0      	blx	sl
 8007b4c:	3001      	adds	r0, #1
 8007b4e:	d0ab      	beq.n	8007aa8 <_printf_i+0x164>
 8007b50:	6823      	ldr	r3, [r4, #0]
 8007b52:	079b      	lsls	r3, r3, #30
 8007b54:	d413      	bmi.n	8007b7e <_printf_i+0x23a>
 8007b56:	68e0      	ldr	r0, [r4, #12]
 8007b58:	9b03      	ldr	r3, [sp, #12]
 8007b5a:	4298      	cmp	r0, r3
 8007b5c:	bfb8      	it	lt
 8007b5e:	4618      	movlt	r0, r3
 8007b60:	e7a4      	b.n	8007aac <_printf_i+0x168>
 8007b62:	2301      	movs	r3, #1
 8007b64:	4632      	mov	r2, r6
 8007b66:	4649      	mov	r1, r9
 8007b68:	4640      	mov	r0, r8
 8007b6a:	47d0      	blx	sl
 8007b6c:	3001      	adds	r0, #1
 8007b6e:	d09b      	beq.n	8007aa8 <_printf_i+0x164>
 8007b70:	3501      	adds	r5, #1
 8007b72:	68e3      	ldr	r3, [r4, #12]
 8007b74:	9903      	ldr	r1, [sp, #12]
 8007b76:	1a5b      	subs	r3, r3, r1
 8007b78:	42ab      	cmp	r3, r5
 8007b7a:	dcf2      	bgt.n	8007b62 <_printf_i+0x21e>
 8007b7c:	e7eb      	b.n	8007b56 <_printf_i+0x212>
 8007b7e:	2500      	movs	r5, #0
 8007b80:	f104 0619 	add.w	r6, r4, #25
 8007b84:	e7f5      	b.n	8007b72 <_printf_i+0x22e>
 8007b86:	bf00      	nop
 8007b88:	0800a246 	.word	0x0800a246
 8007b8c:	0800a257 	.word	0x0800a257

08007b90 <iprintf>:
 8007b90:	b40f      	push	{r0, r1, r2, r3}
 8007b92:	4b0a      	ldr	r3, [pc, #40]	; (8007bbc <iprintf+0x2c>)
 8007b94:	b513      	push	{r0, r1, r4, lr}
 8007b96:	681c      	ldr	r4, [r3, #0]
 8007b98:	b124      	cbz	r4, 8007ba4 <iprintf+0x14>
 8007b9a:	69a3      	ldr	r3, [r4, #24]
 8007b9c:	b913      	cbnz	r3, 8007ba4 <iprintf+0x14>
 8007b9e:	4620      	mov	r0, r4
 8007ba0:	f001 f91e 	bl	8008de0 <__sinit>
 8007ba4:	ab05      	add	r3, sp, #20
 8007ba6:	9a04      	ldr	r2, [sp, #16]
 8007ba8:	68a1      	ldr	r1, [r4, #8]
 8007baa:	9301      	str	r3, [sp, #4]
 8007bac:	4620      	mov	r0, r4
 8007bae:	f001 ff73 	bl	8009a98 <_vfiprintf_r>
 8007bb2:	b002      	add	sp, #8
 8007bb4:	e8bd 4010 	ldmia.w	sp!, {r4, lr}
 8007bb8:	b004      	add	sp, #16
 8007bba:	4770      	bx	lr
 8007bbc:	200002c8 	.word	0x200002c8

08007bc0 <_puts_r>:
 8007bc0:	b570      	push	{r4, r5, r6, lr}
 8007bc2:	460e      	mov	r6, r1
 8007bc4:	4605      	mov	r5, r0
 8007bc6:	b118      	cbz	r0, 8007bd0 <_puts_r+0x10>
 8007bc8:	6983      	ldr	r3, [r0, #24]
 8007bca:	b90b      	cbnz	r3, 8007bd0 <_puts_r+0x10>
 8007bcc:	f001 f908 	bl	8008de0 <__sinit>
 8007bd0:	69ab      	ldr	r3, [r5, #24]
 8007bd2:	68ac      	ldr	r4, [r5, #8]
 8007bd4:	b913      	cbnz	r3, 8007bdc <_puts_r+0x1c>
 8007bd6:	4628      	mov	r0, r5
 8007bd8:	f001 f902 	bl	8008de0 <__sinit>
 8007bdc:	4b2c      	ldr	r3, [pc, #176]	; (8007c90 <_puts_r+0xd0>)
 8007bde:	429c      	cmp	r4, r3
 8007be0:	d120      	bne.n	8007c24 <_puts_r+0x64>
 8007be2:	686c      	ldr	r4, [r5, #4]
 8007be4:	6e63      	ldr	r3, [r4, #100]	; 0x64
 8007be6:	07db      	lsls	r3, r3, #31
 8007be8:	d405      	bmi.n	8007bf6 <_puts_r+0x36>
 8007bea:	89a3      	ldrh	r3, [r4, #12]
 8007bec:	0598      	lsls	r0, r3, #22
 8007bee:	d402      	bmi.n	8007bf6 <_puts_r+0x36>
 8007bf0:	6da0      	ldr	r0, [r4, #88]	; 0x58
 8007bf2:	f001 f998 	bl	8008f26 <__retarget_lock_acquire_recursive>
 8007bf6:	89a3      	ldrh	r3, [r4, #12]
 8007bf8:	0719      	lsls	r1, r3, #28
 8007bfa:	d51d      	bpl.n	8007c38 <_puts_r+0x78>
 8007bfc:	6923      	ldr	r3, [r4, #16]
 8007bfe:	b1db      	cbz	r3, 8007c38 <_puts_r+0x78>
 8007c00:	3e01      	subs	r6, #1
 8007c02:	68a3      	ldr	r3, [r4, #8]
 8007c04:	f816 1f01 	ldrb.w	r1, [r6, #1]!
 8007c08:	3b01      	subs	r3, #1
 8007c0a:	60a3      	str	r3, [r4, #8]
 8007c0c:	bb39      	cbnz	r1, 8007c5e <_puts_r+0x9e>
 8007c0e:	2b00      	cmp	r3, #0
 8007c10:	da38      	bge.n	8007c84 <_puts_r+0xc4>
 8007c12:	4622      	mov	r2, r4
 8007c14:	210a      	movs	r1, #10
 8007c16:	4628      	mov	r0, r5
 8007c18:	f000 f88c 	bl	8007d34 <__swbuf_r>
 8007c1c:	3001      	adds	r0, #1
 8007c1e:	d011      	beq.n	8007c44 <_puts_r+0x84>
 8007c20:	250a      	movs	r5, #10
 8007c22:	e011      	b.n	8007c48 <_puts_r+0x88>
 8007c24:	4b1b      	ldr	r3, [pc, #108]	; (8007c94 <_puts_r+0xd4>)
 8007c26:	429c      	cmp	r4, r3
 8007c28:	d101      	bne.n	8007c2e <_puts_r+0x6e>
 8007c2a:	68ac      	ldr	r4, [r5, #8]
 8007c2c:	e7da      	b.n	8007be4 <_puts_r+0x24>
 8007c2e:	4b1a      	ldr	r3, [pc, #104]	; (8007c98 <_puts_r+0xd8>)
 8007c30:	429c      	cmp	r4, r3
 8007c32:	bf08      	it	eq
 8007c34:	68ec      	ldreq	r4, [r5, #12]
 8007c36:	e7d5      	b.n	8007be4 <_puts_r+0x24>
 8007c38:	4621      	mov	r1, r4
 8007c3a:	4628      	mov	r0, r5
 8007c3c:	f000 f8cc 	bl	8007dd8 <__swsetup_r>
 8007c40:	2800      	cmp	r0, #0
 8007c42:	d0dd      	beq.n	8007c00 <_puts_r+0x40>
 8007c44:	f04f 35ff 	mov.w	r5, #4294967295
 8007c48:	6e63      	ldr	r3, [r4, #100]	; 0x64
 8007c4a:	07da      	lsls	r2, r3, #31
 8007c4c:	d405      	bmi.n	8007c5a <_puts_r+0x9a>
 8007c4e:	89a3      	ldrh	r3, [r4, #12]
 8007c50:	059b      	lsls	r3, r3, #22
 8007c52:	d402      	bmi.n	8007c5a <_puts_r+0x9a>
 8007c54:	6da0      	ldr	r0, [r4, #88]	; 0x58
 8007c56:	f001 f967 	bl	8008f28 <__retarget_lock_release_recursive>
 8007c5a:	4628      	mov	r0, r5
 8007c5c:	bd70      	pop	{r4, r5, r6, pc}
 8007c5e:	2b00      	cmp	r3, #0
 8007c60:	da04      	bge.n	8007c6c <_puts_r+0xac>
 8007c62:	69a2      	ldr	r2, [r4, #24]
 8007c64:	429a      	cmp	r2, r3
 8007c66:	dc06      	bgt.n	8007c76 <_puts_r+0xb6>
 8007c68:	290a      	cmp	r1, #10
 8007c6a:	d004      	beq.n	8007c76 <_puts_r+0xb6>
 8007c6c:	6823      	ldr	r3, [r4, #0]
 8007c6e:	1c5a      	adds	r2, r3, #1
 8007c70:	6022      	str	r2, [r4, #0]
 8007c72:	7019      	strb	r1, [r3, #0]
 8007c74:	e7c5      	b.n	8007c02 <_puts_r+0x42>
 8007c76:	4622      	mov	r2, r4
 8007c78:	4628      	mov	r0, r5
 8007c7a:	f000 f85b 	bl	8007d34 <__swbuf_r>
 8007c7e:	3001      	adds	r0, #1
 8007c80:	d1bf      	bne.n	8007c02 <_puts_r+0x42>
 8007c82:	e7df      	b.n	8007c44 <_puts_r+0x84>
 8007c84:	6823      	ldr	r3, [r4, #0]
 8007c86:	250a      	movs	r5, #10
 8007c88:	1c5a      	adds	r2, r3, #1
 8007c8a:	6022      	str	r2, [r4, #0]
 8007c8c:	701d      	strb	r5, [r3, #0]
 8007c8e:	e7db      	b.n	8007c48 <_puts_r+0x88>
 8007c90:	0800a318 	.word	0x0800a318
 8007c94:	0800a338 	.word	0x0800a338
 8007c98:	0800a2f8 	.word	0x0800a2f8

08007c9c <puts>:
 8007c9c:	4b02      	ldr	r3, [pc, #8]	; (8007ca8 <puts+0xc>)
 8007c9e:	4601      	mov	r1, r0
 8007ca0:	6818      	ldr	r0, [r3, #0]
 8007ca2:	f7ff bf8d 	b.w	8007bc0 <_puts_r>
 8007ca6:	bf00      	nop
 8007ca8:	200002c8 	.word	0x200002c8

08007cac <_sbrk_r>:
 8007cac:	b538      	push	{r3, r4, r5, lr}
 8007cae:	4d06      	ldr	r5, [pc, #24]	; (8007cc8 <_sbrk_r+0x1c>)
 8007cb0:	2300      	movs	r3, #0
 8007cb2:	4604      	mov	r4, r0
 8007cb4:	4608      	mov	r0, r1
 8007cb6:	602b      	str	r3, [r5, #0]
 8007cb8:	f7f9 ff3e 	bl	8001b38 <_sbrk>
 8007cbc:	1c43      	adds	r3, r0, #1
 8007cbe:	d102      	bne.n	8007cc6 <_sbrk_r+0x1a>
 8007cc0:	682b      	ldr	r3, [r5, #0]
 8007cc2:	b103      	cbz	r3, 8007cc6 <_sbrk_r+0x1a>
 8007cc4:	6023      	str	r3, [r4, #0]
 8007cc6:	bd38      	pop	{r3, r4, r5, pc}
 8007cc8:	20000708 	.word	0x20000708

08007ccc <strncpy>:
 8007ccc:	b510      	push	{r4, lr}
 8007cce:	3901      	subs	r1, #1
 8007cd0:	4603      	mov	r3, r0
 8007cd2:	b132      	cbz	r2, 8007ce2 <strncpy+0x16>
 8007cd4:	f811 4f01 	ldrb.w	r4, [r1, #1]!
 8007cd8:	f803 4b01 	strb.w	r4, [r3], #1
 8007cdc:	3a01      	subs	r2, #1
 8007cde:	2c00      	cmp	r4, #0
 8007ce0:	d1f7      	bne.n	8007cd2 <strncpy+0x6>
 8007ce2:	441a      	add	r2, r3
 8007ce4:	2100      	movs	r1, #0
 8007ce6:	4293      	cmp	r3, r2
 8007ce8:	d100      	bne.n	8007cec <strncpy+0x20>
 8007cea:	bd10      	pop	{r4, pc}
 8007cec:	f803 1b01 	strb.w	r1, [r3], #1
 8007cf0:	e7f9      	b.n	8007ce6 <strncpy+0x1a>
	...

08007cf4 <_vsiprintf_r>:
 8007cf4:	b500      	push	{lr}
 8007cf6:	b09b      	sub	sp, #108	; 0x6c
 8007cf8:	9100      	str	r1, [sp, #0]
 8007cfa:	9104      	str	r1, [sp, #16]
 8007cfc:	f06f 4100 	mvn.w	r1, #2147483648	; 0x80000000
 8007d00:	9105      	str	r1, [sp, #20]
 8007d02:	9102      	str	r1, [sp, #8]
 8007d04:	4905      	ldr	r1, [pc, #20]	; (8007d1c <_vsiprintf_r+0x28>)
 8007d06:	9103      	str	r1, [sp, #12]
 8007d08:	4669      	mov	r1, sp
 8007d0a:	f001 fd9b 	bl	8009844 <_svfiprintf_r>
 8007d0e:	9b00      	ldr	r3, [sp, #0]
 8007d10:	2200      	movs	r2, #0
 8007d12:	701a      	strb	r2, [r3, #0]
 8007d14:	b01b      	add	sp, #108	; 0x6c
 8007d16:	f85d fb04 	ldr.w	pc, [sp], #4
 8007d1a:	bf00      	nop
 8007d1c:	ffff0208 	.word	0xffff0208

08007d20 <vsiprintf>:
 8007d20:	4613      	mov	r3, r2
 8007d22:	460a      	mov	r2, r1
 8007d24:	4601      	mov	r1, r0
 8007d26:	4802      	ldr	r0, [pc, #8]	; (8007d30 <vsiprintf+0x10>)
 8007d28:	6800      	ldr	r0, [r0, #0]
 8007d2a:	f7ff bfe3 	b.w	8007cf4 <_vsiprintf_r>
 8007d2e:	bf00      	nop
 8007d30:	200002c8 	.word	0x200002c8

08007d34 <__swbuf_r>:
 8007d34:	b5f8      	push	{r3, r4, r5, r6, r7, lr}
 8007d36:	460e      	mov	r6, r1
 8007d38:	4614      	mov	r4, r2
 8007d3a:	4605      	mov	r5, r0
 8007d3c:	b118      	cbz	r0, 8007d46 <__swbuf_r+0x12>
 8007d3e:	6983      	ldr	r3, [r0, #24]
 8007d40:	b90b      	cbnz	r3, 8007d46 <__swbuf_r+0x12>
 8007d42:	f001 f84d 	bl	8008de0 <__sinit>
 8007d46:	4b21      	ldr	r3, [pc, #132]	; (8007dcc <__swbuf_r+0x98>)
 8007d48:	429c      	cmp	r4, r3
 8007d4a:	d12b      	bne.n	8007da4 <__swbuf_r+0x70>
 8007d4c:	686c      	ldr	r4, [r5, #4]
 8007d4e:	69a3      	ldr	r3, [r4, #24]
 8007d50:	60a3      	str	r3, [r4, #8]
 8007d52:	89a3      	ldrh	r3, [r4, #12]
 8007d54:	071a      	lsls	r2, r3, #28
 8007d56:	d52f      	bpl.n	8007db8 <__swbuf_r+0x84>
 8007d58:	6923      	ldr	r3, [r4, #16]
 8007d5a:	b36b      	cbz	r3, 8007db8 <__swbuf_r+0x84>
 8007d5c:	6923      	ldr	r3, [r4, #16]
 8007d5e:	6820      	ldr	r0, [r4, #0]
 8007d60:	1ac0      	subs	r0, r0, r3
 8007d62:	6963      	ldr	r3, [r4, #20]
 8007d64:	b2f6      	uxtb	r6, r6
 8007d66:	4283      	cmp	r3, r0
 8007d68:	4637      	mov	r7, r6
 8007d6a:	dc04      	bgt.n	8007d76 <__swbuf_r+0x42>
 8007d6c:	4621      	mov	r1, r4
 8007d6e:	4628      	mov	r0, r5
 8007d70:	f000 ffa2 	bl	8008cb8 <_fflush_r>
 8007d74:	bb30      	cbnz	r0, 8007dc4 <__swbuf_r+0x90>
 8007d76:	68a3      	ldr	r3, [r4, #8]
 8007d78:	3b01      	subs	r3, #1
 8007d7a:	60a3      	str	r3, [r4, #8]
 8007d7c:	6823      	ldr	r3, [r4, #0]
 8007d7e:	1c5a      	adds	r2, r3, #1
 8007d80:	6022      	str	r2, [r4, #0]
 8007d82:	701e      	strb	r6, [r3, #0]
 8007d84:	6963      	ldr	r3, [r4, #20]
 8007d86:	3001      	adds	r0, #1
 8007d88:	4283      	cmp	r3, r0
 8007d8a:	d004      	beq.n	8007d96 <__swbuf_r+0x62>
 8007d8c:	89a3      	ldrh	r3, [r4, #12]
 8007d8e:	07db      	lsls	r3, r3, #31
 8007d90:	d506      	bpl.n	8007da0 <__swbuf_r+0x6c>
 8007d92:	2e0a      	cmp	r6, #10
 8007d94:	d104      	bne.n	8007da0 <__swbuf_r+0x6c>
 8007d96:	4621      	mov	r1, r4
 8007d98:	4628      	mov	r0, r5
 8007d9a:	f000 ff8d 	bl	8008cb8 <_fflush_r>
 8007d9e:	b988      	cbnz	r0, 8007dc4 <__swbuf_r+0x90>
 8007da0:	4638      	mov	r0, r7
 8007da2:	bdf8      	pop	{r3, r4, r5, r6, r7, pc}
 8007da4:	4b0a      	ldr	r3, [pc, #40]	; (8007dd0 <__swbuf_r+0x9c>)
 8007da6:	429c      	cmp	r4, r3
 8007da8:	d101      	bne.n	8007dae <__swbuf_r+0x7a>
 8007daa:	68ac      	ldr	r4, [r5, #8]
 8007dac:	e7cf      	b.n	8007d4e <__swbuf_r+0x1a>
 8007dae:	4b09      	ldr	r3, [pc, #36]	; (8007dd4 <__swbuf_r+0xa0>)
 8007db0:	429c      	cmp	r4, r3
 8007db2:	bf08      	it	eq
 8007db4:	68ec      	ldreq	r4, [r5, #12]
 8007db6:	e7ca      	b.n	8007d4e <__swbuf_r+0x1a>
 8007db8:	4621      	mov	r1, r4
 8007dba:	4628      	mov	r0, r5
 8007dbc:	f000 f80c 	bl	8007dd8 <__swsetup_r>
 8007dc0:	2800      	cmp	r0, #0
 8007dc2:	d0cb      	beq.n	8007d5c <__swbuf_r+0x28>
 8007dc4:	f04f 37ff 	mov.w	r7, #4294967295
 8007dc8:	e7ea      	b.n	8007da0 <__swbuf_r+0x6c>
 8007dca:	bf00      	nop
 8007dcc:	0800a318 	.word	0x0800a318
 8007dd0:	0800a338 	.word	0x0800a338
 8007dd4:	0800a2f8 	.word	0x0800a2f8

08007dd8 <__swsetup_r>:
 8007dd8:	4b32      	ldr	r3, [pc, #200]	; (8007ea4 <__swsetup_r+0xcc>)
 8007dda:	b570      	push	{r4, r5, r6, lr}
 8007ddc:	681d      	ldr	r5, [r3, #0]
 8007dde:	4606      	mov	r6, r0
 8007de0:	460c      	mov	r4, r1
 8007de2:	b125      	cbz	r5, 8007dee <__swsetup_r+0x16>
 8007de4:	69ab      	ldr	r3, [r5, #24]
 8007de6:	b913      	cbnz	r3, 8007dee <__swsetup_r+0x16>
 8007de8:	4628      	mov	r0, r5
 8007dea:	f000 fff9 	bl	8008de0 <__sinit>
 8007dee:	4b2e      	ldr	r3, [pc, #184]	; (8007ea8 <__swsetup_r+0xd0>)
 8007df0:	429c      	cmp	r4, r3
 8007df2:	d10f      	bne.n	8007e14 <__swsetup_r+0x3c>
 8007df4:	686c      	ldr	r4, [r5, #4]
 8007df6:	89a3      	ldrh	r3, [r4, #12]
 8007df8:	f9b4 200c 	ldrsh.w	r2, [r4, #12]
 8007dfc:	0719      	lsls	r1, r3, #28
 8007dfe:	d42c      	bmi.n	8007e5a <__swsetup_r+0x82>
 8007e00:	06dd      	lsls	r5, r3, #27
 8007e02:	d411      	bmi.n	8007e28 <__swsetup_r+0x50>
 8007e04:	2309      	movs	r3, #9
 8007e06:	6033      	str	r3, [r6, #0]
 8007e08:	f042 0340 	orr.w	r3, r2, #64	; 0x40
 8007e0c:	81a3      	strh	r3, [r4, #12]
 8007e0e:	f04f 30ff 	mov.w	r0, #4294967295
 8007e12:	e03e      	b.n	8007e92 <__swsetup_r+0xba>
 8007e14:	4b25      	ldr	r3, [pc, #148]	; (8007eac <__swsetup_r+0xd4>)
 8007e16:	429c      	cmp	r4, r3
 8007e18:	d101      	bne.n	8007e1e <__swsetup_r+0x46>
 8007e1a:	68ac      	ldr	r4, [r5, #8]
 8007e1c:	e7eb      	b.n	8007df6 <__swsetup_r+0x1e>
 8007e1e:	4b24      	ldr	r3, [pc, #144]	; (8007eb0 <__swsetup_r+0xd8>)
 8007e20:	429c      	cmp	r4, r3
 8007e22:	bf08      	it	eq
 8007e24:	68ec      	ldreq	r4, [r5, #12]
 8007e26:	e7e6      	b.n	8007df6 <__swsetup_r+0x1e>
 8007e28:	0758      	lsls	r0, r3, #29
 8007e2a:	d512      	bpl.n	8007e52 <__swsetup_r+0x7a>
 8007e2c:	6b61      	ldr	r1, [r4, #52]	; 0x34
 8007e2e:	b141      	cbz	r1, 8007e42 <__swsetup_r+0x6a>
 8007e30:	f104 0344 	add.w	r3, r4, #68	; 0x44
 8007e34:	4299      	cmp	r1, r3
 8007e36:	d002      	beq.n	8007e3e <__swsetup_r+0x66>
 8007e38:	4630      	mov	r0, r6
 8007e3a:	f7ff f95f 	bl	80070fc <_free_r>
 8007e3e:	2300      	movs	r3, #0
 8007e40:	6363      	str	r3, [r4, #52]	; 0x34
 8007e42:	89a3      	ldrh	r3, [r4, #12]
 8007e44:	f023 0324 	bic.w	r3, r3, #36	; 0x24
 8007e48:	81a3      	strh	r3, [r4, #12]
 8007e4a:	2300      	movs	r3, #0
 8007e4c:	6063      	str	r3, [r4, #4]
 8007e4e:	6923      	ldr	r3, [r4, #16]
 8007e50:	6023      	str	r3, [r4, #0]
 8007e52:	89a3      	ldrh	r3, [r4, #12]
 8007e54:	f043 0308 	orr.w	r3, r3, #8
 8007e58:	81a3      	strh	r3, [r4, #12]
 8007e5a:	6923      	ldr	r3, [r4, #16]
 8007e5c:	b94b      	cbnz	r3, 8007e72 <__swsetup_r+0x9a>
 8007e5e:	89a3      	ldrh	r3, [r4, #12]
 8007e60:	f403 7320 	and.w	r3, r3, #640	; 0x280
 8007e64:	f5b3 7f00 	cmp.w	r3, #512	; 0x200
 8007e68:	d003      	beq.n	8007e72 <__swsetup_r+0x9a>
 8007e6a:	4621      	mov	r1, r4
 8007e6c:	4630      	mov	r0, r6
 8007e6e:	f001 f881 	bl	8008f74 <__smakebuf_r>
 8007e72:	89a0      	ldrh	r0, [r4, #12]
 8007e74:	f9b4 200c 	ldrsh.w	r2, [r4, #12]
 8007e78:	f010 0301 	ands.w	r3, r0, #1
 8007e7c:	d00a      	beq.n	8007e94 <__swsetup_r+0xbc>
 8007e7e:	2300      	movs	r3, #0
 8007e80:	60a3      	str	r3, [r4, #8]
 8007e82:	6963      	ldr	r3, [r4, #20]
 8007e84:	425b      	negs	r3, r3
 8007e86:	61a3      	str	r3, [r4, #24]
 8007e88:	6923      	ldr	r3, [r4, #16]
 8007e8a:	b943      	cbnz	r3, 8007e9e <__swsetup_r+0xc6>
 8007e8c:	f010 0080 	ands.w	r0, r0, #128	; 0x80
 8007e90:	d1ba      	bne.n	8007e08 <__swsetup_r+0x30>
 8007e92:	bd70      	pop	{r4, r5, r6, pc}
 8007e94:	0781      	lsls	r1, r0, #30
 8007e96:	bf58      	it	pl
 8007e98:	6963      	ldrpl	r3, [r4, #20]
 8007e9a:	60a3      	str	r3, [r4, #8]
 8007e9c:	e7f4      	b.n	8007e88 <__swsetup_r+0xb0>
 8007e9e:	2000      	movs	r0, #0
 8007ea0:	e7f7      	b.n	8007e92 <__swsetup_r+0xba>
 8007ea2:	bf00      	nop
 8007ea4:	200002c8 	.word	0x200002c8
 8007ea8:	0800a318 	.word	0x0800a318
 8007eac:	0800a338 	.word	0x0800a338
 8007eb0:	0800a2f8 	.word	0x0800a2f8

08007eb4 <quorem>:
 8007eb4:	e92d 4ff7 	stmdb	sp!, {r0, r1, r2, r4, r5, r6, r7, r8, r9, sl, fp, lr}
 8007eb8:	6903      	ldr	r3, [r0, #16]
 8007eba:	690c      	ldr	r4, [r1, #16]
 8007ebc:	42a3      	cmp	r3, r4
 8007ebe:	4607      	mov	r7, r0
 8007ec0:	f2c0 8081 	blt.w	8007fc6 <quorem+0x112>
 8007ec4:	3c01      	subs	r4, #1
 8007ec6:	f101 0814 	add.w	r8, r1, #20
 8007eca:	f100 0514 	add.w	r5, r0, #20
 8007ece:	eb05 0384 	add.w	r3, r5, r4, lsl #2
 8007ed2:	9301      	str	r3, [sp, #4]
 8007ed4:	f858 3024 	ldr.w	r3, [r8, r4, lsl #2]
 8007ed8:	f855 2024 	ldr.w	r2, [r5, r4, lsl #2]
 8007edc:	3301      	adds	r3, #1
 8007ede:	429a      	cmp	r2, r3
 8007ee0:	ea4f 0b84 	mov.w	fp, r4, lsl #2
 8007ee4:	eb08 0984 	add.w	r9, r8, r4, lsl #2
 8007ee8:	fbb2 f6f3 	udiv	r6, r2, r3
 8007eec:	d331      	bcc.n	8007f52 <quorem+0x9e>
 8007eee:	f04f 0e00 	mov.w	lr, #0
 8007ef2:	4640      	mov	r0, r8
 8007ef4:	46ac      	mov	ip, r5
 8007ef6:	46f2      	mov	sl, lr
 8007ef8:	f850 2b04 	ldr.w	r2, [r0], #4
 8007efc:	b293      	uxth	r3, r2
 8007efe:	fb06 e303 	mla	r3, r6, r3, lr
 8007f02:	ea4f 4e13 	mov.w	lr, r3, lsr #16
 8007f06:	b29b      	uxth	r3, r3
 8007f08:	ebaa 0303 	sub.w	r3, sl, r3
 8007f0c:	f8dc a000 	ldr.w	sl, [ip]
 8007f10:	0c12      	lsrs	r2, r2, #16
 8007f12:	fa13 f38a 	uxtah	r3, r3, sl
 8007f16:	fb06 e202 	mla	r2, r6, r2, lr
 8007f1a:	9300      	str	r3, [sp, #0]
 8007f1c:	9b00      	ldr	r3, [sp, #0]
 8007f1e:	ea4f 4e12 	mov.w	lr, r2, lsr #16
 8007f22:	b292      	uxth	r2, r2
 8007f24:	ebc2 421a 	rsb	r2, r2, sl, lsr #16
 8007f28:	eb02 4223 	add.w	r2, r2, r3, asr #16
 8007f2c:	f8bd 3000 	ldrh.w	r3, [sp]
 8007f30:	4581      	cmp	r9, r0
 8007f32:	ea43 4302 	orr.w	r3, r3, r2, lsl #16
 8007f36:	f84c 3b04 	str.w	r3, [ip], #4
 8007f3a:	ea4f 4a22 	mov.w	sl, r2, asr #16
 8007f3e:	d2db      	bcs.n	8007ef8 <quorem+0x44>
 8007f40:	f855 300b 	ldr.w	r3, [r5, fp]
 8007f44:	b92b      	cbnz	r3, 8007f52 <quorem+0x9e>
 8007f46:	9b01      	ldr	r3, [sp, #4]
 8007f48:	3b04      	subs	r3, #4
 8007f4a:	429d      	cmp	r5, r3
 8007f4c:	461a      	mov	r2, r3
 8007f4e:	d32e      	bcc.n	8007fae <quorem+0xfa>
 8007f50:	613c      	str	r4, [r7, #16]
 8007f52:	4638      	mov	r0, r7
 8007f54:	f001 faea 	bl	800952c <__mcmp>
 8007f58:	2800      	cmp	r0, #0
 8007f5a:	db24      	blt.n	8007fa6 <quorem+0xf2>
 8007f5c:	3601      	adds	r6, #1
 8007f5e:	4628      	mov	r0, r5
 8007f60:	f04f 0c00 	mov.w	ip, #0
 8007f64:	f858 2b04 	ldr.w	r2, [r8], #4
 8007f68:	f8d0 e000 	ldr.w	lr, [r0]
 8007f6c:	b293      	uxth	r3, r2
 8007f6e:	ebac 0303 	sub.w	r3, ip, r3
 8007f72:	0c12      	lsrs	r2, r2, #16
 8007f74:	fa13 f38e 	uxtah	r3, r3, lr
 8007f78:	ebc2 421e 	rsb	r2, r2, lr, lsr #16
 8007f7c:	eb02 4223 	add.w	r2, r2, r3, asr #16
 8007f80:	b29b      	uxth	r3, r3
 8007f82:	ea43 4302 	orr.w	r3, r3, r2, lsl #16
 8007f86:	45c1      	cmp	r9, r8
 8007f88:	f840 3b04 	str.w	r3, [r0], #4
 8007f8c:	ea4f 4c22 	mov.w	ip, r2, asr #16
 8007f90:	d2e8      	bcs.n	8007f64 <quorem+0xb0>
 8007f92:	f855 2024 	ldr.w	r2, [r5, r4, lsl #2]
 8007f96:	eb05 0384 	add.w	r3, r5, r4, lsl #2
 8007f9a:	b922      	cbnz	r2, 8007fa6 <quorem+0xf2>
 8007f9c:	3b04      	subs	r3, #4
 8007f9e:	429d      	cmp	r5, r3
 8007fa0:	461a      	mov	r2, r3
 8007fa2:	d30a      	bcc.n	8007fba <quorem+0x106>
 8007fa4:	613c      	str	r4, [r7, #16]
 8007fa6:	4630      	mov	r0, r6
 8007fa8:	b003      	add	sp, #12
 8007faa:	e8bd 8ff0 	ldmia.w	sp!, {r4, r5, r6, r7, r8, r9, sl, fp, pc}
 8007fae:	6812      	ldr	r2, [r2, #0]
 8007fb0:	3b04      	subs	r3, #4
 8007fb2:	2a00      	cmp	r2, #0
 8007fb4:	d1cc      	bne.n	8007f50 <quorem+0x9c>
 8007fb6:	3c01      	subs	r4, #1
 8007fb8:	e7c7      	b.n	8007f4a <quorem+0x96>
 8007fba:	6812      	ldr	r2, [r2, #0]
 8007fbc:	3b04      	subs	r3, #4
 8007fbe:	2a00      	cmp	r2, #0
 8007fc0:	d1f0      	bne.n	8007fa4 <quorem+0xf0>
 8007fc2:	3c01      	subs	r4, #1
 8007fc4:	e7eb      	b.n	8007f9e <quorem+0xea>
 8007fc6:	2000      	movs	r0, #0
 8007fc8:	e7ee      	b.n	8007fa8 <quorem+0xf4>
 8007fca:	0000      	movs	r0, r0
 8007fcc:	0000      	movs	r0, r0
	...

08007fd0 <_dtoa_r>:
 8007fd0:	e92d 4ff0 	stmdb	sp!, {r4, r5, r6, r7, r8, r9, sl, fp, lr}
 8007fd4:	ed2d 8b04 	vpush	{d8-d9}
 8007fd8:	ec57 6b10 	vmov	r6, r7, d0
 8007fdc:	b093      	sub	sp, #76	; 0x4c
 8007fde:	6a45      	ldr	r5, [r0, #36]	; 0x24
 8007fe0:	f8dd 8080 	ldr.w	r8, [sp, #128]	; 0x80
 8007fe4:	9106      	str	r1, [sp, #24]
 8007fe6:	ee10 aa10 	vmov	sl, s0
 8007fea:	4604      	mov	r4, r0
 8007fec:	9209      	str	r2, [sp, #36]	; 0x24
 8007fee:	930c      	str	r3, [sp, #48]	; 0x30
 8007ff0:	46bb      	mov	fp, r7
 8007ff2:	b975      	cbnz	r5, 8008012 <_dtoa_r+0x42>
 8007ff4:	2010      	movs	r0, #16
 8007ff6:	f7ff f85b 	bl	80070b0 <malloc>
 8007ffa:	4602      	mov	r2, r0
 8007ffc:	6260      	str	r0, [r4, #36]	; 0x24
 8007ffe:	b920      	cbnz	r0, 800800a <_dtoa_r+0x3a>
 8008000:	4ba7      	ldr	r3, [pc, #668]	; (80082a0 <_dtoa_r+0x2d0>)
 8008002:	21ea      	movs	r1, #234	; 0xea
 8008004:	48a7      	ldr	r0, [pc, #668]	; (80082a4 <_dtoa_r+0x2d4>)
 8008006:	f001 fecd 	bl	8009da4 <__assert_func>
 800800a:	e9c0 5501 	strd	r5, r5, [r0, #4]
 800800e:	6005      	str	r5, [r0, #0]
 8008010:	60c5      	str	r5, [r0, #12]
 8008012:	6a63      	ldr	r3, [r4, #36]	; 0x24
 8008014:	6819      	ldr	r1, [r3, #0]
 8008016:	b151      	cbz	r1, 800802e <_dtoa_r+0x5e>
 8008018:	685a      	ldr	r2, [r3, #4]
 800801a:	604a      	str	r2, [r1, #4]
 800801c:	2301      	movs	r3, #1
 800801e:	4093      	lsls	r3, r2
 8008020:	608b      	str	r3, [r1, #8]
 8008022:	4620      	mov	r0, r4
 8008024:	f001 f840 	bl	80090a8 <_Bfree>
 8008028:	6a63      	ldr	r3, [r4, #36]	; 0x24
 800802a:	2200      	movs	r2, #0
 800802c:	601a      	str	r2, [r3, #0]
 800802e:	1e3b      	subs	r3, r7, #0
 8008030:	bfaa      	itet	ge
 8008032:	2300      	movge	r3, #0
 8008034:	f023 4b00 	biclt.w	fp, r3, #2147483648	; 0x80000000
 8008038:	f8c8 3000 	strge.w	r3, [r8]
 800803c:	4b9a      	ldr	r3, [pc, #616]	; (80082a8 <_dtoa_r+0x2d8>)
 800803e:	bfbc      	itt	lt
 8008040:	2201      	movlt	r2, #1
 8008042:	f8c8 2000 	strlt.w	r2, [r8]
 8008046:	ea33 030b 	bics.w	r3, r3, fp
 800804a:	d11b      	bne.n	8008084 <_dtoa_r+0xb4>
 800804c:	9a0c      	ldr	r2, [sp, #48]	; 0x30
 800804e:	f242 730f 	movw	r3, #9999	; 0x270f
 8008052:	6013      	str	r3, [r2, #0]
 8008054:	f3cb 0313 	ubfx	r3, fp, #0, #20
 8008058:	4333      	orrs	r3, r6
 800805a:	f000 8592 	beq.w	8008b82 <_dtoa_r+0xbb2>
 800805e:	9b21      	ldr	r3, [sp, #132]	; 0x84
 8008060:	b963      	cbnz	r3, 800807c <_dtoa_r+0xac>
 8008062:	4b92      	ldr	r3, [pc, #584]	; (80082ac <_dtoa_r+0x2dc>)
 8008064:	e022      	b.n	80080ac <_dtoa_r+0xdc>
 8008066:	4b92      	ldr	r3, [pc, #584]	; (80082b0 <_dtoa_r+0x2e0>)
 8008068:	9301      	str	r3, [sp, #4]
 800806a:	3308      	adds	r3, #8
 800806c:	9a21      	ldr	r2, [sp, #132]	; 0x84
 800806e:	6013      	str	r3, [r2, #0]
 8008070:	9801      	ldr	r0, [sp, #4]
 8008072:	b013      	add	sp, #76	; 0x4c
 8008074:	ecbd 8b04 	vpop	{d8-d9}
 8008078:	e8bd 8ff0 	ldmia.w	sp!, {r4, r5, r6, r7, r8, r9, sl, fp, pc}
 800807c:	4b8b      	ldr	r3, [pc, #556]	; (80082ac <_dtoa_r+0x2dc>)
 800807e:	9301      	str	r3, [sp, #4]
 8008080:	3303      	adds	r3, #3
 8008082:	e7f3      	b.n	800806c <_dtoa_r+0x9c>
 8008084:	2200      	movs	r2, #0
 8008086:	2300      	movs	r3, #0
 8008088:	4650      	mov	r0, sl
 800808a:	4659      	mov	r1, fp
 800808c:	f7f8 fd24 	bl	8000ad8 <__aeabi_dcmpeq>
 8008090:	ec4b ab19 	vmov	d9, sl, fp
 8008094:	4680      	mov	r8, r0
 8008096:	b158      	cbz	r0, 80080b0 <_dtoa_r+0xe0>
 8008098:	9a0c      	ldr	r2, [sp, #48]	; 0x30
 800809a:	2301      	movs	r3, #1
 800809c:	6013      	str	r3, [r2, #0]
 800809e:	9b21      	ldr	r3, [sp, #132]	; 0x84
 80080a0:	2b00      	cmp	r3, #0
 80080a2:	f000 856b 	beq.w	8008b7c <_dtoa_r+0xbac>
 80080a6:	4883      	ldr	r0, [pc, #524]	; (80082b4 <_dtoa_r+0x2e4>)
 80080a8:	6018      	str	r0, [r3, #0]
 80080aa:	1e43      	subs	r3, r0, #1
 80080ac:	9301      	str	r3, [sp, #4]
 80080ae:	e7df      	b.n	8008070 <_dtoa_r+0xa0>
 80080b0:	ec4b ab10 	vmov	d0, sl, fp
 80080b4:	aa10      	add	r2, sp, #64	; 0x40
 80080b6:	a911      	add	r1, sp, #68	; 0x44
 80080b8:	4620      	mov	r0, r4
 80080ba:	f001 fadd 	bl	8009678 <__d2b>
 80080be:	f3cb 550a 	ubfx	r5, fp, #20, #11
 80080c2:	ee08 0a10 	vmov	s16, r0
 80080c6:	2d00      	cmp	r5, #0
 80080c8:	f000 8084 	beq.w	80081d4 <_dtoa_r+0x204>
 80080cc:	ee19 3a90 	vmov	r3, s19
 80080d0:	f3c3 0313 	ubfx	r3, r3, #0, #20
 80080d4:	f043 577f 	orr.w	r7, r3, #1069547520	; 0x3fc00000
 80080d8:	4656      	mov	r6, sl
 80080da:	f447 1740 	orr.w	r7, r7, #3145728	; 0x300000
 80080de:	f2a5 35ff 	subw	r5, r5, #1023	; 0x3ff
 80080e2:	f8cd 8038 	str.w	r8, [sp, #56]	; 0x38
 80080e6:	4b74      	ldr	r3, [pc, #464]	; (80082b8 <_dtoa_r+0x2e8>)
 80080e8:	2200      	movs	r2, #0
 80080ea:	4630      	mov	r0, r6
 80080ec:	4639      	mov	r1, r7
 80080ee:	f7f8 f8d3 	bl	8000298 <__aeabi_dsub>
 80080f2:	a365      	add	r3, pc, #404	; (adr r3, 8008288 <_dtoa_r+0x2b8>)
 80080f4:	e9d3 2300 	ldrd	r2, r3, [r3]
 80080f8:	f7f8 fa86 	bl	8000608 <__aeabi_dmul>
 80080fc:	a364      	add	r3, pc, #400	; (adr r3, 8008290 <_dtoa_r+0x2c0>)
 80080fe:	e9d3 2300 	ldrd	r2, r3, [r3]
 8008102:	f7f8 f8cb 	bl	800029c <__adddf3>
 8008106:	4606      	mov	r6, r0
 8008108:	4628      	mov	r0, r5
 800810a:	460f      	mov	r7, r1
 800810c:	f7f8 fa12 	bl	8000534 <__aeabi_i2d>
 8008110:	a361      	add	r3, pc, #388	; (adr r3, 8008298 <_dtoa_r+0x2c8>)
 8008112:	e9d3 2300 	ldrd	r2, r3, [r3]
 8008116:	f7f8 fa77 	bl	8000608 <__aeabi_dmul>
 800811a:	4602      	mov	r2, r0
 800811c:	460b      	mov	r3, r1
 800811e:	4630      	mov	r0, r6
 8008120:	4639      	mov	r1, r7
 8008122:	f7f8 f8bb 	bl	800029c <__adddf3>
 8008126:	4606      	mov	r6, r0
 8008128:	460f      	mov	r7, r1
 800812a:	f7f8 fd1d 	bl	8000b68 <__aeabi_d2iz>
 800812e:	2200      	movs	r2, #0
 8008130:	9000      	str	r0, [sp, #0]
 8008132:	2300      	movs	r3, #0
 8008134:	4630      	mov	r0, r6
 8008136:	4639      	mov	r1, r7
 8008138:	f7f8 fcd8 	bl	8000aec <__aeabi_dcmplt>
 800813c:	b150      	cbz	r0, 8008154 <_dtoa_r+0x184>
 800813e:	9800      	ldr	r0, [sp, #0]
 8008140:	f7f8 f9f8 	bl	8000534 <__aeabi_i2d>
 8008144:	4632      	mov	r2, r6
 8008146:	463b      	mov	r3, r7
 8008148:	f7f8 fcc6 	bl	8000ad8 <__aeabi_dcmpeq>
 800814c:	b910      	cbnz	r0, 8008154 <_dtoa_r+0x184>
 800814e:	9b00      	ldr	r3, [sp, #0]
 8008150:	3b01      	subs	r3, #1
 8008152:	9300      	str	r3, [sp, #0]
 8008154:	9b00      	ldr	r3, [sp, #0]
 8008156:	2b16      	cmp	r3, #22
 8008158:	d85a      	bhi.n	8008210 <_dtoa_r+0x240>
 800815a:	9a00      	ldr	r2, [sp, #0]
 800815c:	4b57      	ldr	r3, [pc, #348]	; (80082bc <_dtoa_r+0x2ec>)
 800815e:	eb03 03c2 	add.w	r3, r3, r2, lsl #3
 8008162:	e9d3 2300 	ldrd	r2, r3, [r3]
 8008166:	ec51 0b19 	vmov	r0, r1, d9
 800816a:	f7f8 fcbf 	bl	8000aec <__aeabi_dcmplt>
 800816e:	2800      	cmp	r0, #0
 8008170:	d050      	beq.n	8008214 <_dtoa_r+0x244>
 8008172:	9b00      	ldr	r3, [sp, #0]
 8008174:	3b01      	subs	r3, #1
 8008176:	9300      	str	r3, [sp, #0]
 8008178:	2300      	movs	r3, #0
 800817a:	930b      	str	r3, [sp, #44]	; 0x2c
 800817c:	9b10      	ldr	r3, [sp, #64]	; 0x40
 800817e:	1b5d      	subs	r5, r3, r5
 8008180:	1e6b      	subs	r3, r5, #1
 8008182:	9305      	str	r3, [sp, #20]
 8008184:	bf45      	ittet	mi
 8008186:	f1c5 0301 	rsbmi	r3, r5, #1
 800818a:	9304      	strmi	r3, [sp, #16]
 800818c:	2300      	movpl	r3, #0
 800818e:	2300      	movmi	r3, #0
 8008190:	bf4c      	ite	mi
 8008192:	9305      	strmi	r3, [sp, #20]
 8008194:	9304      	strpl	r3, [sp, #16]
 8008196:	9b00      	ldr	r3, [sp, #0]
 8008198:	2b00      	cmp	r3, #0
 800819a:	db3d      	blt.n	8008218 <_dtoa_r+0x248>
 800819c:	9b05      	ldr	r3, [sp, #20]
 800819e:	9a00      	ldr	r2, [sp, #0]
 80081a0:	920a      	str	r2, [sp, #40]	; 0x28
 80081a2:	4413      	add	r3, r2
 80081a4:	9305      	str	r3, [sp, #20]
 80081a6:	2300      	movs	r3, #0
 80081a8:	9307      	str	r3, [sp, #28]
 80081aa:	9b06      	ldr	r3, [sp, #24]
 80081ac:	2b09      	cmp	r3, #9
 80081ae:	f200 8089 	bhi.w	80082c4 <_dtoa_r+0x2f4>
 80081b2:	2b05      	cmp	r3, #5
 80081b4:	bfc4      	itt	gt
 80081b6:	3b04      	subgt	r3, #4
 80081b8:	9306      	strgt	r3, [sp, #24]
 80081ba:	9b06      	ldr	r3, [sp, #24]
 80081bc:	f1a3 0302 	sub.w	r3, r3, #2
 80081c0:	bfcc      	ite	gt
 80081c2:	2500      	movgt	r5, #0
 80081c4:	2501      	movle	r5, #1
 80081c6:	2b03      	cmp	r3, #3
 80081c8:	f200 8087 	bhi.w	80082da <_dtoa_r+0x30a>
 80081cc:	e8df f003 	tbb	[pc, r3]
 80081d0:	59383a2d 	.word	0x59383a2d
 80081d4:	e9dd 5310 	ldrd	r5, r3, [sp, #64]	; 0x40
 80081d8:	441d      	add	r5, r3
 80081da:	f205 4332 	addw	r3, r5, #1074	; 0x432
 80081de:	2b20      	cmp	r3, #32
 80081e0:	bfc1      	itttt	gt
 80081e2:	f1c3 0340 	rsbgt	r3, r3, #64	; 0x40
 80081e6:	f205 4012 	addwgt	r0, r5, #1042	; 0x412
 80081ea:	fa0b f303 	lslgt.w	r3, fp, r3
 80081ee:	fa26 f000 	lsrgt.w	r0, r6, r0
 80081f2:	bfda      	itte	le
 80081f4:	f1c3 0320 	rsble	r3, r3, #32
 80081f8:	fa06 f003 	lslle.w	r0, r6, r3
 80081fc:	4318      	orrgt	r0, r3
 80081fe:	f7f8 f989 	bl	8000514 <__aeabi_ui2d>
 8008202:	2301      	movs	r3, #1
 8008204:	4606      	mov	r6, r0
 8008206:	f1a1 77f8 	sub.w	r7, r1, #32505856	; 0x1f00000
 800820a:	3d01      	subs	r5, #1
 800820c:	930e      	str	r3, [sp, #56]	; 0x38
 800820e:	e76a      	b.n	80080e6 <_dtoa_r+0x116>
 8008210:	2301      	movs	r3, #1
 8008212:	e7b2      	b.n	800817a <_dtoa_r+0x1aa>
 8008214:	900b      	str	r0, [sp, #44]	; 0x2c
 8008216:	e7b1      	b.n	800817c <_dtoa_r+0x1ac>
 8008218:	9b04      	ldr	r3, [sp, #16]
 800821a:	9a00      	ldr	r2, [sp, #0]
 800821c:	1a9b      	subs	r3, r3, r2
 800821e:	9304      	str	r3, [sp, #16]
 8008220:	4253      	negs	r3, r2
 8008222:	9307      	str	r3, [sp, #28]
 8008224:	2300      	movs	r3, #0
 8008226:	930a      	str	r3, [sp, #40]	; 0x28
 8008228:	e7bf      	b.n	80081aa <_dtoa_r+0x1da>
 800822a:	2300      	movs	r3, #0
 800822c:	9308      	str	r3, [sp, #32]
 800822e:	9b09      	ldr	r3, [sp, #36]	; 0x24
 8008230:	2b00      	cmp	r3, #0
 8008232:	dc55      	bgt.n	80082e0 <_dtoa_r+0x310>
 8008234:	2301      	movs	r3, #1
 8008236:	e9cd 3302 	strd	r3, r3, [sp, #8]
 800823a:	461a      	mov	r2, r3
 800823c:	9209      	str	r2, [sp, #36]	; 0x24
 800823e:	e00c      	b.n	800825a <_dtoa_r+0x28a>
 8008240:	2301      	movs	r3, #1
 8008242:	e7f3      	b.n	800822c <_dtoa_r+0x25c>
 8008244:	2300      	movs	r3, #0
 8008246:	9a09      	ldr	r2, [sp, #36]	; 0x24
 8008248:	9308      	str	r3, [sp, #32]
 800824a:	9b00      	ldr	r3, [sp, #0]
 800824c:	4413      	add	r3, r2
 800824e:	9302      	str	r3, [sp, #8]
 8008250:	3301      	adds	r3, #1
 8008252:	2b01      	cmp	r3, #1
 8008254:	9303      	str	r3, [sp, #12]
 8008256:	bfb8      	it	lt
 8008258:	2301      	movlt	r3, #1
 800825a:	6a60      	ldr	r0, [r4, #36]	; 0x24
 800825c:	2200      	movs	r2, #0
 800825e:	6042      	str	r2, [r0, #4]
 8008260:	2204      	movs	r2, #4
 8008262:	f102 0614 	add.w	r6, r2, #20
 8008266:	429e      	cmp	r6, r3
 8008268:	6841      	ldr	r1, [r0, #4]
 800826a:	d93d      	bls.n	80082e8 <_dtoa_r+0x318>
 800826c:	4620      	mov	r0, r4
 800826e:	f000 fedb 	bl	8009028 <_Balloc>
 8008272:	9001      	str	r0, [sp, #4]
 8008274:	2800      	cmp	r0, #0
 8008276:	d13b      	bne.n	80082f0 <_dtoa_r+0x320>
 8008278:	4b11      	ldr	r3, [pc, #68]	; (80082c0 <_dtoa_r+0x2f0>)
 800827a:	4602      	mov	r2, r0
 800827c:	f44f 71d5 	mov.w	r1, #426	; 0x1aa
 8008280:	e6c0      	b.n	8008004 <_dtoa_r+0x34>
 8008282:	2301      	movs	r3, #1
 8008284:	e7df      	b.n	8008246 <_dtoa_r+0x276>
 8008286:	bf00      	nop
 8008288:	636f4361 	.word	0x636f4361
 800828c:	3fd287a7 	.word	0x3fd287a7
 8008290:	8b60c8b3 	.word	0x8b60c8b3
 8008294:	3fc68a28 	.word	0x3fc68a28
 8008298:	509f79fb 	.word	0x509f79fb
 800829c:	3fd34413 	.word	0x3fd34413
 80082a0:	0800a275 	.word	0x0800a275
 80082a4:	0800a28c 	.word	0x0800a28c
 80082a8:	7ff00000 	.word	0x7ff00000
 80082ac:	0800a271 	.word	0x0800a271
 80082b0:	0800a268 	.word	0x0800a268
 80082b4:	0800a245 	.word	0x0800a245
 80082b8:	3ff80000 	.word	0x3ff80000
 80082bc:	0800a3e0 	.word	0x0800a3e0
 80082c0:	0800a2e7 	.word	0x0800a2e7
 80082c4:	2501      	movs	r5, #1
 80082c6:	2300      	movs	r3, #0
 80082c8:	9306      	str	r3, [sp, #24]
 80082ca:	9508      	str	r5, [sp, #32]
 80082cc:	f04f 33ff 	mov.w	r3, #4294967295
 80082d0:	e9cd 3302 	strd	r3, r3, [sp, #8]
 80082d4:	2200      	movs	r2, #0
 80082d6:	2312      	movs	r3, #18
 80082d8:	e7b0      	b.n	800823c <_dtoa_r+0x26c>
 80082da:	2301      	movs	r3, #1
 80082dc:	9308      	str	r3, [sp, #32]
 80082de:	e7f5      	b.n	80082cc <_dtoa_r+0x2fc>
 80082e0:	9b09      	ldr	r3, [sp, #36]	; 0x24
 80082e2:	e9cd 3302 	strd	r3, r3, [sp, #8]
 80082e6:	e7b8      	b.n	800825a <_dtoa_r+0x28a>
 80082e8:	3101      	adds	r1, #1
 80082ea:	6041      	str	r1, [r0, #4]
 80082ec:	0052      	lsls	r2, r2, #1
 80082ee:	e7b8      	b.n	8008262 <_dtoa_r+0x292>
 80082f0:	6a63      	ldr	r3, [r4, #36]	; 0x24
 80082f2:	9a01      	ldr	r2, [sp, #4]
 80082f4:	601a      	str	r2, [r3, #0]
 80082f6:	9b03      	ldr	r3, [sp, #12]
 80082f8:	2b0e      	cmp	r3, #14
 80082fa:	f200 809d 	bhi.w	8008438 <_dtoa_r+0x468>
 80082fe:	2d00      	cmp	r5, #0
 8008300:	f000 809a 	beq.w	8008438 <_dtoa_r+0x468>
 8008304:	9b00      	ldr	r3, [sp, #0]
 8008306:	2b00      	cmp	r3, #0
 8008308:	dd32      	ble.n	8008370 <_dtoa_r+0x3a0>
 800830a:	4ab7      	ldr	r2, [pc, #732]	; (80085e8 <_dtoa_r+0x618>)
 800830c:	f003 030f 	and.w	r3, r3, #15
 8008310:	eb02 03c3 	add.w	r3, r2, r3, lsl #3
 8008314:	e9d3 8900 	ldrd	r8, r9, [r3]
 8008318:	9b00      	ldr	r3, [sp, #0]
 800831a:	05d8      	lsls	r0, r3, #23
 800831c:	ea4f 1723 	mov.w	r7, r3, asr #4
 8008320:	d516      	bpl.n	8008350 <_dtoa_r+0x380>
 8008322:	4bb2      	ldr	r3, [pc, #712]	; (80085ec <_dtoa_r+0x61c>)
 8008324:	ec51 0b19 	vmov	r0, r1, d9
 8008328:	e9d3 2308 	ldrd	r2, r3, [r3, #32]
 800832c:	f7f8 fa96 	bl	800085c <__aeabi_ddiv>
 8008330:	f007 070f 	and.w	r7, r7, #15
 8008334:	4682      	mov	sl, r0
 8008336:	468b      	mov	fp, r1
 8008338:	2503      	movs	r5, #3
 800833a:	4eac      	ldr	r6, [pc, #688]	; (80085ec <_dtoa_r+0x61c>)
 800833c:	b957      	cbnz	r7, 8008354 <_dtoa_r+0x384>
 800833e:	4642      	mov	r2, r8
 8008340:	464b      	mov	r3, r9
 8008342:	4650      	mov	r0, sl
 8008344:	4659      	mov	r1, fp
 8008346:	f7f8 fa89 	bl	800085c <__aeabi_ddiv>
 800834a:	4682      	mov	sl, r0
 800834c:	468b      	mov	fp, r1
 800834e:	e028      	b.n	80083a2 <_dtoa_r+0x3d2>
 8008350:	2502      	movs	r5, #2
 8008352:	e7f2      	b.n	800833a <_dtoa_r+0x36a>
 8008354:	07f9      	lsls	r1, r7, #31
 8008356:	d508      	bpl.n	800836a <_dtoa_r+0x39a>
 8008358:	4640      	mov	r0, r8
 800835a:	4649      	mov	r1, r9
 800835c:	e9d6 2300 	ldrd	r2, r3, [r6]
 8008360:	f7f8 f952 	bl	8000608 <__aeabi_dmul>
 8008364:	3501      	adds	r5, #1
 8008366:	4680      	mov	r8, r0
 8008368:	4689      	mov	r9, r1
 800836a:	107f      	asrs	r7, r7, #1
 800836c:	3608      	adds	r6, #8
 800836e:	e7e5      	b.n	800833c <_dtoa_r+0x36c>
 8008370:	f000 809b 	beq.w	80084aa <_dtoa_r+0x4da>
 8008374:	9b00      	ldr	r3, [sp, #0]
 8008376:	4f9d      	ldr	r7, [pc, #628]	; (80085ec <_dtoa_r+0x61c>)
 8008378:	425e      	negs	r6, r3
 800837a:	4b9b      	ldr	r3, [pc, #620]	; (80085e8 <_dtoa_r+0x618>)
 800837c:	f006 020f 	and.w	r2, r6, #15
 8008380:	eb03 03c2 	add.w	r3, r3, r2, lsl #3
 8008384:	e9d3 2300 	ldrd	r2, r3, [r3]
 8008388:	ec51 0b19 	vmov	r0, r1, d9
 800838c:	f7f8 f93c 	bl	8000608 <__aeabi_dmul>
 8008390:	1136      	asrs	r6, r6, #4
 8008392:	4682      	mov	sl, r0
 8008394:	468b      	mov	fp, r1
 8008396:	2300      	movs	r3, #0
 8008398:	2502      	movs	r5, #2
 800839a:	2e00      	cmp	r6, #0
 800839c:	d17a      	bne.n	8008494 <_dtoa_r+0x4c4>
 800839e:	2b00      	cmp	r3, #0
 80083a0:	d1d3      	bne.n	800834a <_dtoa_r+0x37a>
 80083a2:	9b0b      	ldr	r3, [sp, #44]	; 0x2c
 80083a4:	2b00      	cmp	r3, #0
 80083a6:	f000 8082 	beq.w	80084ae <_dtoa_r+0x4de>
 80083aa:	4b91      	ldr	r3, [pc, #580]	; (80085f0 <_dtoa_r+0x620>)
 80083ac:	2200      	movs	r2, #0
 80083ae:	4650      	mov	r0, sl
 80083b0:	4659      	mov	r1, fp
 80083b2:	f7f8 fb9b 	bl	8000aec <__aeabi_dcmplt>
 80083b6:	2800      	cmp	r0, #0
 80083b8:	d079      	beq.n	80084ae <_dtoa_r+0x4de>
 80083ba:	9b03      	ldr	r3, [sp, #12]
 80083bc:	2b00      	cmp	r3, #0
 80083be:	d076      	beq.n	80084ae <_dtoa_r+0x4de>
 80083c0:	9b02      	ldr	r3, [sp, #8]
 80083c2:	2b00      	cmp	r3, #0
 80083c4:	dd36      	ble.n	8008434 <_dtoa_r+0x464>
 80083c6:	9b00      	ldr	r3, [sp, #0]
 80083c8:	4650      	mov	r0, sl
 80083ca:	4659      	mov	r1, fp
 80083cc:	1e5f      	subs	r7, r3, #1
 80083ce:	2200      	movs	r2, #0
 80083d0:	4b88      	ldr	r3, [pc, #544]	; (80085f4 <_dtoa_r+0x624>)
 80083d2:	f7f8 f919 	bl	8000608 <__aeabi_dmul>
 80083d6:	9e02      	ldr	r6, [sp, #8]
 80083d8:	4682      	mov	sl, r0
 80083da:	468b      	mov	fp, r1
 80083dc:	3501      	adds	r5, #1
 80083de:	4628      	mov	r0, r5
 80083e0:	f7f8 f8a8 	bl	8000534 <__aeabi_i2d>
 80083e4:	4652      	mov	r2, sl
 80083e6:	465b      	mov	r3, fp
 80083e8:	f7f8 f90e 	bl	8000608 <__aeabi_dmul>
 80083ec:	4b82      	ldr	r3, [pc, #520]	; (80085f8 <_dtoa_r+0x628>)
 80083ee:	2200      	movs	r2, #0
 80083f0:	f7f7 ff54 	bl	800029c <__adddf3>
 80083f4:	46d0      	mov	r8, sl
 80083f6:	46d9      	mov	r9, fp
 80083f8:	4682      	mov	sl, r0
 80083fa:	f1a1 7b50 	sub.w	fp, r1, #54525952	; 0x3400000
 80083fe:	2e00      	cmp	r6, #0
 8008400:	d158      	bne.n	80084b4 <_dtoa_r+0x4e4>
 8008402:	4b7e      	ldr	r3, [pc, #504]	; (80085fc <_dtoa_r+0x62c>)
 8008404:	2200      	movs	r2, #0
 8008406:	4640      	mov	r0, r8
 8008408:	4649      	mov	r1, r9
 800840a:	f7f7 ff45 	bl	8000298 <__aeabi_dsub>
 800840e:	4652      	mov	r2, sl
 8008410:	465b      	mov	r3, fp
 8008412:	4680      	mov	r8, r0
 8008414:	4689      	mov	r9, r1
 8008416:	f7f8 fb87 	bl	8000b28 <__aeabi_dcmpgt>
 800841a:	2800      	cmp	r0, #0
 800841c:	f040 8295 	bne.w	800894a <_dtoa_r+0x97a>
 8008420:	4652      	mov	r2, sl
 8008422:	f10b 4300 	add.w	r3, fp, #2147483648	; 0x80000000
 8008426:	4640      	mov	r0, r8
 8008428:	4649      	mov	r1, r9
 800842a:	f7f8 fb5f 	bl	8000aec <__aeabi_dcmplt>
 800842e:	2800      	cmp	r0, #0
 8008430:	f040 8289 	bne.w	8008946 <_dtoa_r+0x976>
 8008434:	ec5b ab19 	vmov	sl, fp, d9
 8008438:	9b11      	ldr	r3, [sp, #68]	; 0x44
 800843a:	2b00      	cmp	r3, #0
 800843c:	f2c0 8148 	blt.w	80086d0 <_dtoa_r+0x700>
 8008440:	9a00      	ldr	r2, [sp, #0]
 8008442:	2a0e      	cmp	r2, #14
 8008444:	f300 8144 	bgt.w	80086d0 <_dtoa_r+0x700>
 8008448:	4b67      	ldr	r3, [pc, #412]	; (80085e8 <_dtoa_r+0x618>)
 800844a:	eb03 03c2 	add.w	r3, r3, r2, lsl #3
 800844e:	e9d3 8900 	ldrd	r8, r9, [r3]
 8008452:	9b09      	ldr	r3, [sp, #36]	; 0x24
 8008454:	2b00      	cmp	r3, #0
 8008456:	f280 80d5 	bge.w	8008604 <_dtoa_r+0x634>
 800845a:	9b03      	ldr	r3, [sp, #12]
 800845c:	2b00      	cmp	r3, #0
 800845e:	f300 80d1 	bgt.w	8008604 <_dtoa_r+0x634>
 8008462:	f040 826f 	bne.w	8008944 <_dtoa_r+0x974>
 8008466:	4b65      	ldr	r3, [pc, #404]	; (80085fc <_dtoa_r+0x62c>)
 8008468:	2200      	movs	r2, #0
 800846a:	4640      	mov	r0, r8
 800846c:	4649      	mov	r1, r9
 800846e:	f7f8 f8cb 	bl	8000608 <__aeabi_dmul>
 8008472:	4652      	mov	r2, sl
 8008474:	465b      	mov	r3, fp
 8008476:	f7f8 fb4d 	bl	8000b14 <__aeabi_dcmpge>
 800847a:	9e03      	ldr	r6, [sp, #12]
 800847c:	4637      	mov	r7, r6
 800847e:	2800      	cmp	r0, #0
 8008480:	f040 8245 	bne.w	800890e <_dtoa_r+0x93e>
 8008484:	9d01      	ldr	r5, [sp, #4]
 8008486:	2331      	movs	r3, #49	; 0x31
 8008488:	f805 3b01 	strb.w	r3, [r5], #1
 800848c:	9b00      	ldr	r3, [sp, #0]
 800848e:	3301      	adds	r3, #1
 8008490:	9300      	str	r3, [sp, #0]
 8008492:	e240      	b.n	8008916 <_dtoa_r+0x946>
 8008494:	07f2      	lsls	r2, r6, #31
 8008496:	d505      	bpl.n	80084a4 <_dtoa_r+0x4d4>
 8008498:	e9d7 2300 	ldrd	r2, r3, [r7]
 800849c:	f7f8 f8b4 	bl	8000608 <__aeabi_dmul>
 80084a0:	3501      	adds	r5, #1
 80084a2:	2301      	movs	r3, #1
 80084a4:	1076      	asrs	r6, r6, #1
 80084a6:	3708      	adds	r7, #8
 80084a8:	e777      	b.n	800839a <_dtoa_r+0x3ca>
 80084aa:	2502      	movs	r5, #2
 80084ac:	e779      	b.n	80083a2 <_dtoa_r+0x3d2>
 80084ae:	9f00      	ldr	r7, [sp, #0]
 80084b0:	9e03      	ldr	r6, [sp, #12]
 80084b2:	e794      	b.n	80083de <_dtoa_r+0x40e>
 80084b4:	9901      	ldr	r1, [sp, #4]
 80084b6:	4b4c      	ldr	r3, [pc, #304]	; (80085e8 <_dtoa_r+0x618>)
 80084b8:	4431      	add	r1, r6
 80084ba:	910d      	str	r1, [sp, #52]	; 0x34
 80084bc:	9908      	ldr	r1, [sp, #32]
 80084be:	eb03 03c6 	add.w	r3, r3, r6, lsl #3
 80084c2:	e953 2302 	ldrd	r2, r3, [r3, #-8]
 80084c6:	2900      	cmp	r1, #0
 80084c8:	d043      	beq.n	8008552 <_dtoa_r+0x582>
 80084ca:	494d      	ldr	r1, [pc, #308]	; (8008600 <_dtoa_r+0x630>)
 80084cc:	2000      	movs	r0, #0
 80084ce:	f7f8 f9c5 	bl	800085c <__aeabi_ddiv>
 80084d2:	4652      	mov	r2, sl
 80084d4:	465b      	mov	r3, fp
 80084d6:	f7f7 fedf 	bl	8000298 <__aeabi_dsub>
 80084da:	9d01      	ldr	r5, [sp, #4]
 80084dc:	4682      	mov	sl, r0
 80084de:	468b      	mov	fp, r1
 80084e0:	4649      	mov	r1, r9
 80084e2:	4640      	mov	r0, r8
 80084e4:	f7f8 fb40 	bl	8000b68 <__aeabi_d2iz>
 80084e8:	4606      	mov	r6, r0
 80084ea:	f7f8 f823 	bl	8000534 <__aeabi_i2d>
 80084ee:	4602      	mov	r2, r0
 80084f0:	460b      	mov	r3, r1
 80084f2:	4640      	mov	r0, r8
 80084f4:	4649      	mov	r1, r9
 80084f6:	f7f7 fecf 	bl	8000298 <__aeabi_dsub>
 80084fa:	3630      	adds	r6, #48	; 0x30
 80084fc:	f805 6b01 	strb.w	r6, [r5], #1
 8008500:	4652      	mov	r2, sl
 8008502:	465b      	mov	r3, fp
 8008504:	4680      	mov	r8, r0
 8008506:	4689      	mov	r9, r1
 8008508:	f7f8 faf0 	bl	8000aec <__aeabi_dcmplt>
 800850c:	2800      	cmp	r0, #0
 800850e:	d163      	bne.n	80085d8 <_dtoa_r+0x608>
 8008510:	4642      	mov	r2, r8
 8008512:	464b      	mov	r3, r9
 8008514:	4936      	ldr	r1, [pc, #216]	; (80085f0 <_dtoa_r+0x620>)
 8008516:	2000      	movs	r0, #0
 8008518:	f7f7 febe 	bl	8000298 <__aeabi_dsub>
 800851c:	4652      	mov	r2, sl
 800851e:	465b      	mov	r3, fp
 8008520:	f7f8 fae4 	bl	8000aec <__aeabi_dcmplt>
 8008524:	2800      	cmp	r0, #0
 8008526:	f040 80b5 	bne.w	8008694 <_dtoa_r+0x6c4>
 800852a:	9b0d      	ldr	r3, [sp, #52]	; 0x34
 800852c:	429d      	cmp	r5, r3
 800852e:	d081      	beq.n	8008434 <_dtoa_r+0x464>
 8008530:	4b30      	ldr	r3, [pc, #192]	; (80085f4 <_dtoa_r+0x624>)
 8008532:	2200      	movs	r2, #0
 8008534:	4650      	mov	r0, sl
 8008536:	4659      	mov	r1, fp
 8008538:	f7f8 f866 	bl	8000608 <__aeabi_dmul>
 800853c:	4b2d      	ldr	r3, [pc, #180]	; (80085f4 <_dtoa_r+0x624>)
 800853e:	4682      	mov	sl, r0
 8008540:	468b      	mov	fp, r1
 8008542:	4640      	mov	r0, r8
 8008544:	4649      	mov	r1, r9
 8008546:	2200      	movs	r2, #0
 8008548:	f7f8 f85e 	bl	8000608 <__aeabi_dmul>
 800854c:	4680      	mov	r8, r0
 800854e:	4689      	mov	r9, r1
 8008550:	e7c6      	b.n	80084e0 <_dtoa_r+0x510>
 8008552:	4650      	mov	r0, sl
 8008554:	4659      	mov	r1, fp
 8008556:	f7f8 f857 	bl	8000608 <__aeabi_dmul>
 800855a:	9b0d      	ldr	r3, [sp, #52]	; 0x34
 800855c:	9d01      	ldr	r5, [sp, #4]
 800855e:	930f      	str	r3, [sp, #60]	; 0x3c
 8008560:	4682      	mov	sl, r0
 8008562:	468b      	mov	fp, r1
 8008564:	4649      	mov	r1, r9
 8008566:	4640      	mov	r0, r8
 8008568:	f7f8 fafe 	bl	8000b68 <__aeabi_d2iz>
 800856c:	4606      	mov	r6, r0
 800856e:	f7f7 ffe1 	bl	8000534 <__aeabi_i2d>
 8008572:	3630      	adds	r6, #48	; 0x30
 8008574:	4602      	mov	r2, r0
 8008576:	460b      	mov	r3, r1
 8008578:	4640      	mov	r0, r8
 800857a:	4649      	mov	r1, r9
 800857c:	f7f7 fe8c 	bl	8000298 <__aeabi_dsub>
 8008580:	f805 6b01 	strb.w	r6, [r5], #1
 8008584:	9b0d      	ldr	r3, [sp, #52]	; 0x34
 8008586:	429d      	cmp	r5, r3
 8008588:	4680      	mov	r8, r0
 800858a:	4689      	mov	r9, r1
 800858c:	f04f 0200 	mov.w	r2, #0
 8008590:	d124      	bne.n	80085dc <_dtoa_r+0x60c>
 8008592:	4b1b      	ldr	r3, [pc, #108]	; (8008600 <_dtoa_r+0x630>)
 8008594:	4650      	mov	r0, sl
 8008596:	4659      	mov	r1, fp
 8008598:	f7f7 fe80 	bl	800029c <__adddf3>
 800859c:	4602      	mov	r2, r0
 800859e:	460b      	mov	r3, r1
 80085a0:	4640      	mov	r0, r8
 80085a2:	4649      	mov	r1, r9
 80085a4:	f7f8 fac0 	bl	8000b28 <__aeabi_dcmpgt>
 80085a8:	2800      	cmp	r0, #0
 80085aa:	d173      	bne.n	8008694 <_dtoa_r+0x6c4>
 80085ac:	4652      	mov	r2, sl
 80085ae:	465b      	mov	r3, fp
 80085b0:	4913      	ldr	r1, [pc, #76]	; (8008600 <_dtoa_r+0x630>)
 80085b2:	2000      	movs	r0, #0
 80085b4:	f7f7 fe70 	bl	8000298 <__aeabi_dsub>
 80085b8:	4602      	mov	r2, r0
 80085ba:	460b      	mov	r3, r1
 80085bc:	4640      	mov	r0, r8
 80085be:	4649      	mov	r1, r9
 80085c0:	f7f8 fa94 	bl	8000aec <__aeabi_dcmplt>
 80085c4:	2800      	cmp	r0, #0
 80085c6:	f43f af35 	beq.w	8008434 <_dtoa_r+0x464>
 80085ca:	9d0f      	ldr	r5, [sp, #60]	; 0x3c
 80085cc:	1e6b      	subs	r3, r5, #1
 80085ce:	930f      	str	r3, [sp, #60]	; 0x3c
 80085d0:	f815 3c01 	ldrb.w	r3, [r5, #-1]
 80085d4:	2b30      	cmp	r3, #48	; 0x30
 80085d6:	d0f8      	beq.n	80085ca <_dtoa_r+0x5fa>
 80085d8:	9700      	str	r7, [sp, #0]
 80085da:	e049      	b.n	8008670 <_dtoa_r+0x6a0>
 80085dc:	4b05      	ldr	r3, [pc, #20]	; (80085f4 <_dtoa_r+0x624>)
 80085de:	f7f8 f813 	bl	8000608 <__aeabi_dmul>
 80085e2:	4680      	mov	r8, r0
 80085e4:	4689      	mov	r9, r1
 80085e6:	e7bd      	b.n	8008564 <_dtoa_r+0x594>
 80085e8:	0800a3e0 	.word	0x0800a3e0
 80085ec:	0800a3b8 	.word	0x0800a3b8
 80085f0:	3ff00000 	.word	0x3ff00000
 80085f4:	40240000 	.word	0x40240000
 80085f8:	401c0000 	.word	0x401c0000
 80085fc:	40140000 	.word	0x40140000
 8008600:	3fe00000 	.word	0x3fe00000
 8008604:	9d01      	ldr	r5, [sp, #4]
 8008606:	4656      	mov	r6, sl
 8008608:	465f      	mov	r7, fp
 800860a:	4642      	mov	r2, r8
 800860c:	464b      	mov	r3, r9
 800860e:	4630      	mov	r0, r6
 8008610:	4639      	mov	r1, r7
 8008612:	f7f8 f923 	bl	800085c <__aeabi_ddiv>
 8008616:	f7f8 faa7 	bl	8000b68 <__aeabi_d2iz>
 800861a:	4682      	mov	sl, r0
 800861c:	f7f7 ff8a 	bl	8000534 <__aeabi_i2d>
 8008620:	4642      	mov	r2, r8
 8008622:	464b      	mov	r3, r9
 8008624:	f7f7 fff0 	bl	8000608 <__aeabi_dmul>
 8008628:	4602      	mov	r2, r0
 800862a:	460b      	mov	r3, r1
 800862c:	4630      	mov	r0, r6
 800862e:	4639      	mov	r1, r7
 8008630:	f10a 0630 	add.w	r6, sl, #48	; 0x30
 8008634:	f7f7 fe30 	bl	8000298 <__aeabi_dsub>
 8008638:	f805 6b01 	strb.w	r6, [r5], #1
 800863c:	9e01      	ldr	r6, [sp, #4]
 800863e:	9f03      	ldr	r7, [sp, #12]
 8008640:	1bae      	subs	r6, r5, r6
 8008642:	42b7      	cmp	r7, r6
 8008644:	4602      	mov	r2, r0
 8008646:	460b      	mov	r3, r1
 8008648:	d135      	bne.n	80086b6 <_dtoa_r+0x6e6>
 800864a:	f7f7 fe27 	bl	800029c <__adddf3>
 800864e:	4642      	mov	r2, r8
 8008650:	464b      	mov	r3, r9
 8008652:	4606      	mov	r6, r0
 8008654:	460f      	mov	r7, r1
 8008656:	f7f8 fa67 	bl	8000b28 <__aeabi_dcmpgt>
 800865a:	b9d0      	cbnz	r0, 8008692 <_dtoa_r+0x6c2>
 800865c:	4642      	mov	r2, r8
 800865e:	464b      	mov	r3, r9
 8008660:	4630      	mov	r0, r6
 8008662:	4639      	mov	r1, r7
 8008664:	f7f8 fa38 	bl	8000ad8 <__aeabi_dcmpeq>
 8008668:	b110      	cbz	r0, 8008670 <_dtoa_r+0x6a0>
 800866a:	f01a 0f01 	tst.w	sl, #1
 800866e:	d110      	bne.n	8008692 <_dtoa_r+0x6c2>
 8008670:	4620      	mov	r0, r4
 8008672:	ee18 1a10 	vmov	r1, s16
 8008676:	f000 fd17 	bl	80090a8 <_Bfree>
 800867a:	2300      	movs	r3, #0
 800867c:	9800      	ldr	r0, [sp, #0]
 800867e:	702b      	strb	r3, [r5, #0]
 8008680:	9b0c      	ldr	r3, [sp, #48]	; 0x30
 8008682:	3001      	adds	r0, #1
 8008684:	6018      	str	r0, [r3, #0]
 8008686:	9b21      	ldr	r3, [sp, #132]	; 0x84
 8008688:	2b00      	cmp	r3, #0
 800868a:	f43f acf1 	beq.w	8008070 <_dtoa_r+0xa0>
 800868e:	601d      	str	r5, [r3, #0]
 8008690:	e4ee      	b.n	8008070 <_dtoa_r+0xa0>
 8008692:	9f00      	ldr	r7, [sp, #0]
 8008694:	462b      	mov	r3, r5
 8008696:	461d      	mov	r5, r3
 8008698:	f813 2d01 	ldrb.w	r2, [r3, #-1]!
 800869c:	2a39      	cmp	r2, #57	; 0x39
 800869e:	d106      	bne.n	80086ae <_dtoa_r+0x6de>
 80086a0:	9a01      	ldr	r2, [sp, #4]
 80086a2:	429a      	cmp	r2, r3
 80086a4:	d1f7      	bne.n	8008696 <_dtoa_r+0x6c6>
 80086a6:	9901      	ldr	r1, [sp, #4]
 80086a8:	2230      	movs	r2, #48	; 0x30
 80086aa:	3701      	adds	r7, #1
 80086ac:	700a      	strb	r2, [r1, #0]
 80086ae:	781a      	ldrb	r2, [r3, #0]
 80086b0:	3201      	adds	r2, #1
 80086b2:	701a      	strb	r2, [r3, #0]
 80086b4:	e790      	b.n	80085d8 <_dtoa_r+0x608>
 80086b6:	4ba6      	ldr	r3, [pc, #664]	; (8008950 <_dtoa_r+0x980>)
 80086b8:	2200      	movs	r2, #0
 80086ba:	f7f7 ffa5 	bl	8000608 <__aeabi_dmul>
 80086be:	2200      	movs	r2, #0
 80086c0:	2300      	movs	r3, #0
 80086c2:	4606      	mov	r6, r0
 80086c4:	460f      	mov	r7, r1
 80086c6:	f7f8 fa07 	bl	8000ad8 <__aeabi_dcmpeq>
 80086ca:	2800      	cmp	r0, #0
 80086cc:	d09d      	beq.n	800860a <_dtoa_r+0x63a>
 80086ce:	e7cf      	b.n	8008670 <_dtoa_r+0x6a0>
 80086d0:	9a08      	ldr	r2, [sp, #32]
 80086d2:	2a00      	cmp	r2, #0
 80086d4:	f000 80d7 	beq.w	8008886 <_dtoa_r+0x8b6>
 80086d8:	9a06      	ldr	r2, [sp, #24]
 80086da:	2a01      	cmp	r2, #1
 80086dc:	f300 80ba 	bgt.w	8008854 <_dtoa_r+0x884>
 80086e0:	9a0e      	ldr	r2, [sp, #56]	; 0x38
 80086e2:	2a00      	cmp	r2, #0
 80086e4:	f000 80b2 	beq.w	800884c <_dtoa_r+0x87c>
 80086e8:	f203 4333 	addw	r3, r3, #1075	; 0x433
 80086ec:	9e07      	ldr	r6, [sp, #28]
 80086ee:	9d04      	ldr	r5, [sp, #16]
 80086f0:	9a04      	ldr	r2, [sp, #16]
 80086f2:	441a      	add	r2, r3
 80086f4:	9204      	str	r2, [sp, #16]
 80086f6:	9a05      	ldr	r2, [sp, #20]
 80086f8:	2101      	movs	r1, #1
 80086fa:	441a      	add	r2, r3
 80086fc:	4620      	mov	r0, r4
 80086fe:	9205      	str	r2, [sp, #20]
 8008700:	f000 fd8a 	bl	8009218 <__i2b>
 8008704:	4607      	mov	r7, r0
 8008706:	2d00      	cmp	r5, #0
 8008708:	dd0c      	ble.n	8008724 <_dtoa_r+0x754>
 800870a:	9b05      	ldr	r3, [sp, #20]
 800870c:	2b00      	cmp	r3, #0
 800870e:	dd09      	ble.n	8008724 <_dtoa_r+0x754>
 8008710:	42ab      	cmp	r3, r5
 8008712:	9a04      	ldr	r2, [sp, #16]
 8008714:	bfa8      	it	ge
 8008716:	462b      	movge	r3, r5
 8008718:	1ad2      	subs	r2, r2, r3
 800871a:	9204      	str	r2, [sp, #16]
 800871c:	9a05      	ldr	r2, [sp, #20]
 800871e:	1aed      	subs	r5, r5, r3
 8008720:	1ad3      	subs	r3, r2, r3
 8008722:	9305      	str	r3, [sp, #20]
 8008724:	9b07      	ldr	r3, [sp, #28]
 8008726:	b31b      	cbz	r3, 8008770 <_dtoa_r+0x7a0>
 8008728:	9b08      	ldr	r3, [sp, #32]
 800872a:	2b00      	cmp	r3, #0
 800872c:	f000 80af 	beq.w	800888e <_dtoa_r+0x8be>
 8008730:	2e00      	cmp	r6, #0
 8008732:	dd13      	ble.n	800875c <_dtoa_r+0x78c>
 8008734:	4639      	mov	r1, r7
 8008736:	4632      	mov	r2, r6
 8008738:	4620      	mov	r0, r4
 800873a:	f000 fe2d 	bl	8009398 <__pow5mult>
 800873e:	ee18 2a10 	vmov	r2, s16
 8008742:	4601      	mov	r1, r0
 8008744:	4607      	mov	r7, r0
 8008746:	4620      	mov	r0, r4
 8008748:	f000 fd7c 	bl	8009244 <__multiply>
 800874c:	ee18 1a10 	vmov	r1, s16
 8008750:	4680      	mov	r8, r0
 8008752:	4620      	mov	r0, r4
 8008754:	f000 fca8 	bl	80090a8 <_Bfree>
 8008758:	ee08 8a10 	vmov	s16, r8
 800875c:	9b07      	ldr	r3, [sp, #28]
 800875e:	1b9a      	subs	r2, r3, r6
 8008760:	d006      	beq.n	8008770 <_dtoa_r+0x7a0>
 8008762:	ee18 1a10 	vmov	r1, s16
 8008766:	4620      	mov	r0, r4
 8008768:	f000 fe16 	bl	8009398 <__pow5mult>
 800876c:	ee08 0a10 	vmov	s16, r0
 8008770:	2101      	movs	r1, #1
 8008772:	4620      	mov	r0, r4
 8008774:	f000 fd50 	bl	8009218 <__i2b>
 8008778:	9b0a      	ldr	r3, [sp, #40]	; 0x28
 800877a:	2b00      	cmp	r3, #0
 800877c:	4606      	mov	r6, r0
 800877e:	f340 8088 	ble.w	8008892 <_dtoa_r+0x8c2>
 8008782:	461a      	mov	r2, r3
 8008784:	4601      	mov	r1, r0
 8008786:	4620      	mov	r0, r4
 8008788:	f000 fe06 	bl	8009398 <__pow5mult>
 800878c:	9b06      	ldr	r3, [sp, #24]
 800878e:	2b01      	cmp	r3, #1
 8008790:	4606      	mov	r6, r0
 8008792:	f340 8081 	ble.w	8008898 <_dtoa_r+0x8c8>
 8008796:	f04f 0800 	mov.w	r8, #0
 800879a:	6933      	ldr	r3, [r6, #16]
 800879c:	eb06 0383 	add.w	r3, r6, r3, lsl #2
 80087a0:	6918      	ldr	r0, [r3, #16]
 80087a2:	f000 fce9 	bl	8009178 <__hi0bits>
 80087a6:	f1c0 0020 	rsb	r0, r0, #32
 80087aa:	9b05      	ldr	r3, [sp, #20]
 80087ac:	4418      	add	r0, r3
 80087ae:	f010 001f 	ands.w	r0, r0, #31
 80087b2:	f000 8092 	beq.w	80088da <_dtoa_r+0x90a>
 80087b6:	f1c0 0320 	rsb	r3, r0, #32
 80087ba:	2b04      	cmp	r3, #4
 80087bc:	f340 808a 	ble.w	80088d4 <_dtoa_r+0x904>
 80087c0:	f1c0 001c 	rsb	r0, r0, #28
 80087c4:	9b04      	ldr	r3, [sp, #16]
 80087c6:	4403      	add	r3, r0
 80087c8:	9304      	str	r3, [sp, #16]
 80087ca:	9b05      	ldr	r3, [sp, #20]
 80087cc:	4403      	add	r3, r0
 80087ce:	4405      	add	r5, r0
 80087d0:	9305      	str	r3, [sp, #20]
 80087d2:	9b04      	ldr	r3, [sp, #16]
 80087d4:	2b00      	cmp	r3, #0
 80087d6:	dd07      	ble.n	80087e8 <_dtoa_r+0x818>
 80087d8:	ee18 1a10 	vmov	r1, s16
 80087dc:	461a      	mov	r2, r3
 80087de:	4620      	mov	r0, r4
 80087e0:	f000 fe34 	bl	800944c <__lshift>
 80087e4:	ee08 0a10 	vmov	s16, r0
 80087e8:	9b05      	ldr	r3, [sp, #20]
 80087ea:	2b00      	cmp	r3, #0
 80087ec:	dd05      	ble.n	80087fa <_dtoa_r+0x82a>
 80087ee:	4631      	mov	r1, r6
 80087f0:	461a      	mov	r2, r3
 80087f2:	4620      	mov	r0, r4
 80087f4:	f000 fe2a 	bl	800944c <__lshift>
 80087f8:	4606      	mov	r6, r0
 80087fa:	9b0b      	ldr	r3, [sp, #44]	; 0x2c
 80087fc:	2b00      	cmp	r3, #0
 80087fe:	d06e      	beq.n	80088de <_dtoa_r+0x90e>
 8008800:	ee18 0a10 	vmov	r0, s16
 8008804:	4631      	mov	r1, r6
 8008806:	f000 fe91 	bl	800952c <__mcmp>
 800880a:	2800      	cmp	r0, #0
 800880c:	da67      	bge.n	80088de <_dtoa_r+0x90e>
 800880e:	9b00      	ldr	r3, [sp, #0]
 8008810:	3b01      	subs	r3, #1
 8008812:	ee18 1a10 	vmov	r1, s16
 8008816:	9300      	str	r3, [sp, #0]
 8008818:	220a      	movs	r2, #10
 800881a:	2300      	movs	r3, #0
 800881c:	4620      	mov	r0, r4
 800881e:	f000 fc65 	bl	80090ec <__multadd>
 8008822:	9b08      	ldr	r3, [sp, #32]
 8008824:	ee08 0a10 	vmov	s16, r0
 8008828:	2b00      	cmp	r3, #0
 800882a:	f000 81b1 	beq.w	8008b90 <_dtoa_r+0xbc0>
 800882e:	2300      	movs	r3, #0
 8008830:	4639      	mov	r1, r7
 8008832:	220a      	movs	r2, #10
 8008834:	4620      	mov	r0, r4
 8008836:	f000 fc59 	bl	80090ec <__multadd>
 800883a:	9b02      	ldr	r3, [sp, #8]
 800883c:	2b00      	cmp	r3, #0
 800883e:	4607      	mov	r7, r0
 8008840:	f300 808e 	bgt.w	8008960 <_dtoa_r+0x990>
 8008844:	9b06      	ldr	r3, [sp, #24]
 8008846:	2b02      	cmp	r3, #2
 8008848:	dc51      	bgt.n	80088ee <_dtoa_r+0x91e>
 800884a:	e089      	b.n	8008960 <_dtoa_r+0x990>
 800884c:	9b10      	ldr	r3, [sp, #64]	; 0x40
 800884e:	f1c3 0336 	rsb	r3, r3, #54	; 0x36
 8008852:	e74b      	b.n	80086ec <_dtoa_r+0x71c>
 8008854:	9b03      	ldr	r3, [sp, #12]
 8008856:	1e5e      	subs	r6, r3, #1
 8008858:	9b07      	ldr	r3, [sp, #28]
 800885a:	42b3      	cmp	r3, r6
 800885c:	bfbf      	itttt	lt
 800885e:	9b07      	ldrlt	r3, [sp, #28]
 8008860:	9607      	strlt	r6, [sp, #28]
 8008862:	1af2      	sublt	r2, r6, r3
 8008864:	9b0a      	ldrlt	r3, [sp, #40]	; 0x28
 8008866:	bfb6      	itet	lt
 8008868:	189b      	addlt	r3, r3, r2
 800886a:	1b9e      	subge	r6, r3, r6
 800886c:	930a      	strlt	r3, [sp, #40]	; 0x28
 800886e:	9b03      	ldr	r3, [sp, #12]
 8008870:	bfb8      	it	lt
 8008872:	2600      	movlt	r6, #0
 8008874:	2b00      	cmp	r3, #0
 8008876:	bfb7      	itett	lt
 8008878:	e9dd 2303 	ldrdlt	r2, r3, [sp, #12]
 800887c:	e9dd 3503 	ldrdge	r3, r5, [sp, #12]
 8008880:	1a9d      	sublt	r5, r3, r2
 8008882:	2300      	movlt	r3, #0
 8008884:	e734      	b.n	80086f0 <_dtoa_r+0x720>
 8008886:	9e07      	ldr	r6, [sp, #28]
 8008888:	9d04      	ldr	r5, [sp, #16]
 800888a:	9f08      	ldr	r7, [sp, #32]
 800888c:	e73b      	b.n	8008706 <_dtoa_r+0x736>
 800888e:	9a07      	ldr	r2, [sp, #28]
 8008890:	e767      	b.n	8008762 <_dtoa_r+0x792>
 8008892:	9b06      	ldr	r3, [sp, #24]
 8008894:	2b01      	cmp	r3, #1
 8008896:	dc18      	bgt.n	80088ca <_dtoa_r+0x8fa>
 8008898:	f1ba 0f00 	cmp.w	sl, #0
 800889c:	d115      	bne.n	80088ca <_dtoa_r+0x8fa>
 800889e:	f3cb 0313 	ubfx	r3, fp, #0, #20
 80088a2:	b993      	cbnz	r3, 80088ca <_dtoa_r+0x8fa>
 80088a4:	f02b 4300 	bic.w	r3, fp, #2147483648	; 0x80000000
 80088a8:	0d1b      	lsrs	r3, r3, #20
 80088aa:	051b      	lsls	r3, r3, #20
 80088ac:	b183      	cbz	r3, 80088d0 <_dtoa_r+0x900>
 80088ae:	9b04      	ldr	r3, [sp, #16]
 80088b0:	3301      	adds	r3, #1
 80088b2:	9304      	str	r3, [sp, #16]
 80088b4:	9b05      	ldr	r3, [sp, #20]
 80088b6:	3301      	adds	r3, #1
 80088b8:	9305      	str	r3, [sp, #20]
 80088ba:	f04f 0801 	mov.w	r8, #1
 80088be:	9b0a      	ldr	r3, [sp, #40]	; 0x28
 80088c0:	2b00      	cmp	r3, #0
 80088c2:	f47f af6a 	bne.w	800879a <_dtoa_r+0x7ca>
 80088c6:	2001      	movs	r0, #1
 80088c8:	e76f      	b.n	80087aa <_dtoa_r+0x7da>
 80088ca:	f04f 0800 	mov.w	r8, #0
 80088ce:	e7f6      	b.n	80088be <_dtoa_r+0x8ee>
 80088d0:	4698      	mov	r8, r3
 80088d2:	e7f4      	b.n	80088be <_dtoa_r+0x8ee>
 80088d4:	f43f af7d 	beq.w	80087d2 <_dtoa_r+0x802>
 80088d8:	4618      	mov	r0, r3
 80088da:	301c      	adds	r0, #28
 80088dc:	e772      	b.n	80087c4 <_dtoa_r+0x7f4>
 80088de:	9b03      	ldr	r3, [sp, #12]
 80088e0:	2b00      	cmp	r3, #0
 80088e2:	dc37      	bgt.n	8008954 <_dtoa_r+0x984>
 80088e4:	9b06      	ldr	r3, [sp, #24]
 80088e6:	2b02      	cmp	r3, #2
 80088e8:	dd34      	ble.n	8008954 <_dtoa_r+0x984>
 80088ea:	9b03      	ldr	r3, [sp, #12]
 80088ec:	9302      	str	r3, [sp, #8]
 80088ee:	9b02      	ldr	r3, [sp, #8]
 80088f0:	b96b      	cbnz	r3, 800890e <_dtoa_r+0x93e>
 80088f2:	4631      	mov	r1, r6
 80088f4:	2205      	movs	r2, #5
 80088f6:	4620      	mov	r0, r4
 80088f8:	f000 fbf8 	bl	80090ec <__multadd>
 80088fc:	4601      	mov	r1, r0
 80088fe:	4606      	mov	r6, r0
 8008900:	ee18 0a10 	vmov	r0, s16
 8008904:	f000 fe12 	bl	800952c <__mcmp>
 8008908:	2800      	cmp	r0, #0
 800890a:	f73f adbb 	bgt.w	8008484 <_dtoa_r+0x4b4>
 800890e:	9b09      	ldr	r3, [sp, #36]	; 0x24
 8008910:	9d01      	ldr	r5, [sp, #4]
 8008912:	43db      	mvns	r3, r3
 8008914:	9300      	str	r3, [sp, #0]
 8008916:	f04f 0800 	mov.w	r8, #0
 800891a:	4631      	mov	r1, r6
 800891c:	4620      	mov	r0, r4
 800891e:	f000 fbc3 	bl	80090a8 <_Bfree>
 8008922:	2f00      	cmp	r7, #0
 8008924:	f43f aea4 	beq.w	8008670 <_dtoa_r+0x6a0>
 8008928:	f1b8 0f00 	cmp.w	r8, #0
 800892c:	d005      	beq.n	800893a <_dtoa_r+0x96a>
 800892e:	45b8      	cmp	r8, r7
 8008930:	d003      	beq.n	800893a <_dtoa_r+0x96a>
 8008932:	4641      	mov	r1, r8
 8008934:	4620      	mov	r0, r4
 8008936:	f000 fbb7 	bl	80090a8 <_Bfree>
 800893a:	4639      	mov	r1, r7
 800893c:	4620      	mov	r0, r4
 800893e:	f000 fbb3 	bl	80090a8 <_Bfree>
 8008942:	e695      	b.n	8008670 <_dtoa_r+0x6a0>
 8008944:	2600      	movs	r6, #0
 8008946:	4637      	mov	r7, r6
 8008948:	e7e1      	b.n	800890e <_dtoa_r+0x93e>
 800894a:	9700      	str	r7, [sp, #0]
 800894c:	4637      	mov	r7, r6
 800894e:	e599      	b.n	8008484 <_dtoa_r+0x4b4>
 8008950:	40240000 	.word	0x40240000
 8008954:	9b08      	ldr	r3, [sp, #32]
 8008956:	2b00      	cmp	r3, #0
 8008958:	f000 80ca 	beq.w	8008af0 <_dtoa_r+0xb20>
 800895c:	9b03      	ldr	r3, [sp, #12]
 800895e:	9302      	str	r3, [sp, #8]
 8008960:	2d00      	cmp	r5, #0
 8008962:	dd05      	ble.n	8008970 <_dtoa_r+0x9a0>
 8008964:	4639      	mov	r1, r7
 8008966:	462a      	mov	r2, r5
 8008968:	4620      	mov	r0, r4
 800896a:	f000 fd6f 	bl	800944c <__lshift>
 800896e:	4607      	mov	r7, r0
 8008970:	f1b8 0f00 	cmp.w	r8, #0
 8008974:	d05b      	beq.n	8008a2e <_dtoa_r+0xa5e>
 8008976:	6879      	ldr	r1, [r7, #4]
 8008978:	4620      	mov	r0, r4
 800897a:	f000 fb55 	bl	8009028 <_Balloc>
 800897e:	4605      	mov	r5, r0
 8008980:	b928      	cbnz	r0, 800898e <_dtoa_r+0x9be>
 8008982:	4b87      	ldr	r3, [pc, #540]	; (8008ba0 <_dtoa_r+0xbd0>)
 8008984:	4602      	mov	r2, r0
 8008986:	f240 21ea 	movw	r1, #746	; 0x2ea
 800898a:	f7ff bb3b 	b.w	8008004 <_dtoa_r+0x34>
 800898e:	693a      	ldr	r2, [r7, #16]
 8008990:	3202      	adds	r2, #2
 8008992:	0092      	lsls	r2, r2, #2
 8008994:	f107 010c 	add.w	r1, r7, #12
 8008998:	300c      	adds	r0, #12
 800899a:	f000 fb2b 	bl	8008ff4 <memcpy>
 800899e:	2201      	movs	r2, #1
 80089a0:	4629      	mov	r1, r5
 80089a2:	4620      	mov	r0, r4
 80089a4:	f000 fd52 	bl	800944c <__lshift>
 80089a8:	9b01      	ldr	r3, [sp, #4]
 80089aa:	f103 0901 	add.w	r9, r3, #1
 80089ae:	e9dd 2301 	ldrd	r2, r3, [sp, #4]
 80089b2:	4413      	add	r3, r2
 80089b4:	9305      	str	r3, [sp, #20]
 80089b6:	f00a 0301 	and.w	r3, sl, #1
 80089ba:	46b8      	mov	r8, r7
 80089bc:	9304      	str	r3, [sp, #16]
 80089be:	4607      	mov	r7, r0
 80089c0:	4631      	mov	r1, r6
 80089c2:	ee18 0a10 	vmov	r0, s16
 80089c6:	f7ff fa75 	bl	8007eb4 <quorem>
 80089ca:	4641      	mov	r1, r8
 80089cc:	9002      	str	r0, [sp, #8]
 80089ce:	f100 0a30 	add.w	sl, r0, #48	; 0x30
 80089d2:	ee18 0a10 	vmov	r0, s16
 80089d6:	f000 fda9 	bl	800952c <__mcmp>
 80089da:	463a      	mov	r2, r7
 80089dc:	9003      	str	r0, [sp, #12]
 80089de:	4631      	mov	r1, r6
 80089e0:	4620      	mov	r0, r4
 80089e2:	f000 fdbf 	bl	8009564 <__mdiff>
 80089e6:	68c2      	ldr	r2, [r0, #12]
 80089e8:	f109 3bff 	add.w	fp, r9, #4294967295
 80089ec:	4605      	mov	r5, r0
 80089ee:	bb02      	cbnz	r2, 8008a32 <_dtoa_r+0xa62>
 80089f0:	4601      	mov	r1, r0
 80089f2:	ee18 0a10 	vmov	r0, s16
 80089f6:	f000 fd99 	bl	800952c <__mcmp>
 80089fa:	4602      	mov	r2, r0
 80089fc:	4629      	mov	r1, r5
 80089fe:	4620      	mov	r0, r4
 8008a00:	9207      	str	r2, [sp, #28]
 8008a02:	f000 fb51 	bl	80090a8 <_Bfree>
 8008a06:	e9dd 3206 	ldrd	r3, r2, [sp, #24]
 8008a0a:	ea43 0102 	orr.w	r1, r3, r2
 8008a0e:	9b04      	ldr	r3, [sp, #16]
 8008a10:	430b      	orrs	r3, r1
 8008a12:	464d      	mov	r5, r9
 8008a14:	d10f      	bne.n	8008a36 <_dtoa_r+0xa66>
 8008a16:	f1ba 0f39 	cmp.w	sl, #57	; 0x39
 8008a1a:	d02a      	beq.n	8008a72 <_dtoa_r+0xaa2>
 8008a1c:	9b03      	ldr	r3, [sp, #12]
 8008a1e:	2b00      	cmp	r3, #0
 8008a20:	dd02      	ble.n	8008a28 <_dtoa_r+0xa58>
 8008a22:	9b02      	ldr	r3, [sp, #8]
 8008a24:	f103 0a31 	add.w	sl, r3, #49	; 0x31
 8008a28:	f88b a000 	strb.w	sl, [fp]
 8008a2c:	e775      	b.n	800891a <_dtoa_r+0x94a>
 8008a2e:	4638      	mov	r0, r7
 8008a30:	e7ba      	b.n	80089a8 <_dtoa_r+0x9d8>
 8008a32:	2201      	movs	r2, #1
 8008a34:	e7e2      	b.n	80089fc <_dtoa_r+0xa2c>
 8008a36:	9b03      	ldr	r3, [sp, #12]
 8008a38:	2b00      	cmp	r3, #0
 8008a3a:	db04      	blt.n	8008a46 <_dtoa_r+0xa76>
 8008a3c:	9906      	ldr	r1, [sp, #24]
 8008a3e:	430b      	orrs	r3, r1
 8008a40:	9904      	ldr	r1, [sp, #16]
 8008a42:	430b      	orrs	r3, r1
 8008a44:	d122      	bne.n	8008a8c <_dtoa_r+0xabc>
 8008a46:	2a00      	cmp	r2, #0
 8008a48:	ddee      	ble.n	8008a28 <_dtoa_r+0xa58>
 8008a4a:	ee18 1a10 	vmov	r1, s16
 8008a4e:	2201      	movs	r2, #1
 8008a50:	4620      	mov	r0, r4
 8008a52:	f000 fcfb 	bl	800944c <__lshift>
 8008a56:	4631      	mov	r1, r6
 8008a58:	ee08 0a10 	vmov	s16, r0
 8008a5c:	f000 fd66 	bl	800952c <__mcmp>
 8008a60:	2800      	cmp	r0, #0
 8008a62:	dc03      	bgt.n	8008a6c <_dtoa_r+0xa9c>
 8008a64:	d1e0      	bne.n	8008a28 <_dtoa_r+0xa58>
 8008a66:	f01a 0f01 	tst.w	sl, #1
 8008a6a:	d0dd      	beq.n	8008a28 <_dtoa_r+0xa58>
 8008a6c:	f1ba 0f39 	cmp.w	sl, #57	; 0x39
 8008a70:	d1d7      	bne.n	8008a22 <_dtoa_r+0xa52>
 8008a72:	2339      	movs	r3, #57	; 0x39
 8008a74:	f88b 3000 	strb.w	r3, [fp]
 8008a78:	462b      	mov	r3, r5
 8008a7a:	461d      	mov	r5, r3
 8008a7c:	3b01      	subs	r3, #1
 8008a7e:	f815 2c01 	ldrb.w	r2, [r5, #-1]
 8008a82:	2a39      	cmp	r2, #57	; 0x39
 8008a84:	d071      	beq.n	8008b6a <_dtoa_r+0xb9a>
 8008a86:	3201      	adds	r2, #1
 8008a88:	701a      	strb	r2, [r3, #0]
 8008a8a:	e746      	b.n	800891a <_dtoa_r+0x94a>
 8008a8c:	2a00      	cmp	r2, #0
 8008a8e:	dd07      	ble.n	8008aa0 <_dtoa_r+0xad0>
 8008a90:	f1ba 0f39 	cmp.w	sl, #57	; 0x39
 8008a94:	d0ed      	beq.n	8008a72 <_dtoa_r+0xaa2>
 8008a96:	f10a 0301 	add.w	r3, sl, #1
 8008a9a:	f88b 3000 	strb.w	r3, [fp]
 8008a9e:	e73c      	b.n	800891a <_dtoa_r+0x94a>
 8008aa0:	9b05      	ldr	r3, [sp, #20]
 8008aa2:	f809 ac01 	strb.w	sl, [r9, #-1]
 8008aa6:	4599      	cmp	r9, r3
 8008aa8:	d047      	beq.n	8008b3a <_dtoa_r+0xb6a>
 8008aaa:	ee18 1a10 	vmov	r1, s16
 8008aae:	2300      	movs	r3, #0
 8008ab0:	220a      	movs	r2, #10
 8008ab2:	4620      	mov	r0, r4
 8008ab4:	f000 fb1a 	bl	80090ec <__multadd>
 8008ab8:	45b8      	cmp	r8, r7
 8008aba:	ee08 0a10 	vmov	s16, r0
 8008abe:	f04f 0300 	mov.w	r3, #0
 8008ac2:	f04f 020a 	mov.w	r2, #10
 8008ac6:	4641      	mov	r1, r8
 8008ac8:	4620      	mov	r0, r4
 8008aca:	d106      	bne.n	8008ada <_dtoa_r+0xb0a>
 8008acc:	f000 fb0e 	bl	80090ec <__multadd>
 8008ad0:	4680      	mov	r8, r0
 8008ad2:	4607      	mov	r7, r0
 8008ad4:	f109 0901 	add.w	r9, r9, #1
 8008ad8:	e772      	b.n	80089c0 <_dtoa_r+0x9f0>
 8008ada:	f000 fb07 	bl	80090ec <__multadd>
 8008ade:	4639      	mov	r1, r7
 8008ae0:	4680      	mov	r8, r0
 8008ae2:	2300      	movs	r3, #0
 8008ae4:	220a      	movs	r2, #10
 8008ae6:	4620      	mov	r0, r4
 8008ae8:	f000 fb00 	bl	80090ec <__multadd>
 8008aec:	4607      	mov	r7, r0
 8008aee:	e7f1      	b.n	8008ad4 <_dtoa_r+0xb04>
 8008af0:	9b03      	ldr	r3, [sp, #12]
 8008af2:	9302      	str	r3, [sp, #8]
 8008af4:	9d01      	ldr	r5, [sp, #4]
 8008af6:	ee18 0a10 	vmov	r0, s16
 8008afa:	4631      	mov	r1, r6
 8008afc:	f7ff f9da 	bl	8007eb4 <quorem>
 8008b00:	f100 0a30 	add.w	sl, r0, #48	; 0x30
 8008b04:	9b01      	ldr	r3, [sp, #4]
 8008b06:	f805 ab01 	strb.w	sl, [r5], #1
 8008b0a:	1aea      	subs	r2, r5, r3
 8008b0c:	9b02      	ldr	r3, [sp, #8]
 8008b0e:	4293      	cmp	r3, r2
 8008b10:	dd09      	ble.n	8008b26 <_dtoa_r+0xb56>
 8008b12:	ee18 1a10 	vmov	r1, s16
 8008b16:	2300      	movs	r3, #0
 8008b18:	220a      	movs	r2, #10
 8008b1a:	4620      	mov	r0, r4
 8008b1c:	f000 fae6 	bl	80090ec <__multadd>
 8008b20:	ee08 0a10 	vmov	s16, r0
 8008b24:	e7e7      	b.n	8008af6 <_dtoa_r+0xb26>
 8008b26:	9b02      	ldr	r3, [sp, #8]
 8008b28:	2b00      	cmp	r3, #0
 8008b2a:	bfc8      	it	gt
 8008b2c:	461d      	movgt	r5, r3
 8008b2e:	9b01      	ldr	r3, [sp, #4]
 8008b30:	bfd8      	it	le
 8008b32:	2501      	movle	r5, #1
 8008b34:	441d      	add	r5, r3
 8008b36:	f04f 0800 	mov.w	r8, #0
 8008b3a:	ee18 1a10 	vmov	r1, s16
 8008b3e:	2201      	movs	r2, #1
 8008b40:	4620      	mov	r0, r4
 8008b42:	f000 fc83 	bl	800944c <__lshift>
 8008b46:	4631      	mov	r1, r6
 8008b48:	ee08 0a10 	vmov	s16, r0
 8008b4c:	f000 fcee 	bl	800952c <__mcmp>
 8008b50:	2800      	cmp	r0, #0
 8008b52:	dc91      	bgt.n	8008a78 <_dtoa_r+0xaa8>
 8008b54:	d102      	bne.n	8008b5c <_dtoa_r+0xb8c>
 8008b56:	f01a 0f01 	tst.w	sl, #1
 8008b5a:	d18d      	bne.n	8008a78 <_dtoa_r+0xaa8>
 8008b5c:	462b      	mov	r3, r5
 8008b5e:	461d      	mov	r5, r3
 8008b60:	f813 2d01 	ldrb.w	r2, [r3, #-1]!
 8008b64:	2a30      	cmp	r2, #48	; 0x30
 8008b66:	d0fa      	beq.n	8008b5e <_dtoa_r+0xb8e>
 8008b68:	e6d7      	b.n	800891a <_dtoa_r+0x94a>
 8008b6a:	9a01      	ldr	r2, [sp, #4]
 8008b6c:	429a      	cmp	r2, r3
 8008b6e:	d184      	bne.n	8008a7a <_dtoa_r+0xaaa>
 8008b70:	9b00      	ldr	r3, [sp, #0]
 8008b72:	3301      	adds	r3, #1
 8008b74:	9300      	str	r3, [sp, #0]
 8008b76:	2331      	movs	r3, #49	; 0x31
 8008b78:	7013      	strb	r3, [r2, #0]
 8008b7a:	e6ce      	b.n	800891a <_dtoa_r+0x94a>
 8008b7c:	4b09      	ldr	r3, [pc, #36]	; (8008ba4 <_dtoa_r+0xbd4>)
 8008b7e:	f7ff ba95 	b.w	80080ac <_dtoa_r+0xdc>
 8008b82:	9b21      	ldr	r3, [sp, #132]	; 0x84
 8008b84:	2b00      	cmp	r3, #0
 8008b86:	f47f aa6e 	bne.w	8008066 <_dtoa_r+0x96>
 8008b8a:	4b07      	ldr	r3, [pc, #28]	; (8008ba8 <_dtoa_r+0xbd8>)
 8008b8c:	f7ff ba8e 	b.w	80080ac <_dtoa_r+0xdc>
 8008b90:	9b02      	ldr	r3, [sp, #8]
 8008b92:	2b00      	cmp	r3, #0
 8008b94:	dcae      	bgt.n	8008af4 <_dtoa_r+0xb24>
 8008b96:	9b06      	ldr	r3, [sp, #24]
 8008b98:	2b02      	cmp	r3, #2
 8008b9a:	f73f aea8 	bgt.w	80088ee <_dtoa_r+0x91e>
 8008b9e:	e7a9      	b.n	8008af4 <_dtoa_r+0xb24>
 8008ba0:	0800a2e7 	.word	0x0800a2e7
 8008ba4:	0800a244 	.word	0x0800a244
 8008ba8:	0800a268 	.word	0x0800a268

08008bac <__sflush_r>:
 8008bac:	898a      	ldrh	r2, [r1, #12]
 8008bae:	e92d 41f0 	stmdb	sp!, {r4, r5, r6, r7, r8, lr}
 8008bb2:	4605      	mov	r5, r0
 8008bb4:	0710      	lsls	r0, r2, #28
 8008bb6:	460c      	mov	r4, r1
 8008bb8:	d458      	bmi.n	8008c6c <__sflush_r+0xc0>
 8008bba:	684b      	ldr	r3, [r1, #4]
 8008bbc:	2b00      	cmp	r3, #0
 8008bbe:	dc05      	bgt.n	8008bcc <__sflush_r+0x20>
 8008bc0:	6c0b      	ldr	r3, [r1, #64]	; 0x40
 8008bc2:	2b00      	cmp	r3, #0
 8008bc4:	dc02      	bgt.n	8008bcc <__sflush_r+0x20>
 8008bc6:	2000      	movs	r0, #0
 8008bc8:	e8bd 81f0 	ldmia.w	sp!, {r4, r5, r6, r7, r8, pc}
 8008bcc:	6ae6      	ldr	r6, [r4, #44]	; 0x2c
 8008bce:	2e00      	cmp	r6, #0
 8008bd0:	d0f9      	beq.n	8008bc6 <__sflush_r+0x1a>
 8008bd2:	2300      	movs	r3, #0
 8008bd4:	f412 5280 	ands.w	r2, r2, #4096	; 0x1000
 8008bd8:	682f      	ldr	r7, [r5, #0]
 8008bda:	602b      	str	r3, [r5, #0]
 8008bdc:	d032      	beq.n	8008c44 <__sflush_r+0x98>
 8008bde:	6d60      	ldr	r0, [r4, #84]	; 0x54
 8008be0:	89a3      	ldrh	r3, [r4, #12]
 8008be2:	075a      	lsls	r2, r3, #29
 8008be4:	d505      	bpl.n	8008bf2 <__sflush_r+0x46>
 8008be6:	6863      	ldr	r3, [r4, #4]
 8008be8:	1ac0      	subs	r0, r0, r3
 8008bea:	6b63      	ldr	r3, [r4, #52]	; 0x34
 8008bec:	b10b      	cbz	r3, 8008bf2 <__sflush_r+0x46>
 8008bee:	6c23      	ldr	r3, [r4, #64]	; 0x40
 8008bf0:	1ac0      	subs	r0, r0, r3
 8008bf2:	2300      	movs	r3, #0
 8008bf4:	4602      	mov	r2, r0
 8008bf6:	6ae6      	ldr	r6, [r4, #44]	; 0x2c
 8008bf8:	6a21      	ldr	r1, [r4, #32]
 8008bfa:	4628      	mov	r0, r5
 8008bfc:	47b0      	blx	r6
 8008bfe:	1c43      	adds	r3, r0, #1
 8008c00:	89a3      	ldrh	r3, [r4, #12]
 8008c02:	d106      	bne.n	8008c12 <__sflush_r+0x66>
 8008c04:	6829      	ldr	r1, [r5, #0]
 8008c06:	291d      	cmp	r1, #29
 8008c08:	d82c      	bhi.n	8008c64 <__sflush_r+0xb8>
 8008c0a:	4a2a      	ldr	r2, [pc, #168]	; (8008cb4 <__sflush_r+0x108>)
 8008c0c:	40ca      	lsrs	r2, r1
 8008c0e:	07d6      	lsls	r6, r2, #31
 8008c10:	d528      	bpl.n	8008c64 <__sflush_r+0xb8>
 8008c12:	2200      	movs	r2, #0
 8008c14:	6062      	str	r2, [r4, #4]
 8008c16:	04d9      	lsls	r1, r3, #19
 8008c18:	6922      	ldr	r2, [r4, #16]
 8008c1a:	6022      	str	r2, [r4, #0]
 8008c1c:	d504      	bpl.n	8008c28 <__sflush_r+0x7c>
 8008c1e:	1c42      	adds	r2, r0, #1
 8008c20:	d101      	bne.n	8008c26 <__sflush_r+0x7a>
 8008c22:	682b      	ldr	r3, [r5, #0]
 8008c24:	b903      	cbnz	r3, 8008c28 <__sflush_r+0x7c>
 8008c26:	6560      	str	r0, [r4, #84]	; 0x54
 8008c28:	6b61      	ldr	r1, [r4, #52]	; 0x34
 8008c2a:	602f      	str	r7, [r5, #0]
 8008c2c:	2900      	cmp	r1, #0
 8008c2e:	d0ca      	beq.n	8008bc6 <__sflush_r+0x1a>
 8008c30:	f104 0344 	add.w	r3, r4, #68	; 0x44
 8008c34:	4299      	cmp	r1, r3
 8008c36:	d002      	beq.n	8008c3e <__sflush_r+0x92>
 8008c38:	4628      	mov	r0, r5
 8008c3a:	f7fe fa5f 	bl	80070fc <_free_r>
 8008c3e:	2000      	movs	r0, #0
 8008c40:	6360      	str	r0, [r4, #52]	; 0x34
 8008c42:	e7c1      	b.n	8008bc8 <__sflush_r+0x1c>
 8008c44:	6a21      	ldr	r1, [r4, #32]
 8008c46:	2301      	movs	r3, #1
 8008c48:	4628      	mov	r0, r5
 8008c4a:	47b0      	blx	r6
 8008c4c:	1c41      	adds	r1, r0, #1
 8008c4e:	d1c7      	bne.n	8008be0 <__sflush_r+0x34>
 8008c50:	682b      	ldr	r3, [r5, #0]
 8008c52:	2b00      	cmp	r3, #0
 8008c54:	d0c4      	beq.n	8008be0 <__sflush_r+0x34>
 8008c56:	2b1d      	cmp	r3, #29
 8008c58:	d001      	beq.n	8008c5e <__sflush_r+0xb2>
 8008c5a:	2b16      	cmp	r3, #22
 8008c5c:	d101      	bne.n	8008c62 <__sflush_r+0xb6>
 8008c5e:	602f      	str	r7, [r5, #0]
 8008c60:	e7b1      	b.n	8008bc6 <__sflush_r+0x1a>
 8008c62:	89a3      	ldrh	r3, [r4, #12]
 8008c64:	f043 0340 	orr.w	r3, r3, #64	; 0x40
 8008c68:	81a3      	strh	r3, [r4, #12]
 8008c6a:	e7ad      	b.n	8008bc8 <__sflush_r+0x1c>
 8008c6c:	690f      	ldr	r7, [r1, #16]
 8008c6e:	2f00      	cmp	r7, #0
 8008c70:	d0a9      	beq.n	8008bc6 <__sflush_r+0x1a>
 8008c72:	0793      	lsls	r3, r2, #30
 8008c74:	680e      	ldr	r6, [r1, #0]
 8008c76:	bf08      	it	eq
 8008c78:	694b      	ldreq	r3, [r1, #20]
 8008c7a:	600f      	str	r7, [r1, #0]
 8008c7c:	bf18      	it	ne
 8008c7e:	2300      	movne	r3, #0
 8008c80:	eba6 0807 	sub.w	r8, r6, r7
 8008c84:	608b      	str	r3, [r1, #8]
 8008c86:	f1b8 0f00 	cmp.w	r8, #0
 8008c8a:	dd9c      	ble.n	8008bc6 <__sflush_r+0x1a>
 8008c8c:	6a21      	ldr	r1, [r4, #32]
 8008c8e:	6aa6      	ldr	r6, [r4, #40]	; 0x28
 8008c90:	4643      	mov	r3, r8
 8008c92:	463a      	mov	r2, r7
 8008c94:	4628      	mov	r0, r5
 8008c96:	47b0      	blx	r6
 8008c98:	2800      	cmp	r0, #0
 8008c9a:	dc06      	bgt.n	8008caa <__sflush_r+0xfe>
 8008c9c:	89a3      	ldrh	r3, [r4, #12]
 8008c9e:	f043 0340 	orr.w	r3, r3, #64	; 0x40
 8008ca2:	81a3      	strh	r3, [r4, #12]
 8008ca4:	f04f 30ff 	mov.w	r0, #4294967295
 8008ca8:	e78e      	b.n	8008bc8 <__sflush_r+0x1c>
 8008caa:	4407      	add	r7, r0
 8008cac:	eba8 0800 	sub.w	r8, r8, r0
 8008cb0:	e7e9      	b.n	8008c86 <__sflush_r+0xda>
 8008cb2:	bf00      	nop
 8008cb4:	20400001 	.word	0x20400001

08008cb8 <_fflush_r>:
 8008cb8:	b538      	push	{r3, r4, r5, lr}
 8008cba:	690b      	ldr	r3, [r1, #16]
 8008cbc:	4605      	mov	r5, r0
 8008cbe:	460c      	mov	r4, r1
 8008cc0:	b913      	cbnz	r3, 8008cc8 <_fflush_r+0x10>
 8008cc2:	2500      	movs	r5, #0
 8008cc4:	4628      	mov	r0, r5
 8008cc6:	bd38      	pop	{r3, r4, r5, pc}
 8008cc8:	b118      	cbz	r0, 8008cd2 <_fflush_r+0x1a>
 8008cca:	6983      	ldr	r3, [r0, #24]
 8008ccc:	b90b      	cbnz	r3, 8008cd2 <_fflush_r+0x1a>
 8008cce:	f000 f887 	bl	8008de0 <__sinit>
 8008cd2:	4b14      	ldr	r3, [pc, #80]	; (8008d24 <_fflush_r+0x6c>)
 8008cd4:	429c      	cmp	r4, r3
 8008cd6:	d11b      	bne.n	8008d10 <_fflush_r+0x58>
 8008cd8:	686c      	ldr	r4, [r5, #4]
 8008cda:	f9b4 300c 	ldrsh.w	r3, [r4, #12]
 8008cde:	2b00      	cmp	r3, #0
 8008ce0:	d0ef      	beq.n	8008cc2 <_fflush_r+0xa>
 8008ce2:	6e62      	ldr	r2, [r4, #100]	; 0x64
 8008ce4:	07d0      	lsls	r0, r2, #31
 8008ce6:	d404      	bmi.n	8008cf2 <_fflush_r+0x3a>
 8008ce8:	0599      	lsls	r1, r3, #22
 8008cea:	d402      	bmi.n	8008cf2 <_fflush_r+0x3a>
 8008cec:	6da0      	ldr	r0, [r4, #88]	; 0x58
 8008cee:	f000 f91a 	bl	8008f26 <__retarget_lock_acquire_recursive>
 8008cf2:	4628      	mov	r0, r5
 8008cf4:	4621      	mov	r1, r4
 8008cf6:	f7ff ff59 	bl	8008bac <__sflush_r>
 8008cfa:	6e63      	ldr	r3, [r4, #100]	; 0x64
 8008cfc:	07da      	lsls	r2, r3, #31
 8008cfe:	4605      	mov	r5, r0
 8008d00:	d4e0      	bmi.n	8008cc4 <_fflush_r+0xc>
 8008d02:	89a3      	ldrh	r3, [r4, #12]
 8008d04:	059b      	lsls	r3, r3, #22
 8008d06:	d4dd      	bmi.n	8008cc4 <_fflush_r+0xc>
 8008d08:	6da0      	ldr	r0, [r4, #88]	; 0x58
 8008d0a:	f000 f90d 	bl	8008f28 <__retarget_lock_release_recursive>
 8008d0e:	e7d9      	b.n	8008cc4 <_fflush_r+0xc>
 8008d10:	4b05      	ldr	r3, [pc, #20]	; (8008d28 <_fflush_r+0x70>)
 8008d12:	429c      	cmp	r4, r3
 8008d14:	d101      	bne.n	8008d1a <_fflush_r+0x62>
 8008d16:	68ac      	ldr	r4, [r5, #8]
 8008d18:	e7df      	b.n	8008cda <_fflush_r+0x22>
 8008d1a:	4b04      	ldr	r3, [pc, #16]	; (8008d2c <_fflush_r+0x74>)
 8008d1c:	429c      	cmp	r4, r3
 8008d1e:	bf08      	it	eq
 8008d20:	68ec      	ldreq	r4, [r5, #12]
 8008d22:	e7da      	b.n	8008cda <_fflush_r+0x22>
 8008d24:	0800a318 	.word	0x0800a318
 8008d28:	0800a338 	.word	0x0800a338
 8008d2c:	0800a2f8 	.word	0x0800a2f8

08008d30 <std>:
 8008d30:	2300      	movs	r3, #0
 8008d32:	b510      	push	{r4, lr}
 8008d34:	4604      	mov	r4, r0
 8008d36:	e9c0 3300 	strd	r3, r3, [r0]
 8008d3a:	e9c0 3304 	strd	r3, r3, [r0, #16]
 8008d3e:	6083      	str	r3, [r0, #8]
 8008d40:	8181      	strh	r1, [r0, #12]
 8008d42:	6643      	str	r3, [r0, #100]	; 0x64
 8008d44:	81c2      	strh	r2, [r0, #14]
 8008d46:	6183      	str	r3, [r0, #24]
 8008d48:	4619      	mov	r1, r3
 8008d4a:	2208      	movs	r2, #8
 8008d4c:	305c      	adds	r0, #92	; 0x5c
 8008d4e:	f7fe f9b7 	bl	80070c0 <memset>
 8008d52:	4b05      	ldr	r3, [pc, #20]	; (8008d68 <std+0x38>)
 8008d54:	6263      	str	r3, [r4, #36]	; 0x24
 8008d56:	4b05      	ldr	r3, [pc, #20]	; (8008d6c <std+0x3c>)
 8008d58:	62a3      	str	r3, [r4, #40]	; 0x28
 8008d5a:	4b05      	ldr	r3, [pc, #20]	; (8008d70 <std+0x40>)
 8008d5c:	62e3      	str	r3, [r4, #44]	; 0x2c
 8008d5e:	4b05      	ldr	r3, [pc, #20]	; (8008d74 <std+0x44>)
 8008d60:	6224      	str	r4, [r4, #32]
 8008d62:	6323      	str	r3, [r4, #48]	; 0x30
 8008d64:	bd10      	pop	{r4, pc}
 8008d66:	bf00      	nop
 8008d68:	08009cf9 	.word	0x08009cf9
 8008d6c:	08009d1b 	.word	0x08009d1b
 8008d70:	08009d53 	.word	0x08009d53
 8008d74:	08009d77 	.word	0x08009d77

08008d78 <_cleanup_r>:
 8008d78:	4901      	ldr	r1, [pc, #4]	; (8008d80 <_cleanup_r+0x8>)
 8008d7a:	f000 b8af 	b.w	8008edc <_fwalk_reent>
 8008d7e:	bf00      	nop
 8008d80:	08008cb9 	.word	0x08008cb9

08008d84 <__sfmoreglue>:
 8008d84:	b570      	push	{r4, r5, r6, lr}
 8008d86:	2268      	movs	r2, #104	; 0x68
 8008d88:	1e4d      	subs	r5, r1, #1
 8008d8a:	4355      	muls	r5, r2
 8008d8c:	460e      	mov	r6, r1
 8008d8e:	f105 0174 	add.w	r1, r5, #116	; 0x74
 8008d92:	f7fe fa1f 	bl	80071d4 <_malloc_r>
 8008d96:	4604      	mov	r4, r0
 8008d98:	b140      	cbz	r0, 8008dac <__sfmoreglue+0x28>
 8008d9a:	2100      	movs	r1, #0
 8008d9c:	e9c0 1600 	strd	r1, r6, [r0]
 8008da0:	300c      	adds	r0, #12
 8008da2:	60a0      	str	r0, [r4, #8]
 8008da4:	f105 0268 	add.w	r2, r5, #104	; 0x68
 8008da8:	f7fe f98a 	bl	80070c0 <memset>
 8008dac:	4620      	mov	r0, r4
 8008dae:	bd70      	pop	{r4, r5, r6, pc}

08008db0 <__sfp_lock_acquire>:
 8008db0:	4801      	ldr	r0, [pc, #4]	; (8008db8 <__sfp_lock_acquire+0x8>)
 8008db2:	f000 b8b8 	b.w	8008f26 <__retarget_lock_acquire_recursive>
 8008db6:	bf00      	nop
 8008db8:	20000705 	.word	0x20000705

08008dbc <__sfp_lock_release>:
 8008dbc:	4801      	ldr	r0, [pc, #4]	; (8008dc4 <__sfp_lock_release+0x8>)
 8008dbe:	f000 b8b3 	b.w	8008f28 <__retarget_lock_release_recursive>
 8008dc2:	bf00      	nop
 8008dc4:	20000705 	.word	0x20000705

08008dc8 <__sinit_lock_acquire>:
 8008dc8:	4801      	ldr	r0, [pc, #4]	; (8008dd0 <__sinit_lock_acquire+0x8>)
 8008dca:	f000 b8ac 	b.w	8008f26 <__retarget_lock_acquire_recursive>
 8008dce:	bf00      	nop
 8008dd0:	20000706 	.word	0x20000706

08008dd4 <__sinit_lock_release>:
 8008dd4:	4801      	ldr	r0, [pc, #4]	; (8008ddc <__sinit_lock_release+0x8>)
 8008dd6:	f000 b8a7 	b.w	8008f28 <__retarget_lock_release_recursive>
 8008dda:	bf00      	nop
 8008ddc:	20000706 	.word	0x20000706

08008de0 <__sinit>:
 8008de0:	b510      	push	{r4, lr}
 8008de2:	4604      	mov	r4, r0
 8008de4:	f7ff fff0 	bl	8008dc8 <__sinit_lock_acquire>
 8008de8:	69a3      	ldr	r3, [r4, #24]
 8008dea:	b11b      	cbz	r3, 8008df4 <__sinit+0x14>
 8008dec:	e8bd 4010 	ldmia.w	sp!, {r4, lr}
 8008df0:	f7ff bff0 	b.w	8008dd4 <__sinit_lock_release>
 8008df4:	e9c4 3312 	strd	r3, r3, [r4, #72]	; 0x48
 8008df8:	6523      	str	r3, [r4, #80]	; 0x50
 8008dfa:	4b13      	ldr	r3, [pc, #76]	; (8008e48 <__sinit+0x68>)
 8008dfc:	4a13      	ldr	r2, [pc, #76]	; (8008e4c <__sinit+0x6c>)
 8008dfe:	681b      	ldr	r3, [r3, #0]
 8008e00:	62a2      	str	r2, [r4, #40]	; 0x28
 8008e02:	42a3      	cmp	r3, r4
 8008e04:	bf04      	itt	eq
 8008e06:	2301      	moveq	r3, #1
 8008e08:	61a3      	streq	r3, [r4, #24]
 8008e0a:	4620      	mov	r0, r4
 8008e0c:	f000 f820 	bl	8008e50 <__sfp>
 8008e10:	6060      	str	r0, [r4, #4]
 8008e12:	4620      	mov	r0, r4
 8008e14:	f000 f81c 	bl	8008e50 <__sfp>
 8008e18:	60a0      	str	r0, [r4, #8]
 8008e1a:	4620      	mov	r0, r4
 8008e1c:	f000 f818 	bl	8008e50 <__sfp>
 8008e20:	2200      	movs	r2, #0
 8008e22:	60e0      	str	r0, [r4, #12]
 8008e24:	2104      	movs	r1, #4
 8008e26:	6860      	ldr	r0, [r4, #4]
 8008e28:	f7ff ff82 	bl	8008d30 <std>
 8008e2c:	68a0      	ldr	r0, [r4, #8]
 8008e2e:	2201      	movs	r2, #1
 8008e30:	2109      	movs	r1, #9
 8008e32:	f7ff ff7d 	bl	8008d30 <std>
 8008e36:	68e0      	ldr	r0, [r4, #12]
 8008e38:	2202      	movs	r2, #2
 8008e3a:	2112      	movs	r1, #18
 8008e3c:	f7ff ff78 	bl	8008d30 <std>
 8008e40:	2301      	movs	r3, #1
 8008e42:	61a3      	str	r3, [r4, #24]
 8008e44:	e7d2      	b.n	8008dec <__sinit+0xc>
 8008e46:	bf00      	nop
 8008e48:	0800a230 	.word	0x0800a230
 8008e4c:	08008d79 	.word	0x08008d79

08008e50 <__sfp>:
 8008e50:	b5f8      	push	{r3, r4, r5, r6, r7, lr}
 8008e52:	4607      	mov	r7, r0
 8008e54:	f7ff ffac 	bl	8008db0 <__sfp_lock_acquire>
 8008e58:	4b1e      	ldr	r3, [pc, #120]	; (8008ed4 <__sfp+0x84>)
 8008e5a:	681e      	ldr	r6, [r3, #0]
 8008e5c:	69b3      	ldr	r3, [r6, #24]
 8008e5e:	b913      	cbnz	r3, 8008e66 <__sfp+0x16>
 8008e60:	4630      	mov	r0, r6
 8008e62:	f7ff ffbd 	bl	8008de0 <__sinit>
 8008e66:	3648      	adds	r6, #72	; 0x48
 8008e68:	e9d6 3401 	ldrd	r3, r4, [r6, #4]
 8008e6c:	3b01      	subs	r3, #1
 8008e6e:	d503      	bpl.n	8008e78 <__sfp+0x28>
 8008e70:	6833      	ldr	r3, [r6, #0]
 8008e72:	b30b      	cbz	r3, 8008eb8 <__sfp+0x68>
 8008e74:	6836      	ldr	r6, [r6, #0]
 8008e76:	e7f7      	b.n	8008e68 <__sfp+0x18>
 8008e78:	f9b4 500c 	ldrsh.w	r5, [r4, #12]
 8008e7c:	b9d5      	cbnz	r5, 8008eb4 <__sfp+0x64>
 8008e7e:	4b16      	ldr	r3, [pc, #88]	; (8008ed8 <__sfp+0x88>)
 8008e80:	60e3      	str	r3, [r4, #12]
 8008e82:	f104 0058 	add.w	r0, r4, #88	; 0x58
 8008e86:	6665      	str	r5, [r4, #100]	; 0x64
 8008e88:	f000 f84c 	bl	8008f24 <__retarget_lock_init_recursive>
 8008e8c:	f7ff ff96 	bl	8008dbc <__sfp_lock_release>
 8008e90:	e9c4 5501 	strd	r5, r5, [r4, #4]
 8008e94:	e9c4 5504 	strd	r5, r5, [r4, #16]
 8008e98:	6025      	str	r5, [r4, #0]
 8008e9a:	61a5      	str	r5, [r4, #24]
 8008e9c:	2208      	movs	r2, #8
 8008e9e:	4629      	mov	r1, r5
 8008ea0:	f104 005c 	add.w	r0, r4, #92	; 0x5c
 8008ea4:	f7fe f90c 	bl	80070c0 <memset>
 8008ea8:	e9c4 550d 	strd	r5, r5, [r4, #52]	; 0x34
 8008eac:	e9c4 5512 	strd	r5, r5, [r4, #72]	; 0x48
 8008eb0:	4620      	mov	r0, r4
 8008eb2:	bdf8      	pop	{r3, r4, r5, r6, r7, pc}
 8008eb4:	3468      	adds	r4, #104	; 0x68
 8008eb6:	e7d9      	b.n	8008e6c <__sfp+0x1c>
 8008eb8:	2104      	movs	r1, #4
 8008eba:	4638      	mov	r0, r7
 8008ebc:	f7ff ff62 	bl	8008d84 <__sfmoreglue>
 8008ec0:	4604      	mov	r4, r0
 8008ec2:	6030      	str	r0, [r6, #0]
 8008ec4:	2800      	cmp	r0, #0
 8008ec6:	d1d5      	bne.n	8008e74 <__sfp+0x24>
 8008ec8:	f7ff ff78 	bl	8008dbc <__sfp_lock_release>
 8008ecc:	230c      	movs	r3, #12
 8008ece:	603b      	str	r3, [r7, #0]
 8008ed0:	e7ee      	b.n	8008eb0 <__sfp+0x60>
 8008ed2:	bf00      	nop
 8008ed4:	0800a230 	.word	0x0800a230
 8008ed8:	ffff0001 	.word	0xffff0001

08008edc <_fwalk_reent>:
 8008edc:	e92d 43f8 	stmdb	sp!, {r3, r4, r5, r6, r7, r8, r9, lr}
 8008ee0:	4606      	mov	r6, r0
 8008ee2:	4688      	mov	r8, r1
 8008ee4:	f100 0448 	add.w	r4, r0, #72	; 0x48
 8008ee8:	2700      	movs	r7, #0
 8008eea:	e9d4 9501 	ldrd	r9, r5, [r4, #4]
 8008eee:	f1b9 0901 	subs.w	r9, r9, #1
 8008ef2:	d505      	bpl.n	8008f00 <_fwalk_reent+0x24>
 8008ef4:	6824      	ldr	r4, [r4, #0]
 8008ef6:	2c00      	cmp	r4, #0
 8008ef8:	d1f7      	bne.n	8008eea <_fwalk_reent+0xe>
 8008efa:	4638      	mov	r0, r7
 8008efc:	e8bd 83f8 	ldmia.w	sp!, {r3, r4, r5, r6, r7, r8, r9, pc}
 8008f00:	89ab      	ldrh	r3, [r5, #12]
 8008f02:	2b01      	cmp	r3, #1
 8008f04:	d907      	bls.n	8008f16 <_fwalk_reent+0x3a>
 8008f06:	f9b5 300e 	ldrsh.w	r3, [r5, #14]
 8008f0a:	3301      	adds	r3, #1
 8008f0c:	d003      	beq.n	8008f16 <_fwalk_reent+0x3a>
 8008f0e:	4629      	mov	r1, r5
 8008f10:	4630      	mov	r0, r6
 8008f12:	47c0      	blx	r8
 8008f14:	4307      	orrs	r7, r0
 8008f16:	3568      	adds	r5, #104	; 0x68
 8008f18:	e7e9      	b.n	8008eee <_fwalk_reent+0x12>
	...

08008f1c <_localeconv_r>:
 8008f1c:	4800      	ldr	r0, [pc, #0]	; (8008f20 <_localeconv_r+0x4>)
 8008f1e:	4770      	bx	lr
 8008f20:	2000041c 	.word	0x2000041c

08008f24 <__retarget_lock_init_recursive>:
 8008f24:	4770      	bx	lr

08008f26 <__retarget_lock_acquire_recursive>:
 8008f26:	4770      	bx	lr

08008f28 <__retarget_lock_release_recursive>:
 8008f28:	4770      	bx	lr

08008f2a <__swhatbuf_r>:
 8008f2a:	b570      	push	{r4, r5, r6, lr}
 8008f2c:	460e      	mov	r6, r1
 8008f2e:	f9b1 100e 	ldrsh.w	r1, [r1, #14]
 8008f32:	2900      	cmp	r1, #0
 8008f34:	b096      	sub	sp, #88	; 0x58
 8008f36:	4614      	mov	r4, r2
 8008f38:	461d      	mov	r5, r3
 8008f3a:	da08      	bge.n	8008f4e <__swhatbuf_r+0x24>
 8008f3c:	f9b6 300c 	ldrsh.w	r3, [r6, #12]
 8008f40:	2200      	movs	r2, #0
 8008f42:	602a      	str	r2, [r5, #0]
 8008f44:	061a      	lsls	r2, r3, #24
 8008f46:	d410      	bmi.n	8008f6a <__swhatbuf_r+0x40>
 8008f48:	f44f 6380 	mov.w	r3, #1024	; 0x400
 8008f4c:	e00e      	b.n	8008f6c <__swhatbuf_r+0x42>
 8008f4e:	466a      	mov	r2, sp
 8008f50:	f000 ff68 	bl	8009e24 <_fstat_r>
 8008f54:	2800      	cmp	r0, #0
 8008f56:	dbf1      	blt.n	8008f3c <__swhatbuf_r+0x12>
 8008f58:	9a01      	ldr	r2, [sp, #4]
 8008f5a:	f402 4270 	and.w	r2, r2, #61440	; 0xf000
 8008f5e:	f5a2 5300 	sub.w	r3, r2, #8192	; 0x2000
 8008f62:	425a      	negs	r2, r3
 8008f64:	415a      	adcs	r2, r3
 8008f66:	602a      	str	r2, [r5, #0]
 8008f68:	e7ee      	b.n	8008f48 <__swhatbuf_r+0x1e>
 8008f6a:	2340      	movs	r3, #64	; 0x40
 8008f6c:	2000      	movs	r0, #0
 8008f6e:	6023      	str	r3, [r4, #0]
 8008f70:	b016      	add	sp, #88	; 0x58
 8008f72:	bd70      	pop	{r4, r5, r6, pc}

08008f74 <__smakebuf_r>:
 8008f74:	898b      	ldrh	r3, [r1, #12]
 8008f76:	b573      	push	{r0, r1, r4, r5, r6, lr}
 8008f78:	079d      	lsls	r5, r3, #30
 8008f7a:	4606      	mov	r6, r0
 8008f7c:	460c      	mov	r4, r1
 8008f7e:	d507      	bpl.n	8008f90 <__smakebuf_r+0x1c>
 8008f80:	f104 0347 	add.w	r3, r4, #71	; 0x47
 8008f84:	6023      	str	r3, [r4, #0]
 8008f86:	6123      	str	r3, [r4, #16]
 8008f88:	2301      	movs	r3, #1
 8008f8a:	6163      	str	r3, [r4, #20]
 8008f8c:	b002      	add	sp, #8
 8008f8e:	bd70      	pop	{r4, r5, r6, pc}
 8008f90:	ab01      	add	r3, sp, #4
 8008f92:	466a      	mov	r2, sp
 8008f94:	f7ff ffc9 	bl	8008f2a <__swhatbuf_r>
 8008f98:	9900      	ldr	r1, [sp, #0]
 8008f9a:	4605      	mov	r5, r0
 8008f9c:	4630      	mov	r0, r6
 8008f9e:	f7fe f919 	bl	80071d4 <_malloc_r>
 8008fa2:	b948      	cbnz	r0, 8008fb8 <__smakebuf_r+0x44>
 8008fa4:	f9b4 300c 	ldrsh.w	r3, [r4, #12]
 8008fa8:	059a      	lsls	r2, r3, #22
 8008faa:	d4ef      	bmi.n	8008f8c <__smakebuf_r+0x18>
 8008fac:	f023 0303 	bic.w	r3, r3, #3
 8008fb0:	f043 0302 	orr.w	r3, r3, #2
 8008fb4:	81a3      	strh	r3, [r4, #12]
 8008fb6:	e7e3      	b.n	8008f80 <__smakebuf_r+0xc>
 8008fb8:	4b0d      	ldr	r3, [pc, #52]	; (8008ff0 <__smakebuf_r+0x7c>)
 8008fba:	62b3      	str	r3, [r6, #40]	; 0x28
 8008fbc:	89a3      	ldrh	r3, [r4, #12]
 8008fbe:	6020      	str	r0, [r4, #0]
 8008fc0:	f043 0380 	orr.w	r3, r3, #128	; 0x80
 8008fc4:	81a3      	strh	r3, [r4, #12]
 8008fc6:	9b00      	ldr	r3, [sp, #0]
 8008fc8:	6163      	str	r3, [r4, #20]
 8008fca:	9b01      	ldr	r3, [sp, #4]
 8008fcc:	6120      	str	r0, [r4, #16]
 8008fce:	b15b      	cbz	r3, 8008fe8 <__smakebuf_r+0x74>
 8008fd0:	f9b4 100e 	ldrsh.w	r1, [r4, #14]
 8008fd4:	4630      	mov	r0, r6
 8008fd6:	f000 ff37 	bl	8009e48 <_isatty_r>
 8008fda:	b128      	cbz	r0, 8008fe8 <__smakebuf_r+0x74>
 8008fdc:	89a3      	ldrh	r3, [r4, #12]
 8008fde:	f023 0303 	bic.w	r3, r3, #3
 8008fe2:	f043 0301 	orr.w	r3, r3, #1
 8008fe6:	81a3      	strh	r3, [r4, #12]
 8008fe8:	89a0      	ldrh	r0, [r4, #12]
 8008fea:	4305      	orrs	r5, r0
 8008fec:	81a5      	strh	r5, [r4, #12]
 8008fee:	e7cd      	b.n	8008f8c <__smakebuf_r+0x18>
 8008ff0:	08008d79 	.word	0x08008d79

08008ff4 <memcpy>:
 8008ff4:	440a      	add	r2, r1
 8008ff6:	4291      	cmp	r1, r2
 8008ff8:	f100 33ff 	add.w	r3, r0, #4294967295
 8008ffc:	d100      	bne.n	8009000 <memcpy+0xc>
 8008ffe:	4770      	bx	lr
 8009000:	b510      	push	{r4, lr}
 8009002:	f811 4b01 	ldrb.w	r4, [r1], #1
 8009006:	f803 4f01 	strb.w	r4, [r3, #1]!
 800900a:	4291      	cmp	r1, r2
 800900c:	d1f9      	bne.n	8009002 <memcpy+0xe>
 800900e:	bd10      	pop	{r4, pc}

08009010 <__malloc_lock>:
 8009010:	4801      	ldr	r0, [pc, #4]	; (8009018 <__malloc_lock+0x8>)
 8009012:	f7ff bf88 	b.w	8008f26 <__retarget_lock_acquire_recursive>
 8009016:	bf00      	nop
 8009018:	20000704 	.word	0x20000704

0800901c <__malloc_unlock>:
 800901c:	4801      	ldr	r0, [pc, #4]	; (8009024 <__malloc_unlock+0x8>)
 800901e:	f7ff bf83 	b.w	8008f28 <__retarget_lock_release_recursive>
 8009022:	bf00      	nop
 8009024:	20000704 	.word	0x20000704

08009028 <_Balloc>:
 8009028:	b570      	push	{r4, r5, r6, lr}
 800902a:	6a46      	ldr	r6, [r0, #36]	; 0x24
 800902c:	4604      	mov	r4, r0
 800902e:	460d      	mov	r5, r1
 8009030:	b976      	cbnz	r6, 8009050 <_Balloc+0x28>
 8009032:	2010      	movs	r0, #16
 8009034:	f7fe f83c 	bl	80070b0 <malloc>
 8009038:	4602      	mov	r2, r0
 800903a:	6260      	str	r0, [r4, #36]	; 0x24
 800903c:	b920      	cbnz	r0, 8009048 <_Balloc+0x20>
 800903e:	4b18      	ldr	r3, [pc, #96]	; (80090a0 <_Balloc+0x78>)
 8009040:	4818      	ldr	r0, [pc, #96]	; (80090a4 <_Balloc+0x7c>)
 8009042:	2166      	movs	r1, #102	; 0x66
 8009044:	f000 feae 	bl	8009da4 <__assert_func>
 8009048:	e9c0 6601 	strd	r6, r6, [r0, #4]
 800904c:	6006      	str	r6, [r0, #0]
 800904e:	60c6      	str	r6, [r0, #12]
 8009050:	6a66      	ldr	r6, [r4, #36]	; 0x24
 8009052:	68f3      	ldr	r3, [r6, #12]
 8009054:	b183      	cbz	r3, 8009078 <_Balloc+0x50>
 8009056:	6a63      	ldr	r3, [r4, #36]	; 0x24
 8009058:	68db      	ldr	r3, [r3, #12]
 800905a:	f853 0025 	ldr.w	r0, [r3, r5, lsl #2]
 800905e:	b9b8      	cbnz	r0, 8009090 <_Balloc+0x68>
 8009060:	2101      	movs	r1, #1
 8009062:	fa01 f605 	lsl.w	r6, r1, r5
 8009066:	1d72      	adds	r2, r6, #5
 8009068:	0092      	lsls	r2, r2, #2
 800906a:	4620      	mov	r0, r4
 800906c:	f7fe f830 	bl	80070d0 <_calloc_r>
 8009070:	b160      	cbz	r0, 800908c <_Balloc+0x64>
 8009072:	e9c0 5601 	strd	r5, r6, [r0, #4]
 8009076:	e00e      	b.n	8009096 <_Balloc+0x6e>
 8009078:	2221      	movs	r2, #33	; 0x21
 800907a:	2104      	movs	r1, #4
 800907c:	4620      	mov	r0, r4
 800907e:	f7fe f827 	bl	80070d0 <_calloc_r>
 8009082:	6a63      	ldr	r3, [r4, #36]	; 0x24
 8009084:	60f0      	str	r0, [r6, #12]
 8009086:	68db      	ldr	r3, [r3, #12]
 8009088:	2b00      	cmp	r3, #0
 800908a:	d1e4      	bne.n	8009056 <_Balloc+0x2e>
 800908c:	2000      	movs	r0, #0
 800908e:	bd70      	pop	{r4, r5, r6, pc}
 8009090:	6802      	ldr	r2, [r0, #0]
 8009092:	f843 2025 	str.w	r2, [r3, r5, lsl #2]
 8009096:	2300      	movs	r3, #0
 8009098:	e9c0 3303 	strd	r3, r3, [r0, #12]
 800909c:	e7f7      	b.n	800908e <_Balloc+0x66>
 800909e:	bf00      	nop
 80090a0:	0800a275 	.word	0x0800a275
 80090a4:	0800a358 	.word	0x0800a358

080090a8 <_Bfree>:
 80090a8:	b570      	push	{r4, r5, r6, lr}
 80090aa:	6a46      	ldr	r6, [r0, #36]	; 0x24
 80090ac:	4605      	mov	r5, r0
 80090ae:	460c      	mov	r4, r1
 80090b0:	b976      	cbnz	r6, 80090d0 <_Bfree+0x28>
 80090b2:	2010      	movs	r0, #16
 80090b4:	f7fd fffc 	bl	80070b0 <malloc>
 80090b8:	4602      	mov	r2, r0
 80090ba:	6268      	str	r0, [r5, #36]	; 0x24
 80090bc:	b920      	cbnz	r0, 80090c8 <_Bfree+0x20>
 80090be:	4b09      	ldr	r3, [pc, #36]	; (80090e4 <_Bfree+0x3c>)
 80090c0:	4809      	ldr	r0, [pc, #36]	; (80090e8 <_Bfree+0x40>)
 80090c2:	218a      	movs	r1, #138	; 0x8a
 80090c4:	f000 fe6e 	bl	8009da4 <__assert_func>
 80090c8:	e9c0 6601 	strd	r6, r6, [r0, #4]
 80090cc:	6006      	str	r6, [r0, #0]
 80090ce:	60c6      	str	r6, [r0, #12]
 80090d0:	b13c      	cbz	r4, 80090e2 <_Bfree+0x3a>
 80090d2:	6a6b      	ldr	r3, [r5, #36]	; 0x24
 80090d4:	6862      	ldr	r2, [r4, #4]
 80090d6:	68db      	ldr	r3, [r3, #12]
 80090d8:	f853 1022 	ldr.w	r1, [r3, r2, lsl #2]
 80090dc:	6021      	str	r1, [r4, #0]
 80090de:	f843 4022 	str.w	r4, [r3, r2, lsl #2]
 80090e2:	bd70      	pop	{r4, r5, r6, pc}
 80090e4:	0800a275 	.word	0x0800a275
 80090e8:	0800a358 	.word	0x0800a358

080090ec <__multadd>:
 80090ec:	e92d 41f0 	stmdb	sp!, {r4, r5, r6, r7, r8, lr}
 80090f0:	690d      	ldr	r5, [r1, #16]
 80090f2:	4607      	mov	r7, r0
 80090f4:	460c      	mov	r4, r1
 80090f6:	461e      	mov	r6, r3
 80090f8:	f101 0c14 	add.w	ip, r1, #20
 80090fc:	2000      	movs	r0, #0
 80090fe:	f8dc 3000 	ldr.w	r3, [ip]
 8009102:	b299      	uxth	r1, r3
 8009104:	fb02 6101 	mla	r1, r2, r1, r6
 8009108:	0c1e      	lsrs	r6, r3, #16
 800910a:	0c0b      	lsrs	r3, r1, #16
 800910c:	fb02 3306 	mla	r3, r2, r6, r3
 8009110:	b289      	uxth	r1, r1
 8009112:	3001      	adds	r0, #1
 8009114:	eb01 4103 	add.w	r1, r1, r3, lsl #16
 8009118:	4285      	cmp	r5, r0
 800911a:	f84c 1b04 	str.w	r1, [ip], #4
 800911e:	ea4f 4613 	mov.w	r6, r3, lsr #16
 8009122:	dcec      	bgt.n	80090fe <__multadd+0x12>
 8009124:	b30e      	cbz	r6, 800916a <__multadd+0x7e>
 8009126:	68a3      	ldr	r3, [r4, #8]
 8009128:	42ab      	cmp	r3, r5
 800912a:	dc19      	bgt.n	8009160 <__multadd+0x74>
 800912c:	6861      	ldr	r1, [r4, #4]
 800912e:	4638      	mov	r0, r7
 8009130:	3101      	adds	r1, #1
 8009132:	f7ff ff79 	bl	8009028 <_Balloc>
 8009136:	4680      	mov	r8, r0
 8009138:	b928      	cbnz	r0, 8009146 <__multadd+0x5a>
 800913a:	4602      	mov	r2, r0
 800913c:	4b0c      	ldr	r3, [pc, #48]	; (8009170 <__multadd+0x84>)
 800913e:	480d      	ldr	r0, [pc, #52]	; (8009174 <__multadd+0x88>)
 8009140:	21b5      	movs	r1, #181	; 0xb5
 8009142:	f000 fe2f 	bl	8009da4 <__assert_func>
 8009146:	6922      	ldr	r2, [r4, #16]
 8009148:	3202      	adds	r2, #2
 800914a:	f104 010c 	add.w	r1, r4, #12
 800914e:	0092      	lsls	r2, r2, #2
 8009150:	300c      	adds	r0, #12
 8009152:	f7ff ff4f 	bl	8008ff4 <memcpy>
 8009156:	4621      	mov	r1, r4
 8009158:	4638      	mov	r0, r7
 800915a:	f7ff ffa5 	bl	80090a8 <_Bfree>
 800915e:	4644      	mov	r4, r8
 8009160:	eb04 0385 	add.w	r3, r4, r5, lsl #2
 8009164:	3501      	adds	r5, #1
 8009166:	615e      	str	r6, [r3, #20]
 8009168:	6125      	str	r5, [r4, #16]
 800916a:	4620      	mov	r0, r4
 800916c:	e8bd 81f0 	ldmia.w	sp!, {r4, r5, r6, r7, r8, pc}
 8009170:	0800a2e7 	.word	0x0800a2e7
 8009174:	0800a358 	.word	0x0800a358

08009178 <__hi0bits>:
 8009178:	0c03      	lsrs	r3, r0, #16
 800917a:	041b      	lsls	r3, r3, #16
 800917c:	b9d3      	cbnz	r3, 80091b4 <__hi0bits+0x3c>
 800917e:	0400      	lsls	r0, r0, #16
 8009180:	2310      	movs	r3, #16
 8009182:	f010 4f7f 	tst.w	r0, #4278190080	; 0xff000000
 8009186:	bf04      	itt	eq
 8009188:	0200      	lsleq	r0, r0, #8
 800918a:	3308      	addeq	r3, #8
 800918c:	f010 4f70 	tst.w	r0, #4026531840	; 0xf0000000
 8009190:	bf04      	itt	eq
 8009192:	0100      	lsleq	r0, r0, #4
 8009194:	3304      	addeq	r3, #4
 8009196:	f010 4f40 	tst.w	r0, #3221225472	; 0xc0000000
 800919a:	bf04      	itt	eq
 800919c:	0080      	lsleq	r0, r0, #2
 800919e:	3302      	addeq	r3, #2
 80091a0:	2800      	cmp	r0, #0
 80091a2:	db05      	blt.n	80091b0 <__hi0bits+0x38>
 80091a4:	f010 4f80 	tst.w	r0, #1073741824	; 0x40000000
 80091a8:	f103 0301 	add.w	r3, r3, #1
 80091ac:	bf08      	it	eq
 80091ae:	2320      	moveq	r3, #32
 80091b0:	4618      	mov	r0, r3
 80091b2:	4770      	bx	lr
 80091b4:	2300      	movs	r3, #0
 80091b6:	e7e4      	b.n	8009182 <__hi0bits+0xa>

080091b8 <__lo0bits>:
 80091b8:	6803      	ldr	r3, [r0, #0]
 80091ba:	f013 0207 	ands.w	r2, r3, #7
 80091be:	4601      	mov	r1, r0
 80091c0:	d00b      	beq.n	80091da <__lo0bits+0x22>
 80091c2:	07da      	lsls	r2, r3, #31
 80091c4:	d423      	bmi.n	800920e <__lo0bits+0x56>
 80091c6:	0798      	lsls	r0, r3, #30
 80091c8:	bf49      	itett	mi
 80091ca:	085b      	lsrmi	r3, r3, #1
 80091cc:	089b      	lsrpl	r3, r3, #2
 80091ce:	2001      	movmi	r0, #1
 80091d0:	600b      	strmi	r3, [r1, #0]
 80091d2:	bf5c      	itt	pl
 80091d4:	600b      	strpl	r3, [r1, #0]
 80091d6:	2002      	movpl	r0, #2
 80091d8:	4770      	bx	lr
 80091da:	b298      	uxth	r0, r3
 80091dc:	b9a8      	cbnz	r0, 800920a <__lo0bits+0x52>
 80091de:	0c1b      	lsrs	r3, r3, #16
 80091e0:	2010      	movs	r0, #16
 80091e2:	b2da      	uxtb	r2, r3
 80091e4:	b90a      	cbnz	r2, 80091ea <__lo0bits+0x32>
 80091e6:	3008      	adds	r0, #8
 80091e8:	0a1b      	lsrs	r3, r3, #8
 80091ea:	071a      	lsls	r2, r3, #28
 80091ec:	bf04      	itt	eq
 80091ee:	091b      	lsreq	r3, r3, #4
 80091f0:	3004      	addeq	r0, #4
 80091f2:	079a      	lsls	r2, r3, #30
 80091f4:	bf04      	itt	eq
 80091f6:	089b      	lsreq	r3, r3, #2
 80091f8:	3002      	addeq	r0, #2
 80091fa:	07da      	lsls	r2, r3, #31
 80091fc:	d403      	bmi.n	8009206 <__lo0bits+0x4e>
 80091fe:	085b      	lsrs	r3, r3, #1
 8009200:	f100 0001 	add.w	r0, r0, #1
 8009204:	d005      	beq.n	8009212 <__lo0bits+0x5a>
 8009206:	600b      	str	r3, [r1, #0]
 8009208:	4770      	bx	lr
 800920a:	4610      	mov	r0, r2
 800920c:	e7e9      	b.n	80091e2 <__lo0bits+0x2a>
 800920e:	2000      	movs	r0, #0
 8009210:	4770      	bx	lr
 8009212:	2020      	movs	r0, #32
 8009214:	4770      	bx	lr
	...

08009218 <__i2b>:
 8009218:	b510      	push	{r4, lr}
 800921a:	460c      	mov	r4, r1
 800921c:	2101      	movs	r1, #1
 800921e:	f7ff ff03 	bl	8009028 <_Balloc>
 8009222:	4602      	mov	r2, r0
 8009224:	b928      	cbnz	r0, 8009232 <__i2b+0x1a>
 8009226:	4b05      	ldr	r3, [pc, #20]	; (800923c <__i2b+0x24>)
 8009228:	4805      	ldr	r0, [pc, #20]	; (8009240 <__i2b+0x28>)
 800922a:	f44f 71a0 	mov.w	r1, #320	; 0x140
 800922e:	f000 fdb9 	bl	8009da4 <__assert_func>
 8009232:	2301      	movs	r3, #1
 8009234:	6144      	str	r4, [r0, #20]
 8009236:	6103      	str	r3, [r0, #16]
 8009238:	bd10      	pop	{r4, pc}
 800923a:	bf00      	nop
 800923c:	0800a2e7 	.word	0x0800a2e7
 8009240:	0800a358 	.word	0x0800a358

08009244 <__multiply>:
 8009244:	e92d 4ff0 	stmdb	sp!, {r4, r5, r6, r7, r8, r9, sl, fp, lr}
 8009248:	4691      	mov	r9, r2
 800924a:	690a      	ldr	r2, [r1, #16]
 800924c:	f8d9 3010 	ldr.w	r3, [r9, #16]
 8009250:	429a      	cmp	r2, r3
 8009252:	bfb8      	it	lt
 8009254:	460b      	movlt	r3, r1
 8009256:	460c      	mov	r4, r1
 8009258:	bfbc      	itt	lt
 800925a:	464c      	movlt	r4, r9
 800925c:	4699      	movlt	r9, r3
 800925e:	6927      	ldr	r7, [r4, #16]
 8009260:	f8d9 a010 	ldr.w	sl, [r9, #16]
 8009264:	68a3      	ldr	r3, [r4, #8]
 8009266:	6861      	ldr	r1, [r4, #4]
 8009268:	eb07 060a 	add.w	r6, r7, sl
 800926c:	42b3      	cmp	r3, r6
 800926e:	b085      	sub	sp, #20
 8009270:	bfb8      	it	lt
 8009272:	3101      	addlt	r1, #1
 8009274:	f7ff fed8 	bl	8009028 <_Balloc>
 8009278:	b930      	cbnz	r0, 8009288 <__multiply+0x44>
 800927a:	4602      	mov	r2, r0
 800927c:	4b44      	ldr	r3, [pc, #272]	; (8009390 <__multiply+0x14c>)
 800927e:	4845      	ldr	r0, [pc, #276]	; (8009394 <__multiply+0x150>)
 8009280:	f240 115d 	movw	r1, #349	; 0x15d
 8009284:	f000 fd8e 	bl	8009da4 <__assert_func>
 8009288:	f100 0514 	add.w	r5, r0, #20
 800928c:	eb05 0886 	add.w	r8, r5, r6, lsl #2
 8009290:	462b      	mov	r3, r5
 8009292:	2200      	movs	r2, #0
 8009294:	4543      	cmp	r3, r8
 8009296:	d321      	bcc.n	80092dc <__multiply+0x98>
 8009298:	f104 0314 	add.w	r3, r4, #20
 800929c:	eb03 0787 	add.w	r7, r3, r7, lsl #2
 80092a0:	f109 0314 	add.w	r3, r9, #20
 80092a4:	eb03 028a 	add.w	r2, r3, sl, lsl #2
 80092a8:	9202      	str	r2, [sp, #8]
 80092aa:	1b3a      	subs	r2, r7, r4
 80092ac:	3a15      	subs	r2, #21
 80092ae:	f022 0203 	bic.w	r2, r2, #3
 80092b2:	3204      	adds	r2, #4
 80092b4:	f104 0115 	add.w	r1, r4, #21
 80092b8:	428f      	cmp	r7, r1
 80092ba:	bf38      	it	cc
 80092bc:	2204      	movcc	r2, #4
 80092be:	9201      	str	r2, [sp, #4]
 80092c0:	9a02      	ldr	r2, [sp, #8]
 80092c2:	9303      	str	r3, [sp, #12]
 80092c4:	429a      	cmp	r2, r3
 80092c6:	d80c      	bhi.n	80092e2 <__multiply+0x9e>
 80092c8:	2e00      	cmp	r6, #0
 80092ca:	dd03      	ble.n	80092d4 <__multiply+0x90>
 80092cc:	f858 3d04 	ldr.w	r3, [r8, #-4]!
 80092d0:	2b00      	cmp	r3, #0
 80092d2:	d05a      	beq.n	800938a <__multiply+0x146>
 80092d4:	6106      	str	r6, [r0, #16]
 80092d6:	b005      	add	sp, #20
 80092d8:	e8bd 8ff0 	ldmia.w	sp!, {r4, r5, r6, r7, r8, r9, sl, fp, pc}
 80092dc:	f843 2b04 	str.w	r2, [r3], #4
 80092e0:	e7d8      	b.n	8009294 <__multiply+0x50>
 80092e2:	f8b3 a000 	ldrh.w	sl, [r3]
 80092e6:	f1ba 0f00 	cmp.w	sl, #0
 80092ea:	d024      	beq.n	8009336 <__multiply+0xf2>
 80092ec:	f104 0e14 	add.w	lr, r4, #20
 80092f0:	46a9      	mov	r9, r5
 80092f2:	f04f 0c00 	mov.w	ip, #0
 80092f6:	f85e 2b04 	ldr.w	r2, [lr], #4
 80092fa:	f8d9 1000 	ldr.w	r1, [r9]
 80092fe:	fa1f fb82 	uxth.w	fp, r2
 8009302:	b289      	uxth	r1, r1
 8009304:	fb0a 110b 	mla	r1, sl, fp, r1
 8009308:	ea4f 4b12 	mov.w	fp, r2, lsr #16
 800930c:	f8d9 2000 	ldr.w	r2, [r9]
 8009310:	4461      	add	r1, ip
 8009312:	ea4f 4c12 	mov.w	ip, r2, lsr #16
 8009316:	fb0a c20b 	mla	r2, sl, fp, ip
 800931a:	eb02 4211 	add.w	r2, r2, r1, lsr #16
 800931e:	b289      	uxth	r1, r1
 8009320:	ea41 4102 	orr.w	r1, r1, r2, lsl #16
 8009324:	4577      	cmp	r7, lr
 8009326:	f849 1b04 	str.w	r1, [r9], #4
 800932a:	ea4f 4c12 	mov.w	ip, r2, lsr #16
 800932e:	d8e2      	bhi.n	80092f6 <__multiply+0xb2>
 8009330:	9a01      	ldr	r2, [sp, #4]
 8009332:	f845 c002 	str.w	ip, [r5, r2]
 8009336:	9a03      	ldr	r2, [sp, #12]
 8009338:	f8b2 9002 	ldrh.w	r9, [r2, #2]
 800933c:	3304      	adds	r3, #4
 800933e:	f1b9 0f00 	cmp.w	r9, #0
 8009342:	d020      	beq.n	8009386 <__multiply+0x142>
 8009344:	6829      	ldr	r1, [r5, #0]
 8009346:	f104 0c14 	add.w	ip, r4, #20
 800934a:	46ae      	mov	lr, r5
 800934c:	f04f 0a00 	mov.w	sl, #0
 8009350:	f8bc b000 	ldrh.w	fp, [ip]
 8009354:	f8be 2002 	ldrh.w	r2, [lr, #2]
 8009358:	fb09 220b 	mla	r2, r9, fp, r2
 800935c:	4492      	add	sl, r2
 800935e:	b289      	uxth	r1, r1
 8009360:	ea41 410a 	orr.w	r1, r1, sl, lsl #16
 8009364:	f84e 1b04 	str.w	r1, [lr], #4
 8009368:	f85c 2b04 	ldr.w	r2, [ip], #4
 800936c:	f8be 1000 	ldrh.w	r1, [lr]
 8009370:	0c12      	lsrs	r2, r2, #16
 8009372:	fb09 1102 	mla	r1, r9, r2, r1
 8009376:	eb01 411a 	add.w	r1, r1, sl, lsr #16
 800937a:	4567      	cmp	r7, ip
 800937c:	ea4f 4a11 	mov.w	sl, r1, lsr #16
 8009380:	d8e6      	bhi.n	8009350 <__multiply+0x10c>
 8009382:	9a01      	ldr	r2, [sp, #4]
 8009384:	50a9      	str	r1, [r5, r2]
 8009386:	3504      	adds	r5, #4
 8009388:	e79a      	b.n	80092c0 <__multiply+0x7c>
 800938a:	3e01      	subs	r6, #1
 800938c:	e79c      	b.n	80092c8 <__multiply+0x84>
 800938e:	bf00      	nop
 8009390:	0800a2e7 	.word	0x0800a2e7
 8009394:	0800a358 	.word	0x0800a358

08009398 <__pow5mult>:
 8009398:	e92d 43f8 	stmdb	sp!, {r3, r4, r5, r6, r7, r8, r9, lr}
 800939c:	4615      	mov	r5, r2
 800939e:	f012 0203 	ands.w	r2, r2, #3
 80093a2:	4606      	mov	r6, r0
 80093a4:	460f      	mov	r7, r1
 80093a6:	d007      	beq.n	80093b8 <__pow5mult+0x20>
 80093a8:	4c25      	ldr	r4, [pc, #148]	; (8009440 <__pow5mult+0xa8>)
 80093aa:	3a01      	subs	r2, #1
 80093ac:	2300      	movs	r3, #0
 80093ae:	f854 2022 	ldr.w	r2, [r4, r2, lsl #2]
 80093b2:	f7ff fe9b 	bl	80090ec <__multadd>
 80093b6:	4607      	mov	r7, r0
 80093b8:	10ad      	asrs	r5, r5, #2
 80093ba:	d03d      	beq.n	8009438 <__pow5mult+0xa0>
 80093bc:	6a74      	ldr	r4, [r6, #36]	; 0x24
 80093be:	b97c      	cbnz	r4, 80093e0 <__pow5mult+0x48>
 80093c0:	2010      	movs	r0, #16
 80093c2:	f7fd fe75 	bl	80070b0 <malloc>
 80093c6:	4602      	mov	r2, r0
 80093c8:	6270      	str	r0, [r6, #36]	; 0x24
 80093ca:	b928      	cbnz	r0, 80093d8 <__pow5mult+0x40>
 80093cc:	4b1d      	ldr	r3, [pc, #116]	; (8009444 <__pow5mult+0xac>)
 80093ce:	481e      	ldr	r0, [pc, #120]	; (8009448 <__pow5mult+0xb0>)
 80093d0:	f44f 71d7 	mov.w	r1, #430	; 0x1ae
 80093d4:	f000 fce6 	bl	8009da4 <__assert_func>
 80093d8:	e9c0 4401 	strd	r4, r4, [r0, #4]
 80093dc:	6004      	str	r4, [r0, #0]
 80093de:	60c4      	str	r4, [r0, #12]
 80093e0:	f8d6 8024 	ldr.w	r8, [r6, #36]	; 0x24
 80093e4:	f8d8 4008 	ldr.w	r4, [r8, #8]
 80093e8:	b94c      	cbnz	r4, 80093fe <__pow5mult+0x66>
 80093ea:	f240 2171 	movw	r1, #625	; 0x271
 80093ee:	4630      	mov	r0, r6
 80093f0:	f7ff ff12 	bl	8009218 <__i2b>
 80093f4:	2300      	movs	r3, #0
 80093f6:	f8c8 0008 	str.w	r0, [r8, #8]
 80093fa:	4604      	mov	r4, r0
 80093fc:	6003      	str	r3, [r0, #0]
 80093fe:	f04f 0900 	mov.w	r9, #0
 8009402:	07eb      	lsls	r3, r5, #31
 8009404:	d50a      	bpl.n	800941c <__pow5mult+0x84>
 8009406:	4639      	mov	r1, r7
 8009408:	4622      	mov	r2, r4
 800940a:	4630      	mov	r0, r6
 800940c:	f7ff ff1a 	bl	8009244 <__multiply>
 8009410:	4639      	mov	r1, r7
 8009412:	4680      	mov	r8, r0
 8009414:	4630      	mov	r0, r6
 8009416:	f7ff fe47 	bl	80090a8 <_Bfree>
 800941a:	4647      	mov	r7, r8
 800941c:	106d      	asrs	r5, r5, #1
 800941e:	d00b      	beq.n	8009438 <__pow5mult+0xa0>
 8009420:	6820      	ldr	r0, [r4, #0]
 8009422:	b938      	cbnz	r0, 8009434 <__pow5mult+0x9c>
 8009424:	4622      	mov	r2, r4
 8009426:	4621      	mov	r1, r4
 8009428:	4630      	mov	r0, r6
 800942a:	f7ff ff0b 	bl	8009244 <__multiply>
 800942e:	6020      	str	r0, [r4, #0]
 8009430:	f8c0 9000 	str.w	r9, [r0]
 8009434:	4604      	mov	r4, r0
 8009436:	e7e4      	b.n	8009402 <__pow5mult+0x6a>
 8009438:	4638      	mov	r0, r7
 800943a:	e8bd 83f8 	ldmia.w	sp!, {r3, r4, r5, r6, r7, r8, r9, pc}
 800943e:	bf00      	nop
 8009440:	0800a4a8 	.word	0x0800a4a8
 8009444:	0800a275 	.word	0x0800a275
 8009448:	0800a358 	.word	0x0800a358

0800944c <__lshift>:
 800944c:	e92d 47f0 	stmdb	sp!, {r4, r5, r6, r7, r8, r9, sl, lr}
 8009450:	460c      	mov	r4, r1
 8009452:	6849      	ldr	r1, [r1, #4]
 8009454:	6923      	ldr	r3, [r4, #16]
 8009456:	eb03 1862 	add.w	r8, r3, r2, asr #5
 800945a:	68a3      	ldr	r3, [r4, #8]
 800945c:	4607      	mov	r7, r0
 800945e:	4691      	mov	r9, r2
 8009460:	ea4f 1a62 	mov.w	sl, r2, asr #5
 8009464:	f108 0601 	add.w	r6, r8, #1
 8009468:	42b3      	cmp	r3, r6
 800946a:	db0b      	blt.n	8009484 <__lshift+0x38>
 800946c:	4638      	mov	r0, r7
 800946e:	f7ff fddb 	bl	8009028 <_Balloc>
 8009472:	4605      	mov	r5, r0
 8009474:	b948      	cbnz	r0, 800948a <__lshift+0x3e>
 8009476:	4602      	mov	r2, r0
 8009478:	4b2a      	ldr	r3, [pc, #168]	; (8009524 <__lshift+0xd8>)
 800947a:	482b      	ldr	r0, [pc, #172]	; (8009528 <__lshift+0xdc>)
 800947c:	f240 11d9 	movw	r1, #473	; 0x1d9
 8009480:	f000 fc90 	bl	8009da4 <__assert_func>
 8009484:	3101      	adds	r1, #1
 8009486:	005b      	lsls	r3, r3, #1
 8009488:	e7ee      	b.n	8009468 <__lshift+0x1c>
 800948a:	2300      	movs	r3, #0
 800948c:	f100 0114 	add.w	r1, r0, #20
 8009490:	f100 0210 	add.w	r2, r0, #16
 8009494:	4618      	mov	r0, r3
 8009496:	4553      	cmp	r3, sl
 8009498:	db37      	blt.n	800950a <__lshift+0xbe>
 800949a:	6920      	ldr	r0, [r4, #16]
 800949c:	ea2a 7aea 	bic.w	sl, sl, sl, asr #31
 80094a0:	f104 0314 	add.w	r3, r4, #20
 80094a4:	f019 091f 	ands.w	r9, r9, #31
 80094a8:	eb01 018a 	add.w	r1, r1, sl, lsl #2
 80094ac:	eb03 0080 	add.w	r0, r3, r0, lsl #2
 80094b0:	d02f      	beq.n	8009512 <__lshift+0xc6>
 80094b2:	f1c9 0e20 	rsb	lr, r9, #32
 80094b6:	468a      	mov	sl, r1
 80094b8:	f04f 0c00 	mov.w	ip, #0
 80094bc:	681a      	ldr	r2, [r3, #0]
 80094be:	fa02 f209 	lsl.w	r2, r2, r9
 80094c2:	ea42 020c 	orr.w	r2, r2, ip
 80094c6:	f84a 2b04 	str.w	r2, [sl], #4
 80094ca:	f853 2b04 	ldr.w	r2, [r3], #4
 80094ce:	4298      	cmp	r0, r3
 80094d0:	fa22 fc0e 	lsr.w	ip, r2, lr
 80094d4:	d8f2      	bhi.n	80094bc <__lshift+0x70>
 80094d6:	1b03      	subs	r3, r0, r4
 80094d8:	3b15      	subs	r3, #21
 80094da:	f023 0303 	bic.w	r3, r3, #3
 80094de:	3304      	adds	r3, #4
 80094e0:	f104 0215 	add.w	r2, r4, #21
 80094e4:	4290      	cmp	r0, r2
 80094e6:	bf38      	it	cc
 80094e8:	2304      	movcc	r3, #4
 80094ea:	f841 c003 	str.w	ip, [r1, r3]
 80094ee:	f1bc 0f00 	cmp.w	ip, #0
 80094f2:	d001      	beq.n	80094f8 <__lshift+0xac>
 80094f4:	f108 0602 	add.w	r6, r8, #2
 80094f8:	3e01      	subs	r6, #1
 80094fa:	4638      	mov	r0, r7
 80094fc:	612e      	str	r6, [r5, #16]
 80094fe:	4621      	mov	r1, r4
 8009500:	f7ff fdd2 	bl	80090a8 <_Bfree>
 8009504:	4628      	mov	r0, r5
 8009506:	e8bd 87f0 	ldmia.w	sp!, {r4, r5, r6, r7, r8, r9, sl, pc}
 800950a:	f842 0f04 	str.w	r0, [r2, #4]!
 800950e:	3301      	adds	r3, #1
 8009510:	e7c1      	b.n	8009496 <__lshift+0x4a>
 8009512:	3904      	subs	r1, #4
 8009514:	f853 2b04 	ldr.w	r2, [r3], #4
 8009518:	f841 2f04 	str.w	r2, [r1, #4]!
 800951c:	4298      	cmp	r0, r3
 800951e:	d8f9      	bhi.n	8009514 <__lshift+0xc8>
 8009520:	e7ea      	b.n	80094f8 <__lshift+0xac>
 8009522:	bf00      	nop
 8009524:	0800a2e7 	.word	0x0800a2e7
 8009528:	0800a358 	.word	0x0800a358

0800952c <__mcmp>:
 800952c:	b530      	push	{r4, r5, lr}
 800952e:	6902      	ldr	r2, [r0, #16]
 8009530:	690c      	ldr	r4, [r1, #16]
 8009532:	1b12      	subs	r2, r2, r4
 8009534:	d10e      	bne.n	8009554 <__mcmp+0x28>
 8009536:	f100 0314 	add.w	r3, r0, #20
 800953a:	3114      	adds	r1, #20
 800953c:	eb03 0084 	add.w	r0, r3, r4, lsl #2
 8009540:	eb01 0184 	add.w	r1, r1, r4, lsl #2
 8009544:	f850 5d04 	ldr.w	r5, [r0, #-4]!
 8009548:	f851 4d04 	ldr.w	r4, [r1, #-4]!
 800954c:	42a5      	cmp	r5, r4
 800954e:	d003      	beq.n	8009558 <__mcmp+0x2c>
 8009550:	d305      	bcc.n	800955e <__mcmp+0x32>
 8009552:	2201      	movs	r2, #1
 8009554:	4610      	mov	r0, r2
 8009556:	bd30      	pop	{r4, r5, pc}
 8009558:	4283      	cmp	r3, r0
 800955a:	d3f3      	bcc.n	8009544 <__mcmp+0x18>
 800955c:	e7fa      	b.n	8009554 <__mcmp+0x28>
 800955e:	f04f 32ff 	mov.w	r2, #4294967295
 8009562:	e7f7      	b.n	8009554 <__mcmp+0x28>

08009564 <__mdiff>:
 8009564:	e92d 4ff8 	stmdb	sp!, {r3, r4, r5, r6, r7, r8, r9, sl, fp, lr}
 8009568:	460c      	mov	r4, r1
 800956a:	4606      	mov	r6, r0
 800956c:	4611      	mov	r1, r2
 800956e:	4620      	mov	r0, r4
 8009570:	4690      	mov	r8, r2
 8009572:	f7ff ffdb 	bl	800952c <__mcmp>
 8009576:	1e05      	subs	r5, r0, #0
 8009578:	d110      	bne.n	800959c <__mdiff+0x38>
 800957a:	4629      	mov	r1, r5
 800957c:	4630      	mov	r0, r6
 800957e:	f7ff fd53 	bl	8009028 <_Balloc>
 8009582:	b930      	cbnz	r0, 8009592 <__mdiff+0x2e>
 8009584:	4b3a      	ldr	r3, [pc, #232]	; (8009670 <__mdiff+0x10c>)
 8009586:	4602      	mov	r2, r0
 8009588:	f240 2132 	movw	r1, #562	; 0x232
 800958c:	4839      	ldr	r0, [pc, #228]	; (8009674 <__mdiff+0x110>)
 800958e:	f000 fc09 	bl	8009da4 <__assert_func>
 8009592:	2301      	movs	r3, #1
 8009594:	e9c0 3504 	strd	r3, r5, [r0, #16]
 8009598:	e8bd 8ff8 	ldmia.w	sp!, {r3, r4, r5, r6, r7, r8, r9, sl, fp, pc}
 800959c:	bfa4      	itt	ge
 800959e:	4643      	movge	r3, r8
 80095a0:	46a0      	movge	r8, r4
 80095a2:	4630      	mov	r0, r6
 80095a4:	f8d8 1004 	ldr.w	r1, [r8, #4]
 80095a8:	bfa6      	itte	ge
 80095aa:	461c      	movge	r4, r3
 80095ac:	2500      	movge	r5, #0
 80095ae:	2501      	movlt	r5, #1
 80095b0:	f7ff fd3a 	bl	8009028 <_Balloc>
 80095b4:	b920      	cbnz	r0, 80095c0 <__mdiff+0x5c>
 80095b6:	4b2e      	ldr	r3, [pc, #184]	; (8009670 <__mdiff+0x10c>)
 80095b8:	4602      	mov	r2, r0
 80095ba:	f44f 7110 	mov.w	r1, #576	; 0x240
 80095be:	e7e5      	b.n	800958c <__mdiff+0x28>
 80095c0:	f8d8 7010 	ldr.w	r7, [r8, #16]
 80095c4:	6926      	ldr	r6, [r4, #16]
 80095c6:	60c5      	str	r5, [r0, #12]
 80095c8:	f104 0914 	add.w	r9, r4, #20
 80095cc:	f108 0514 	add.w	r5, r8, #20
 80095d0:	f100 0e14 	add.w	lr, r0, #20
 80095d4:	eb05 0c87 	add.w	ip, r5, r7, lsl #2
 80095d8:	eb09 0686 	add.w	r6, r9, r6, lsl #2
 80095dc:	f108 0210 	add.w	r2, r8, #16
 80095e0:	46f2      	mov	sl, lr
 80095e2:	2100      	movs	r1, #0
 80095e4:	f859 3b04 	ldr.w	r3, [r9], #4
 80095e8:	f852 bf04 	ldr.w	fp, [r2, #4]!
 80095ec:	fa1f f883 	uxth.w	r8, r3
 80095f0:	fa11 f18b 	uxtah	r1, r1, fp
 80095f4:	0c1b      	lsrs	r3, r3, #16
 80095f6:	eba1 0808 	sub.w	r8, r1, r8
 80095fa:	ebc3 431b 	rsb	r3, r3, fp, lsr #16
 80095fe:	eb03 4328 	add.w	r3, r3, r8, asr #16
 8009602:	fa1f f888 	uxth.w	r8, r8
 8009606:	1419      	asrs	r1, r3, #16
 8009608:	454e      	cmp	r6, r9
 800960a:	ea48 4303 	orr.w	r3, r8, r3, lsl #16
 800960e:	f84a 3b04 	str.w	r3, [sl], #4
 8009612:	d8e7      	bhi.n	80095e4 <__mdiff+0x80>
 8009614:	1b33      	subs	r3, r6, r4
 8009616:	3b15      	subs	r3, #21
 8009618:	f023 0303 	bic.w	r3, r3, #3
 800961c:	3304      	adds	r3, #4
 800961e:	3415      	adds	r4, #21
 8009620:	42a6      	cmp	r6, r4
 8009622:	bf38      	it	cc
 8009624:	2304      	movcc	r3, #4
 8009626:	441d      	add	r5, r3
 8009628:	4473      	add	r3, lr
 800962a:	469e      	mov	lr, r3
 800962c:	462e      	mov	r6, r5
 800962e:	4566      	cmp	r6, ip
 8009630:	d30e      	bcc.n	8009650 <__mdiff+0xec>
 8009632:	f10c 0203 	add.w	r2, ip, #3
 8009636:	1b52      	subs	r2, r2, r5
 8009638:	f022 0203 	bic.w	r2, r2, #3
 800963c:	3d03      	subs	r5, #3
 800963e:	45ac      	cmp	ip, r5
 8009640:	bf38      	it	cc
 8009642:	2200      	movcc	r2, #0
 8009644:	441a      	add	r2, r3
 8009646:	f852 3d04 	ldr.w	r3, [r2, #-4]!
 800964a:	b17b      	cbz	r3, 800966c <__mdiff+0x108>
 800964c:	6107      	str	r7, [r0, #16]
 800964e:	e7a3      	b.n	8009598 <__mdiff+0x34>
 8009650:	f856 8b04 	ldr.w	r8, [r6], #4
 8009654:	fa11 f288 	uxtah	r2, r1, r8
 8009658:	1414      	asrs	r4, r2, #16
 800965a:	eb04 4418 	add.w	r4, r4, r8, lsr #16
 800965e:	b292      	uxth	r2, r2
 8009660:	ea42 4204 	orr.w	r2, r2, r4, lsl #16
 8009664:	f84e 2b04 	str.w	r2, [lr], #4
 8009668:	1421      	asrs	r1, r4, #16
 800966a:	e7e0      	b.n	800962e <__mdiff+0xca>
 800966c:	3f01      	subs	r7, #1
 800966e:	e7ea      	b.n	8009646 <__mdiff+0xe2>
 8009670:	0800a2e7 	.word	0x0800a2e7
 8009674:	0800a358 	.word	0x0800a358

08009678 <__d2b>:
 8009678:	e92d 43f7 	stmdb	sp!, {r0, r1, r2, r4, r5, r6, r7, r8, r9, lr}
 800967c:	4689      	mov	r9, r1
 800967e:	2101      	movs	r1, #1
 8009680:	ec57 6b10 	vmov	r6, r7, d0
 8009684:	4690      	mov	r8, r2
 8009686:	f7ff fccf 	bl	8009028 <_Balloc>
 800968a:	4604      	mov	r4, r0
 800968c:	b930      	cbnz	r0, 800969c <__d2b+0x24>
 800968e:	4602      	mov	r2, r0
 8009690:	4b25      	ldr	r3, [pc, #148]	; (8009728 <__d2b+0xb0>)
 8009692:	4826      	ldr	r0, [pc, #152]	; (800972c <__d2b+0xb4>)
 8009694:	f240 310a 	movw	r1, #778	; 0x30a
 8009698:	f000 fb84 	bl	8009da4 <__assert_func>
 800969c:	f3c7 550a 	ubfx	r5, r7, #20, #11
 80096a0:	f3c7 0313 	ubfx	r3, r7, #0, #20
 80096a4:	bb35      	cbnz	r5, 80096f4 <__d2b+0x7c>
 80096a6:	2e00      	cmp	r6, #0
 80096a8:	9301      	str	r3, [sp, #4]
 80096aa:	d028      	beq.n	80096fe <__d2b+0x86>
 80096ac:	4668      	mov	r0, sp
 80096ae:	9600      	str	r6, [sp, #0]
 80096b0:	f7ff fd82 	bl	80091b8 <__lo0bits>
 80096b4:	9900      	ldr	r1, [sp, #0]
 80096b6:	b300      	cbz	r0, 80096fa <__d2b+0x82>
 80096b8:	9a01      	ldr	r2, [sp, #4]
 80096ba:	f1c0 0320 	rsb	r3, r0, #32
 80096be:	fa02 f303 	lsl.w	r3, r2, r3
 80096c2:	430b      	orrs	r3, r1
 80096c4:	40c2      	lsrs	r2, r0
 80096c6:	6163      	str	r3, [r4, #20]
 80096c8:	9201      	str	r2, [sp, #4]
 80096ca:	9b01      	ldr	r3, [sp, #4]
 80096cc:	61a3      	str	r3, [r4, #24]
 80096ce:	2b00      	cmp	r3, #0
 80096d0:	bf14      	ite	ne
 80096d2:	2202      	movne	r2, #2
 80096d4:	2201      	moveq	r2, #1
 80096d6:	6122      	str	r2, [r4, #16]
 80096d8:	b1d5      	cbz	r5, 8009710 <__d2b+0x98>
 80096da:	f2a5 4533 	subw	r5, r5, #1075	; 0x433
 80096de:	4405      	add	r5, r0
 80096e0:	f8c9 5000 	str.w	r5, [r9]
 80096e4:	f1c0 0035 	rsb	r0, r0, #53	; 0x35
 80096e8:	f8c8 0000 	str.w	r0, [r8]
 80096ec:	4620      	mov	r0, r4
 80096ee:	b003      	add	sp, #12
 80096f0:	e8bd 83f0 	ldmia.w	sp!, {r4, r5, r6, r7, r8, r9, pc}
 80096f4:	f443 1380 	orr.w	r3, r3, #1048576	; 0x100000
 80096f8:	e7d5      	b.n	80096a6 <__d2b+0x2e>
 80096fa:	6161      	str	r1, [r4, #20]
 80096fc:	e7e5      	b.n	80096ca <__d2b+0x52>
 80096fe:	a801      	add	r0, sp, #4
 8009700:	f7ff fd5a 	bl	80091b8 <__lo0bits>
 8009704:	9b01      	ldr	r3, [sp, #4]
 8009706:	6163      	str	r3, [r4, #20]
 8009708:	2201      	movs	r2, #1
 800970a:	6122      	str	r2, [r4, #16]
 800970c:	3020      	adds	r0, #32
 800970e:	e7e3      	b.n	80096d8 <__d2b+0x60>
 8009710:	eb04 0382 	add.w	r3, r4, r2, lsl #2
 8009714:	f2a0 4032 	subw	r0, r0, #1074	; 0x432
 8009718:	f8c9 0000 	str.w	r0, [r9]
 800971c:	6918      	ldr	r0, [r3, #16]
 800971e:	f7ff fd2b 	bl	8009178 <__hi0bits>
 8009722:	ebc0 1042 	rsb	r0, r0, r2, lsl #5
 8009726:	e7df      	b.n	80096e8 <__d2b+0x70>
 8009728:	0800a2e7 	.word	0x0800a2e7
 800972c:	0800a358 	.word	0x0800a358

08009730 <_realloc_r>:
 8009730:	e92d 41f0 	stmdb	sp!, {r4, r5, r6, r7, r8, lr}
 8009734:	4680      	mov	r8, r0
 8009736:	4614      	mov	r4, r2
 8009738:	460e      	mov	r6, r1
 800973a:	b921      	cbnz	r1, 8009746 <_realloc_r+0x16>
 800973c:	e8bd 41f0 	ldmia.w	sp!, {r4, r5, r6, r7, r8, lr}
 8009740:	4611      	mov	r1, r2
 8009742:	f7fd bd47 	b.w	80071d4 <_malloc_r>
 8009746:	b92a      	cbnz	r2, 8009754 <_realloc_r+0x24>
 8009748:	f7fd fcd8 	bl	80070fc <_free_r>
 800974c:	4625      	mov	r5, r4
 800974e:	4628      	mov	r0, r5
 8009750:	e8bd 81f0 	ldmia.w	sp!, {r4, r5, r6, r7, r8, pc}
 8009754:	f000 fbc6 	bl	8009ee4 <_malloc_usable_size_r>
 8009758:	4284      	cmp	r4, r0
 800975a:	4607      	mov	r7, r0
 800975c:	d802      	bhi.n	8009764 <_realloc_r+0x34>
 800975e:	ebb4 0f50 	cmp.w	r4, r0, lsr #1
 8009762:	d812      	bhi.n	800978a <_realloc_r+0x5a>
 8009764:	4621      	mov	r1, r4
 8009766:	4640      	mov	r0, r8
 8009768:	f7fd fd34 	bl	80071d4 <_malloc_r>
 800976c:	4605      	mov	r5, r0
 800976e:	2800      	cmp	r0, #0
 8009770:	d0ed      	beq.n	800974e <_realloc_r+0x1e>
 8009772:	42bc      	cmp	r4, r7
 8009774:	4622      	mov	r2, r4
 8009776:	4631      	mov	r1, r6
 8009778:	bf28      	it	cs
 800977a:	463a      	movcs	r2, r7
 800977c:	f7ff fc3a 	bl	8008ff4 <memcpy>
 8009780:	4631      	mov	r1, r6
 8009782:	4640      	mov	r0, r8
 8009784:	f7fd fcba 	bl	80070fc <_free_r>
 8009788:	e7e1      	b.n	800974e <_realloc_r+0x1e>
 800978a:	4635      	mov	r5, r6
 800978c:	e7df      	b.n	800974e <_realloc_r+0x1e>

0800978e <__ssputs_r>:
 800978e:	e92d 47f0 	stmdb	sp!, {r4, r5, r6, r7, r8, r9, sl, lr}
 8009792:	688e      	ldr	r6, [r1, #8]
 8009794:	429e      	cmp	r6, r3
 8009796:	4682      	mov	sl, r0
 8009798:	460c      	mov	r4, r1
 800979a:	4690      	mov	r8, r2
 800979c:	461f      	mov	r7, r3
 800979e:	d838      	bhi.n	8009812 <__ssputs_r+0x84>
 80097a0:	898a      	ldrh	r2, [r1, #12]
 80097a2:	f412 6f90 	tst.w	r2, #1152	; 0x480
 80097a6:	d032      	beq.n	800980e <__ssputs_r+0x80>
 80097a8:	6825      	ldr	r5, [r4, #0]
 80097aa:	6909      	ldr	r1, [r1, #16]
 80097ac:	eba5 0901 	sub.w	r9, r5, r1
 80097b0:	6965      	ldr	r5, [r4, #20]
 80097b2:	eb05 0545 	add.w	r5, r5, r5, lsl #1
 80097b6:	eb05 75d5 	add.w	r5, r5, r5, lsr #31
 80097ba:	3301      	adds	r3, #1
 80097bc:	444b      	add	r3, r9
 80097be:	106d      	asrs	r5, r5, #1
 80097c0:	429d      	cmp	r5, r3
 80097c2:	bf38      	it	cc
 80097c4:	461d      	movcc	r5, r3
 80097c6:	0553      	lsls	r3, r2, #21
 80097c8:	d531      	bpl.n	800982e <__ssputs_r+0xa0>
 80097ca:	4629      	mov	r1, r5
 80097cc:	f7fd fd02 	bl	80071d4 <_malloc_r>
 80097d0:	4606      	mov	r6, r0
 80097d2:	b950      	cbnz	r0, 80097ea <__ssputs_r+0x5c>
 80097d4:	230c      	movs	r3, #12
 80097d6:	f8ca 3000 	str.w	r3, [sl]
 80097da:	89a3      	ldrh	r3, [r4, #12]
 80097dc:	f043 0340 	orr.w	r3, r3, #64	; 0x40
 80097e0:	81a3      	strh	r3, [r4, #12]
 80097e2:	f04f 30ff 	mov.w	r0, #4294967295
 80097e6:	e8bd 87f0 	ldmia.w	sp!, {r4, r5, r6, r7, r8, r9, sl, pc}
 80097ea:	6921      	ldr	r1, [r4, #16]
 80097ec:	464a      	mov	r2, r9
 80097ee:	f7ff fc01 	bl	8008ff4 <memcpy>
 80097f2:	89a3      	ldrh	r3, [r4, #12]
 80097f4:	f423 6390 	bic.w	r3, r3, #1152	; 0x480
 80097f8:	f043 0380 	orr.w	r3, r3, #128	; 0x80
 80097fc:	81a3      	strh	r3, [r4, #12]
 80097fe:	6126      	str	r6, [r4, #16]
 8009800:	6165      	str	r5, [r4, #20]
 8009802:	444e      	add	r6, r9
 8009804:	eba5 0509 	sub.w	r5, r5, r9
 8009808:	6026      	str	r6, [r4, #0]
 800980a:	60a5      	str	r5, [r4, #8]
 800980c:	463e      	mov	r6, r7
 800980e:	42be      	cmp	r6, r7
 8009810:	d900      	bls.n	8009814 <__ssputs_r+0x86>
 8009812:	463e      	mov	r6, r7
 8009814:	6820      	ldr	r0, [r4, #0]
 8009816:	4632      	mov	r2, r6
 8009818:	4641      	mov	r1, r8
 800981a:	f000 fb49 	bl	8009eb0 <memmove>
 800981e:	68a3      	ldr	r3, [r4, #8]
 8009820:	1b9b      	subs	r3, r3, r6
 8009822:	60a3      	str	r3, [r4, #8]
 8009824:	6823      	ldr	r3, [r4, #0]
 8009826:	4433      	add	r3, r6
 8009828:	6023      	str	r3, [r4, #0]
 800982a:	2000      	movs	r0, #0
 800982c:	e7db      	b.n	80097e6 <__ssputs_r+0x58>
 800982e:	462a      	mov	r2, r5
 8009830:	f7ff ff7e 	bl	8009730 <_realloc_r>
 8009834:	4606      	mov	r6, r0
 8009836:	2800      	cmp	r0, #0
 8009838:	d1e1      	bne.n	80097fe <__ssputs_r+0x70>
 800983a:	6921      	ldr	r1, [r4, #16]
 800983c:	4650      	mov	r0, sl
 800983e:	f7fd fc5d 	bl	80070fc <_free_r>
 8009842:	e7c7      	b.n	80097d4 <__ssputs_r+0x46>

08009844 <_svfiprintf_r>:
 8009844:	e92d 4ff0 	stmdb	sp!, {r4, r5, r6, r7, r8, r9, sl, fp, lr}
 8009848:	4698      	mov	r8, r3
 800984a:	898b      	ldrh	r3, [r1, #12]
 800984c:	061b      	lsls	r3, r3, #24
 800984e:	b09d      	sub	sp, #116	; 0x74
 8009850:	4607      	mov	r7, r0
 8009852:	460d      	mov	r5, r1
 8009854:	4614      	mov	r4, r2
 8009856:	d50e      	bpl.n	8009876 <_svfiprintf_r+0x32>
 8009858:	690b      	ldr	r3, [r1, #16]
 800985a:	b963      	cbnz	r3, 8009876 <_svfiprintf_r+0x32>
 800985c:	2140      	movs	r1, #64	; 0x40
 800985e:	f7fd fcb9 	bl	80071d4 <_malloc_r>
 8009862:	6028      	str	r0, [r5, #0]
 8009864:	6128      	str	r0, [r5, #16]
 8009866:	b920      	cbnz	r0, 8009872 <_svfiprintf_r+0x2e>
 8009868:	230c      	movs	r3, #12
 800986a:	603b      	str	r3, [r7, #0]
 800986c:	f04f 30ff 	mov.w	r0, #4294967295
 8009870:	e0d1      	b.n	8009a16 <_svfiprintf_r+0x1d2>
 8009872:	2340      	movs	r3, #64	; 0x40
 8009874:	616b      	str	r3, [r5, #20]
 8009876:	2300      	movs	r3, #0
 8009878:	9309      	str	r3, [sp, #36]	; 0x24
 800987a:	2320      	movs	r3, #32
 800987c:	f88d 3029 	strb.w	r3, [sp, #41]	; 0x29
 8009880:	f8cd 800c 	str.w	r8, [sp, #12]
 8009884:	2330      	movs	r3, #48	; 0x30
 8009886:	f8df 81a8 	ldr.w	r8, [pc, #424]	; 8009a30 <_svfiprintf_r+0x1ec>
 800988a:	f88d 302a 	strb.w	r3, [sp, #42]	; 0x2a
 800988e:	f04f 0901 	mov.w	r9, #1
 8009892:	4623      	mov	r3, r4
 8009894:	469a      	mov	sl, r3
 8009896:	f813 2b01 	ldrb.w	r2, [r3], #1
 800989a:	b10a      	cbz	r2, 80098a0 <_svfiprintf_r+0x5c>
 800989c:	2a25      	cmp	r2, #37	; 0x25
 800989e:	d1f9      	bne.n	8009894 <_svfiprintf_r+0x50>
 80098a0:	ebba 0b04 	subs.w	fp, sl, r4
 80098a4:	d00b      	beq.n	80098be <_svfiprintf_r+0x7a>
 80098a6:	465b      	mov	r3, fp
 80098a8:	4622      	mov	r2, r4
 80098aa:	4629      	mov	r1, r5
 80098ac:	4638      	mov	r0, r7
 80098ae:	f7ff ff6e 	bl	800978e <__ssputs_r>
 80098b2:	3001      	adds	r0, #1
 80098b4:	f000 80aa 	beq.w	8009a0c <_svfiprintf_r+0x1c8>
 80098b8:	9a09      	ldr	r2, [sp, #36]	; 0x24
 80098ba:	445a      	add	r2, fp
 80098bc:	9209      	str	r2, [sp, #36]	; 0x24
 80098be:	f89a 3000 	ldrb.w	r3, [sl]
 80098c2:	2b00      	cmp	r3, #0
 80098c4:	f000 80a2 	beq.w	8009a0c <_svfiprintf_r+0x1c8>
 80098c8:	2300      	movs	r3, #0
 80098ca:	f04f 32ff 	mov.w	r2, #4294967295
 80098ce:	e9cd 2305 	strd	r2, r3, [sp, #20]
 80098d2:	f10a 0a01 	add.w	sl, sl, #1
 80098d6:	9304      	str	r3, [sp, #16]
 80098d8:	9307      	str	r3, [sp, #28]
 80098da:	f88d 3053 	strb.w	r3, [sp, #83]	; 0x53
 80098de:	931a      	str	r3, [sp, #104]	; 0x68
 80098e0:	4654      	mov	r4, sl
 80098e2:	2205      	movs	r2, #5
 80098e4:	f814 1b01 	ldrb.w	r1, [r4], #1
 80098e8:	4851      	ldr	r0, [pc, #324]	; (8009a30 <_svfiprintf_r+0x1ec>)
 80098ea:	f7f6 fc81 	bl	80001f0 <memchr>
 80098ee:	9a04      	ldr	r2, [sp, #16]
 80098f0:	b9d8      	cbnz	r0, 800992a <_svfiprintf_r+0xe6>
 80098f2:	06d0      	lsls	r0, r2, #27
 80098f4:	bf44      	itt	mi
 80098f6:	2320      	movmi	r3, #32
 80098f8:	f88d 3053 	strbmi.w	r3, [sp, #83]	; 0x53
 80098fc:	0711      	lsls	r1, r2, #28
 80098fe:	bf44      	itt	mi
 8009900:	232b      	movmi	r3, #43	; 0x2b
 8009902:	f88d 3053 	strbmi.w	r3, [sp, #83]	; 0x53
 8009906:	f89a 3000 	ldrb.w	r3, [sl]
 800990a:	2b2a      	cmp	r3, #42	; 0x2a
 800990c:	d015      	beq.n	800993a <_svfiprintf_r+0xf6>
 800990e:	9a07      	ldr	r2, [sp, #28]
 8009910:	4654      	mov	r4, sl
 8009912:	2000      	movs	r0, #0
 8009914:	f04f 0c0a 	mov.w	ip, #10
 8009918:	4621      	mov	r1, r4
 800991a:	f811 3b01 	ldrb.w	r3, [r1], #1
 800991e:	3b30      	subs	r3, #48	; 0x30
 8009920:	2b09      	cmp	r3, #9
 8009922:	d94e      	bls.n	80099c2 <_svfiprintf_r+0x17e>
 8009924:	b1b0      	cbz	r0, 8009954 <_svfiprintf_r+0x110>
 8009926:	9207      	str	r2, [sp, #28]
 8009928:	e014      	b.n	8009954 <_svfiprintf_r+0x110>
 800992a:	eba0 0308 	sub.w	r3, r0, r8
 800992e:	fa09 f303 	lsl.w	r3, r9, r3
 8009932:	4313      	orrs	r3, r2
 8009934:	9304      	str	r3, [sp, #16]
 8009936:	46a2      	mov	sl, r4
 8009938:	e7d2      	b.n	80098e0 <_svfiprintf_r+0x9c>
 800993a:	9b03      	ldr	r3, [sp, #12]
 800993c:	1d19      	adds	r1, r3, #4
 800993e:	681b      	ldr	r3, [r3, #0]
 8009940:	9103      	str	r1, [sp, #12]
 8009942:	2b00      	cmp	r3, #0
 8009944:	bfbb      	ittet	lt
 8009946:	425b      	neglt	r3, r3
 8009948:	f042 0202 	orrlt.w	r2, r2, #2
 800994c:	9307      	strge	r3, [sp, #28]
 800994e:	9307      	strlt	r3, [sp, #28]
 8009950:	bfb8      	it	lt
 8009952:	9204      	strlt	r2, [sp, #16]
 8009954:	7823      	ldrb	r3, [r4, #0]
 8009956:	2b2e      	cmp	r3, #46	; 0x2e
 8009958:	d10c      	bne.n	8009974 <_svfiprintf_r+0x130>
 800995a:	7863      	ldrb	r3, [r4, #1]
 800995c:	2b2a      	cmp	r3, #42	; 0x2a
 800995e:	d135      	bne.n	80099cc <_svfiprintf_r+0x188>
 8009960:	9b03      	ldr	r3, [sp, #12]
 8009962:	1d1a      	adds	r2, r3, #4
 8009964:	681b      	ldr	r3, [r3, #0]
 8009966:	9203      	str	r2, [sp, #12]
 8009968:	2b00      	cmp	r3, #0
 800996a:	bfb8      	it	lt
 800996c:	f04f 33ff 	movlt.w	r3, #4294967295
 8009970:	3402      	adds	r4, #2
 8009972:	9305      	str	r3, [sp, #20]
 8009974:	f8df a0c8 	ldr.w	sl, [pc, #200]	; 8009a40 <_svfiprintf_r+0x1fc>
 8009978:	7821      	ldrb	r1, [r4, #0]
 800997a:	2203      	movs	r2, #3
 800997c:	4650      	mov	r0, sl
 800997e:	f7f6 fc37 	bl	80001f0 <memchr>
 8009982:	b140      	cbz	r0, 8009996 <_svfiprintf_r+0x152>
 8009984:	2340      	movs	r3, #64	; 0x40
 8009986:	eba0 000a 	sub.w	r0, r0, sl
 800998a:	fa03 f000 	lsl.w	r0, r3, r0
 800998e:	9b04      	ldr	r3, [sp, #16]
 8009990:	4303      	orrs	r3, r0
 8009992:	3401      	adds	r4, #1
 8009994:	9304      	str	r3, [sp, #16]
 8009996:	f814 1b01 	ldrb.w	r1, [r4], #1
 800999a:	4826      	ldr	r0, [pc, #152]	; (8009a34 <_svfiprintf_r+0x1f0>)
 800999c:	f88d 1028 	strb.w	r1, [sp, #40]	; 0x28
 80099a0:	2206      	movs	r2, #6
 80099a2:	f7f6 fc25 	bl	80001f0 <memchr>
 80099a6:	2800      	cmp	r0, #0
 80099a8:	d038      	beq.n	8009a1c <_svfiprintf_r+0x1d8>
 80099aa:	4b23      	ldr	r3, [pc, #140]	; (8009a38 <_svfiprintf_r+0x1f4>)
 80099ac:	bb1b      	cbnz	r3, 80099f6 <_svfiprintf_r+0x1b2>
 80099ae:	9b03      	ldr	r3, [sp, #12]
 80099b0:	3307      	adds	r3, #7
 80099b2:	f023 0307 	bic.w	r3, r3, #7
 80099b6:	3308      	adds	r3, #8
 80099b8:	9303      	str	r3, [sp, #12]
 80099ba:	9b09      	ldr	r3, [sp, #36]	; 0x24
 80099bc:	4433      	add	r3, r6
 80099be:	9309      	str	r3, [sp, #36]	; 0x24
 80099c0:	e767      	b.n	8009892 <_svfiprintf_r+0x4e>
 80099c2:	fb0c 3202 	mla	r2, ip, r2, r3
 80099c6:	460c      	mov	r4, r1
 80099c8:	2001      	movs	r0, #1
 80099ca:	e7a5      	b.n	8009918 <_svfiprintf_r+0xd4>
 80099cc:	2300      	movs	r3, #0
 80099ce:	3401      	adds	r4, #1
 80099d0:	9305      	str	r3, [sp, #20]
 80099d2:	4619      	mov	r1, r3
 80099d4:	f04f 0c0a 	mov.w	ip, #10
 80099d8:	4620      	mov	r0, r4
 80099da:	f810 2b01 	ldrb.w	r2, [r0], #1
 80099de:	3a30      	subs	r2, #48	; 0x30
 80099e0:	2a09      	cmp	r2, #9
 80099e2:	d903      	bls.n	80099ec <_svfiprintf_r+0x1a8>
 80099e4:	2b00      	cmp	r3, #0
 80099e6:	d0c5      	beq.n	8009974 <_svfiprintf_r+0x130>
 80099e8:	9105      	str	r1, [sp, #20]
 80099ea:	e7c3      	b.n	8009974 <_svfiprintf_r+0x130>
 80099ec:	fb0c 2101 	mla	r1, ip, r1, r2
 80099f0:	4604      	mov	r4, r0
 80099f2:	2301      	movs	r3, #1
 80099f4:	e7f0      	b.n	80099d8 <_svfiprintf_r+0x194>
 80099f6:	ab03      	add	r3, sp, #12
 80099f8:	9300      	str	r3, [sp, #0]
 80099fa:	462a      	mov	r2, r5
 80099fc:	4b0f      	ldr	r3, [pc, #60]	; (8009a3c <_svfiprintf_r+0x1f8>)
 80099fe:	a904      	add	r1, sp, #16
 8009a00:	4638      	mov	r0, r7
 8009a02:	f7fd fcfb 	bl	80073fc <_printf_float>
 8009a06:	1c42      	adds	r2, r0, #1
 8009a08:	4606      	mov	r6, r0
 8009a0a:	d1d6      	bne.n	80099ba <_svfiprintf_r+0x176>
 8009a0c:	89ab      	ldrh	r3, [r5, #12]
 8009a0e:	065b      	lsls	r3, r3, #25
 8009a10:	f53f af2c 	bmi.w	800986c <_svfiprintf_r+0x28>
 8009a14:	9809      	ldr	r0, [sp, #36]	; 0x24
 8009a16:	b01d      	add	sp, #116	; 0x74
 8009a18:	e8bd 8ff0 	ldmia.w	sp!, {r4, r5, r6, r7, r8, r9, sl, fp, pc}
 8009a1c:	ab03      	add	r3, sp, #12
 8009a1e:	9300      	str	r3, [sp, #0]
 8009a20:	462a      	mov	r2, r5
 8009a22:	4b06      	ldr	r3, [pc, #24]	; (8009a3c <_svfiprintf_r+0x1f8>)
 8009a24:	a904      	add	r1, sp, #16
 8009a26:	4638      	mov	r0, r7
 8009a28:	f7fd ff8c 	bl	8007944 <_printf_i>
 8009a2c:	e7eb      	b.n	8009a06 <_svfiprintf_r+0x1c2>
 8009a2e:	bf00      	nop
 8009a30:	0800a4b4 	.word	0x0800a4b4
 8009a34:	0800a4be 	.word	0x0800a4be
 8009a38:	080073fd 	.word	0x080073fd
 8009a3c:	0800978f 	.word	0x0800978f
 8009a40:	0800a4ba 	.word	0x0800a4ba

08009a44 <__sfputc_r>:
 8009a44:	6893      	ldr	r3, [r2, #8]
 8009a46:	3b01      	subs	r3, #1
 8009a48:	2b00      	cmp	r3, #0
 8009a4a:	b410      	push	{r4}
 8009a4c:	6093      	str	r3, [r2, #8]
 8009a4e:	da08      	bge.n	8009a62 <__sfputc_r+0x1e>
 8009a50:	6994      	ldr	r4, [r2, #24]
 8009a52:	42a3      	cmp	r3, r4
 8009a54:	db01      	blt.n	8009a5a <__sfputc_r+0x16>
 8009a56:	290a      	cmp	r1, #10
 8009a58:	d103      	bne.n	8009a62 <__sfputc_r+0x1e>
 8009a5a:	f85d 4b04 	ldr.w	r4, [sp], #4
 8009a5e:	f7fe b969 	b.w	8007d34 <__swbuf_r>
 8009a62:	6813      	ldr	r3, [r2, #0]
 8009a64:	1c58      	adds	r0, r3, #1
 8009a66:	6010      	str	r0, [r2, #0]
 8009a68:	7019      	strb	r1, [r3, #0]
 8009a6a:	4608      	mov	r0, r1
 8009a6c:	f85d 4b04 	ldr.w	r4, [sp], #4
 8009a70:	4770      	bx	lr

08009a72 <__sfputs_r>:
 8009a72:	b5f8      	push	{r3, r4, r5, r6, r7, lr}
 8009a74:	4606      	mov	r6, r0
 8009a76:	460f      	mov	r7, r1
 8009a78:	4614      	mov	r4, r2
 8009a7a:	18d5      	adds	r5, r2, r3
 8009a7c:	42ac      	cmp	r4, r5
 8009a7e:	d101      	bne.n	8009a84 <__sfputs_r+0x12>
 8009a80:	2000      	movs	r0, #0
 8009a82:	e007      	b.n	8009a94 <__sfputs_r+0x22>
 8009a84:	f814 1b01 	ldrb.w	r1, [r4], #1
 8009a88:	463a      	mov	r2, r7
 8009a8a:	4630      	mov	r0, r6
 8009a8c:	f7ff ffda 	bl	8009a44 <__sfputc_r>
 8009a90:	1c43      	adds	r3, r0, #1
 8009a92:	d1f3      	bne.n	8009a7c <__sfputs_r+0xa>
 8009a94:	bdf8      	pop	{r3, r4, r5, r6, r7, pc}
	...

08009a98 <_vfiprintf_r>:
 8009a98:	e92d 4ff0 	stmdb	sp!, {r4, r5, r6, r7, r8, r9, sl, fp, lr}
 8009a9c:	460d      	mov	r5, r1
 8009a9e:	b09d      	sub	sp, #116	; 0x74
 8009aa0:	4614      	mov	r4, r2
 8009aa2:	4698      	mov	r8, r3
 8009aa4:	4606      	mov	r6, r0
 8009aa6:	b118      	cbz	r0, 8009ab0 <_vfiprintf_r+0x18>
 8009aa8:	6983      	ldr	r3, [r0, #24]
 8009aaa:	b90b      	cbnz	r3, 8009ab0 <_vfiprintf_r+0x18>
 8009aac:	f7ff f998 	bl	8008de0 <__sinit>
 8009ab0:	4b89      	ldr	r3, [pc, #548]	; (8009cd8 <_vfiprintf_r+0x240>)
 8009ab2:	429d      	cmp	r5, r3
 8009ab4:	d11b      	bne.n	8009aee <_vfiprintf_r+0x56>
 8009ab6:	6875      	ldr	r5, [r6, #4]
 8009ab8:	6e6b      	ldr	r3, [r5, #100]	; 0x64
 8009aba:	07d9      	lsls	r1, r3, #31
 8009abc:	d405      	bmi.n	8009aca <_vfiprintf_r+0x32>
 8009abe:	89ab      	ldrh	r3, [r5, #12]
 8009ac0:	059a      	lsls	r2, r3, #22
 8009ac2:	d402      	bmi.n	8009aca <_vfiprintf_r+0x32>
 8009ac4:	6da8      	ldr	r0, [r5, #88]	; 0x58
 8009ac6:	f7ff fa2e 	bl	8008f26 <__retarget_lock_acquire_recursive>
 8009aca:	89ab      	ldrh	r3, [r5, #12]
 8009acc:	071b      	lsls	r3, r3, #28
 8009ace:	d501      	bpl.n	8009ad4 <_vfiprintf_r+0x3c>
 8009ad0:	692b      	ldr	r3, [r5, #16]
 8009ad2:	b9eb      	cbnz	r3, 8009b10 <_vfiprintf_r+0x78>
 8009ad4:	4629      	mov	r1, r5
 8009ad6:	4630      	mov	r0, r6
 8009ad8:	f7fe f97e 	bl	8007dd8 <__swsetup_r>
 8009adc:	b1c0      	cbz	r0, 8009b10 <_vfiprintf_r+0x78>
 8009ade:	6e6b      	ldr	r3, [r5, #100]	; 0x64
 8009ae0:	07dc      	lsls	r4, r3, #31
 8009ae2:	d50e      	bpl.n	8009b02 <_vfiprintf_r+0x6a>
 8009ae4:	f04f 30ff 	mov.w	r0, #4294967295
 8009ae8:	b01d      	add	sp, #116	; 0x74
 8009aea:	e8bd 8ff0 	ldmia.w	sp!, {r4, r5, r6, r7, r8, r9, sl, fp, pc}
 8009aee:	4b7b      	ldr	r3, [pc, #492]	; (8009cdc <_vfiprintf_r+0x244>)
 8009af0:	429d      	cmp	r5, r3
 8009af2:	d101      	bne.n	8009af8 <_vfiprintf_r+0x60>
 8009af4:	68b5      	ldr	r5, [r6, #8]
 8009af6:	e7df      	b.n	8009ab8 <_vfiprintf_r+0x20>
 8009af8:	4b79      	ldr	r3, [pc, #484]	; (8009ce0 <_vfiprintf_r+0x248>)
 8009afa:	429d      	cmp	r5, r3
 8009afc:	bf08      	it	eq
 8009afe:	68f5      	ldreq	r5, [r6, #12]
 8009b00:	e7da      	b.n	8009ab8 <_vfiprintf_r+0x20>
 8009b02:	89ab      	ldrh	r3, [r5, #12]
 8009b04:	0598      	lsls	r0, r3, #22
 8009b06:	d4ed      	bmi.n	8009ae4 <_vfiprintf_r+0x4c>
 8009b08:	6da8      	ldr	r0, [r5, #88]	; 0x58
 8009b0a:	f7ff fa0d 	bl	8008f28 <__retarget_lock_release_recursive>
 8009b0e:	e7e9      	b.n	8009ae4 <_vfiprintf_r+0x4c>
 8009b10:	2300      	movs	r3, #0
 8009b12:	9309      	str	r3, [sp, #36]	; 0x24
 8009b14:	2320      	movs	r3, #32
 8009b16:	f88d 3029 	strb.w	r3, [sp, #41]	; 0x29
 8009b1a:	f8cd 800c 	str.w	r8, [sp, #12]
 8009b1e:	2330      	movs	r3, #48	; 0x30
 8009b20:	f8df 81c0 	ldr.w	r8, [pc, #448]	; 8009ce4 <_vfiprintf_r+0x24c>
 8009b24:	f88d 302a 	strb.w	r3, [sp, #42]	; 0x2a
 8009b28:	f04f 0901 	mov.w	r9, #1
 8009b2c:	4623      	mov	r3, r4
 8009b2e:	469a      	mov	sl, r3
 8009b30:	f813 2b01 	ldrb.w	r2, [r3], #1
 8009b34:	b10a      	cbz	r2, 8009b3a <_vfiprintf_r+0xa2>
 8009b36:	2a25      	cmp	r2, #37	; 0x25
 8009b38:	d1f9      	bne.n	8009b2e <_vfiprintf_r+0x96>
 8009b3a:	ebba 0b04 	subs.w	fp, sl, r4
 8009b3e:	d00b      	beq.n	8009b58 <_vfiprintf_r+0xc0>
 8009b40:	465b      	mov	r3, fp
 8009b42:	4622      	mov	r2, r4
 8009b44:	4629      	mov	r1, r5
 8009b46:	4630      	mov	r0, r6
 8009b48:	f7ff ff93 	bl	8009a72 <__sfputs_r>
 8009b4c:	3001      	adds	r0, #1
 8009b4e:	f000 80aa 	beq.w	8009ca6 <_vfiprintf_r+0x20e>
 8009b52:	9a09      	ldr	r2, [sp, #36]	; 0x24
 8009b54:	445a      	add	r2, fp
 8009b56:	9209      	str	r2, [sp, #36]	; 0x24
 8009b58:	f89a 3000 	ldrb.w	r3, [sl]
 8009b5c:	2b00      	cmp	r3, #0
 8009b5e:	f000 80a2 	beq.w	8009ca6 <_vfiprintf_r+0x20e>
 8009b62:	2300      	movs	r3, #0
 8009b64:	f04f 32ff 	mov.w	r2, #4294967295
 8009b68:	e9cd 2305 	strd	r2, r3, [sp, #20]
 8009b6c:	f10a 0a01 	add.w	sl, sl, #1
 8009b70:	9304      	str	r3, [sp, #16]
 8009b72:	9307      	str	r3, [sp, #28]
 8009b74:	f88d 3053 	strb.w	r3, [sp, #83]	; 0x53
 8009b78:	931a      	str	r3, [sp, #104]	; 0x68
 8009b7a:	4654      	mov	r4, sl
 8009b7c:	2205      	movs	r2, #5
 8009b7e:	f814 1b01 	ldrb.w	r1, [r4], #1
 8009b82:	4858      	ldr	r0, [pc, #352]	; (8009ce4 <_vfiprintf_r+0x24c>)
 8009b84:	f7f6 fb34 	bl	80001f0 <memchr>
 8009b88:	9a04      	ldr	r2, [sp, #16]
 8009b8a:	b9d8      	cbnz	r0, 8009bc4 <_vfiprintf_r+0x12c>
 8009b8c:	06d1      	lsls	r1, r2, #27
 8009b8e:	bf44      	itt	mi
 8009b90:	2320      	movmi	r3, #32
 8009b92:	f88d 3053 	strbmi.w	r3, [sp, #83]	; 0x53
 8009b96:	0713      	lsls	r3, r2, #28
 8009b98:	bf44      	itt	mi
 8009b9a:	232b      	movmi	r3, #43	; 0x2b
 8009b9c:	f88d 3053 	strbmi.w	r3, [sp, #83]	; 0x53
 8009ba0:	f89a 3000 	ldrb.w	r3, [sl]
 8009ba4:	2b2a      	cmp	r3, #42	; 0x2a
 8009ba6:	d015      	beq.n	8009bd4 <_vfiprintf_r+0x13c>
 8009ba8:	9a07      	ldr	r2, [sp, #28]
 8009baa:	4654      	mov	r4, sl
 8009bac:	2000      	movs	r0, #0
 8009bae:	f04f 0c0a 	mov.w	ip, #10
 8009bb2:	4621      	mov	r1, r4
 8009bb4:	f811 3b01 	ldrb.w	r3, [r1], #1
 8009bb8:	3b30      	subs	r3, #48	; 0x30
 8009bba:	2b09      	cmp	r3, #9
 8009bbc:	d94e      	bls.n	8009c5c <_vfiprintf_r+0x1c4>
 8009bbe:	b1b0      	cbz	r0, 8009bee <_vfiprintf_r+0x156>
 8009bc0:	9207      	str	r2, [sp, #28]
 8009bc2:	e014      	b.n	8009bee <_vfiprintf_r+0x156>
 8009bc4:	eba0 0308 	sub.w	r3, r0, r8
 8009bc8:	fa09 f303 	lsl.w	r3, r9, r3
 8009bcc:	4313      	orrs	r3, r2
 8009bce:	9304      	str	r3, [sp, #16]
 8009bd0:	46a2      	mov	sl, r4
 8009bd2:	e7d2      	b.n	8009b7a <_vfiprintf_r+0xe2>
 8009bd4:	9b03      	ldr	r3, [sp, #12]
 8009bd6:	1d19      	adds	r1, r3, #4
 8009bd8:	681b      	ldr	r3, [r3, #0]
 8009bda:	9103      	str	r1, [sp, #12]
 8009bdc:	2b00      	cmp	r3, #0
 8009bde:	bfbb      	ittet	lt
 8009be0:	425b      	neglt	r3, r3
 8009be2:	f042 0202 	orrlt.w	r2, r2, #2
 8009be6:	9307      	strge	r3, [sp, #28]
 8009be8:	9307      	strlt	r3, [sp, #28]
 8009bea:	bfb8      	it	lt
 8009bec:	9204      	strlt	r2, [sp, #16]
 8009bee:	7823      	ldrb	r3, [r4, #0]
 8009bf0:	2b2e      	cmp	r3, #46	; 0x2e
 8009bf2:	d10c      	bne.n	8009c0e <_vfiprintf_r+0x176>
 8009bf4:	7863      	ldrb	r3, [r4, #1]
 8009bf6:	2b2a      	cmp	r3, #42	; 0x2a
 8009bf8:	d135      	bne.n	8009c66 <_vfiprintf_r+0x1ce>
 8009bfa:	9b03      	ldr	r3, [sp, #12]
 8009bfc:	1d1a      	adds	r2, r3, #4
 8009bfe:	681b      	ldr	r3, [r3, #0]
 8009c00:	9203      	str	r2, [sp, #12]
 8009c02:	2b00      	cmp	r3, #0
 8009c04:	bfb8      	it	lt
 8009c06:	f04f 33ff 	movlt.w	r3, #4294967295
 8009c0a:	3402      	adds	r4, #2
 8009c0c:	9305      	str	r3, [sp, #20]
 8009c0e:	f8df a0e4 	ldr.w	sl, [pc, #228]	; 8009cf4 <_vfiprintf_r+0x25c>
 8009c12:	7821      	ldrb	r1, [r4, #0]
 8009c14:	2203      	movs	r2, #3
 8009c16:	4650      	mov	r0, sl
 8009c18:	f7f6 faea 	bl	80001f0 <memchr>
 8009c1c:	b140      	cbz	r0, 8009c30 <_vfiprintf_r+0x198>
 8009c1e:	2340      	movs	r3, #64	; 0x40
 8009c20:	eba0 000a 	sub.w	r0, r0, sl
 8009c24:	fa03 f000 	lsl.w	r0, r3, r0
 8009c28:	9b04      	ldr	r3, [sp, #16]
 8009c2a:	4303      	orrs	r3, r0
 8009c2c:	3401      	adds	r4, #1
 8009c2e:	9304      	str	r3, [sp, #16]
 8009c30:	f814 1b01 	ldrb.w	r1, [r4], #1
 8009c34:	482c      	ldr	r0, [pc, #176]	; (8009ce8 <_vfiprintf_r+0x250>)
 8009c36:	f88d 1028 	strb.w	r1, [sp, #40]	; 0x28
 8009c3a:	2206      	movs	r2, #6
 8009c3c:	f7f6 fad8 	bl	80001f0 <memchr>
 8009c40:	2800      	cmp	r0, #0
 8009c42:	d03f      	beq.n	8009cc4 <_vfiprintf_r+0x22c>
 8009c44:	4b29      	ldr	r3, [pc, #164]	; (8009cec <_vfiprintf_r+0x254>)
 8009c46:	bb1b      	cbnz	r3, 8009c90 <_vfiprintf_r+0x1f8>
 8009c48:	9b03      	ldr	r3, [sp, #12]
 8009c4a:	3307      	adds	r3, #7
 8009c4c:	f023 0307 	bic.w	r3, r3, #7
 8009c50:	3308      	adds	r3, #8
 8009c52:	9303      	str	r3, [sp, #12]
 8009c54:	9b09      	ldr	r3, [sp, #36]	; 0x24
 8009c56:	443b      	add	r3, r7
 8009c58:	9309      	str	r3, [sp, #36]	; 0x24
 8009c5a:	e767      	b.n	8009b2c <_vfiprintf_r+0x94>
 8009c5c:	fb0c 3202 	mla	r2, ip, r2, r3
 8009c60:	460c      	mov	r4, r1
 8009c62:	2001      	movs	r0, #1
 8009c64:	e7a5      	b.n	8009bb2 <_vfiprintf_r+0x11a>
 8009c66:	2300      	movs	r3, #0
 8009c68:	3401      	adds	r4, #1
 8009c6a:	9305      	str	r3, [sp, #20]
 8009c6c:	4619      	mov	r1, r3
 8009c6e:	f04f 0c0a 	mov.w	ip, #10
 8009c72:	4620      	mov	r0, r4
 8009c74:	f810 2b01 	ldrb.w	r2, [r0], #1
 8009c78:	3a30      	subs	r2, #48	; 0x30
 8009c7a:	2a09      	cmp	r2, #9
 8009c7c:	d903      	bls.n	8009c86 <_vfiprintf_r+0x1ee>
 8009c7e:	2b00      	cmp	r3, #0
 8009c80:	d0c5      	beq.n	8009c0e <_vfiprintf_r+0x176>
 8009c82:	9105      	str	r1, [sp, #20]
 8009c84:	e7c3      	b.n	8009c0e <_vfiprintf_r+0x176>
 8009c86:	fb0c 2101 	mla	r1, ip, r1, r2
 8009c8a:	4604      	mov	r4, r0
 8009c8c:	2301      	movs	r3, #1
 8009c8e:	e7f0      	b.n	8009c72 <_vfiprintf_r+0x1da>
 8009c90:	ab03      	add	r3, sp, #12
 8009c92:	9300      	str	r3, [sp, #0]
 8009c94:	462a      	mov	r2, r5
 8009c96:	4b16      	ldr	r3, [pc, #88]	; (8009cf0 <_vfiprintf_r+0x258>)
 8009c98:	a904      	add	r1, sp, #16
 8009c9a:	4630      	mov	r0, r6
 8009c9c:	f7fd fbae 	bl	80073fc <_printf_float>
 8009ca0:	4607      	mov	r7, r0
 8009ca2:	1c78      	adds	r0, r7, #1
 8009ca4:	d1d6      	bne.n	8009c54 <_vfiprintf_r+0x1bc>
 8009ca6:	6e6b      	ldr	r3, [r5, #100]	; 0x64
 8009ca8:	07d9      	lsls	r1, r3, #31
 8009caa:	d405      	bmi.n	8009cb8 <_vfiprintf_r+0x220>
 8009cac:	89ab      	ldrh	r3, [r5, #12]
 8009cae:	059a      	lsls	r2, r3, #22
 8009cb0:	d402      	bmi.n	8009cb8 <_vfiprintf_r+0x220>
 8009cb2:	6da8      	ldr	r0, [r5, #88]	; 0x58
 8009cb4:	f7ff f938 	bl	8008f28 <__retarget_lock_release_recursive>
 8009cb8:	89ab      	ldrh	r3, [r5, #12]
 8009cba:	065b      	lsls	r3, r3, #25
 8009cbc:	f53f af12 	bmi.w	8009ae4 <_vfiprintf_r+0x4c>
 8009cc0:	9809      	ldr	r0, [sp, #36]	; 0x24
 8009cc2:	e711      	b.n	8009ae8 <_vfiprintf_r+0x50>
 8009cc4:	ab03      	add	r3, sp, #12
 8009cc6:	9300      	str	r3, [sp, #0]
 8009cc8:	462a      	mov	r2, r5
 8009cca:	4b09      	ldr	r3, [pc, #36]	; (8009cf0 <_vfiprintf_r+0x258>)
 8009ccc:	a904      	add	r1, sp, #16
 8009cce:	4630      	mov	r0, r6
 8009cd0:	f7fd fe38 	bl	8007944 <_printf_i>
 8009cd4:	e7e4      	b.n	8009ca0 <_vfiprintf_r+0x208>
 8009cd6:	bf00      	nop
 8009cd8:	0800a318 	.word	0x0800a318
 8009cdc:	0800a338 	.word	0x0800a338
 8009ce0:	0800a2f8 	.word	0x0800a2f8
 8009ce4:	0800a4b4 	.word	0x0800a4b4
 8009ce8:	0800a4be 	.word	0x0800a4be
 8009cec:	080073fd 	.word	0x080073fd
 8009cf0:	08009a73 	.word	0x08009a73
 8009cf4:	0800a4ba 	.word	0x0800a4ba

08009cf8 <__sread>:
 8009cf8:	b510      	push	{r4, lr}
 8009cfa:	460c      	mov	r4, r1
 8009cfc:	f9b1 100e 	ldrsh.w	r1, [r1, #14]
 8009d00:	f000 f8f8 	bl	8009ef4 <_read_r>
 8009d04:	2800      	cmp	r0, #0
 8009d06:	bfab      	itete	ge
 8009d08:	6d63      	ldrge	r3, [r4, #84]	; 0x54
 8009d0a:	89a3      	ldrhlt	r3, [r4, #12]
 8009d0c:	181b      	addge	r3, r3, r0
 8009d0e:	f423 5380 	biclt.w	r3, r3, #4096	; 0x1000
 8009d12:	bfac      	ite	ge
 8009d14:	6563      	strge	r3, [r4, #84]	; 0x54
 8009d16:	81a3      	strhlt	r3, [r4, #12]
 8009d18:	bd10      	pop	{r4, pc}

08009d1a <__swrite>:
 8009d1a:	e92d 41f0 	stmdb	sp!, {r4, r5, r6, r7, r8, lr}
 8009d1e:	461f      	mov	r7, r3
 8009d20:	898b      	ldrh	r3, [r1, #12]
 8009d22:	05db      	lsls	r3, r3, #23
 8009d24:	4605      	mov	r5, r0
 8009d26:	460c      	mov	r4, r1
 8009d28:	4616      	mov	r6, r2
 8009d2a:	d505      	bpl.n	8009d38 <__swrite+0x1e>
 8009d2c:	f9b1 100e 	ldrsh.w	r1, [r1, #14]
 8009d30:	2302      	movs	r3, #2
 8009d32:	2200      	movs	r2, #0
 8009d34:	f000 f898 	bl	8009e68 <_lseek_r>
 8009d38:	89a3      	ldrh	r3, [r4, #12]
 8009d3a:	f9b4 100e 	ldrsh.w	r1, [r4, #14]
 8009d3e:	f423 5380 	bic.w	r3, r3, #4096	; 0x1000
 8009d42:	81a3      	strh	r3, [r4, #12]
 8009d44:	4632      	mov	r2, r6
 8009d46:	463b      	mov	r3, r7
 8009d48:	4628      	mov	r0, r5
 8009d4a:	e8bd 41f0 	ldmia.w	sp!, {r4, r5, r6, r7, r8, lr}
 8009d4e:	f000 b817 	b.w	8009d80 <_write_r>

08009d52 <__sseek>:
 8009d52:	b510      	push	{r4, lr}
 8009d54:	460c      	mov	r4, r1
 8009d56:	f9b1 100e 	ldrsh.w	r1, [r1, #14]
 8009d5a:	f000 f885 	bl	8009e68 <_lseek_r>
 8009d5e:	1c43      	adds	r3, r0, #1
 8009d60:	89a3      	ldrh	r3, [r4, #12]
 8009d62:	bf15      	itete	ne
 8009d64:	6560      	strne	r0, [r4, #84]	; 0x54
 8009d66:	f423 5380 	biceq.w	r3, r3, #4096	; 0x1000
 8009d6a:	f443 5380 	orrne.w	r3, r3, #4096	; 0x1000
 8009d6e:	81a3      	strheq	r3, [r4, #12]
 8009d70:	bf18      	it	ne
 8009d72:	81a3      	strhne	r3, [r4, #12]
 8009d74:	bd10      	pop	{r4, pc}

08009d76 <__sclose>:
 8009d76:	f9b1 100e 	ldrsh.w	r1, [r1, #14]
 8009d7a:	f000 b831 	b.w	8009de0 <_close_r>
	...

08009d80 <_write_r>:
 8009d80:	b538      	push	{r3, r4, r5, lr}
 8009d82:	4d07      	ldr	r5, [pc, #28]	; (8009da0 <_write_r+0x20>)
 8009d84:	4604      	mov	r4, r0
 8009d86:	4608      	mov	r0, r1
 8009d88:	4611      	mov	r1, r2
 8009d8a:	2200      	movs	r2, #0
 8009d8c:	602a      	str	r2, [r5, #0]
 8009d8e:	461a      	mov	r2, r3
 8009d90:	f7f7 f894 	bl	8000ebc <_write>
 8009d94:	1c43      	adds	r3, r0, #1
 8009d96:	d102      	bne.n	8009d9e <_write_r+0x1e>
 8009d98:	682b      	ldr	r3, [r5, #0]
 8009d9a:	b103      	cbz	r3, 8009d9e <_write_r+0x1e>
 8009d9c:	6023      	str	r3, [r4, #0]
 8009d9e:	bd38      	pop	{r3, r4, r5, pc}
 8009da0:	20000708 	.word	0x20000708

08009da4 <__assert_func>:
 8009da4:	b51f      	push	{r0, r1, r2, r3, r4, lr}
 8009da6:	4614      	mov	r4, r2
 8009da8:	461a      	mov	r2, r3
 8009daa:	4b09      	ldr	r3, [pc, #36]	; (8009dd0 <__assert_func+0x2c>)
 8009dac:	681b      	ldr	r3, [r3, #0]
 8009dae:	4605      	mov	r5, r0
 8009db0:	68d8      	ldr	r0, [r3, #12]
 8009db2:	b14c      	cbz	r4, 8009dc8 <__assert_func+0x24>
 8009db4:	4b07      	ldr	r3, [pc, #28]	; (8009dd4 <__assert_func+0x30>)
 8009db6:	9100      	str	r1, [sp, #0]
 8009db8:	e9cd 3401 	strd	r3, r4, [sp, #4]
 8009dbc:	4906      	ldr	r1, [pc, #24]	; (8009dd8 <__assert_func+0x34>)
 8009dbe:	462b      	mov	r3, r5
 8009dc0:	f000 f81e 	bl	8009e00 <fiprintf>
 8009dc4:	f000 f8b5 	bl	8009f32 <abort>
 8009dc8:	4b04      	ldr	r3, [pc, #16]	; (8009ddc <__assert_func+0x38>)
 8009dca:	461c      	mov	r4, r3
 8009dcc:	e7f3      	b.n	8009db6 <__assert_func+0x12>
 8009dce:	bf00      	nop
 8009dd0:	200002c8 	.word	0x200002c8
 8009dd4:	0800a4c5 	.word	0x0800a4c5
 8009dd8:	0800a4d2 	.word	0x0800a4d2
 8009ddc:	0800a500 	.word	0x0800a500

08009de0 <_close_r>:
 8009de0:	b538      	push	{r3, r4, r5, lr}
 8009de2:	4d06      	ldr	r5, [pc, #24]	; (8009dfc <_close_r+0x1c>)
 8009de4:	2300      	movs	r3, #0
 8009de6:	4604      	mov	r4, r0
 8009de8:	4608      	mov	r0, r1
 8009dea:	602b      	str	r3, [r5, #0]
 8009dec:	f7f7 fe6f 	bl	8001ace <_close>
 8009df0:	1c43      	adds	r3, r0, #1
 8009df2:	d102      	bne.n	8009dfa <_close_r+0x1a>
 8009df4:	682b      	ldr	r3, [r5, #0]
 8009df6:	b103      	cbz	r3, 8009dfa <_close_r+0x1a>
 8009df8:	6023      	str	r3, [r4, #0]
 8009dfa:	bd38      	pop	{r3, r4, r5, pc}
 8009dfc:	20000708 	.word	0x20000708

08009e00 <fiprintf>:
 8009e00:	b40e      	push	{r1, r2, r3}
 8009e02:	b503      	push	{r0, r1, lr}
 8009e04:	4601      	mov	r1, r0
 8009e06:	ab03      	add	r3, sp, #12
 8009e08:	4805      	ldr	r0, [pc, #20]	; (8009e20 <fiprintf+0x20>)
 8009e0a:	f853 2b04 	ldr.w	r2, [r3], #4
 8009e0e:	6800      	ldr	r0, [r0, #0]
 8009e10:	9301      	str	r3, [sp, #4]
 8009e12:	f7ff fe41 	bl	8009a98 <_vfiprintf_r>
 8009e16:	b002      	add	sp, #8
 8009e18:	f85d eb04 	ldr.w	lr, [sp], #4
 8009e1c:	b003      	add	sp, #12
 8009e1e:	4770      	bx	lr
 8009e20:	200002c8 	.word	0x200002c8

08009e24 <_fstat_r>:
 8009e24:	b538      	push	{r3, r4, r5, lr}
 8009e26:	4d07      	ldr	r5, [pc, #28]	; (8009e44 <_fstat_r+0x20>)
 8009e28:	2300      	movs	r3, #0
 8009e2a:	4604      	mov	r4, r0
 8009e2c:	4608      	mov	r0, r1
 8009e2e:	4611      	mov	r1, r2
 8009e30:	602b      	str	r3, [r5, #0]
 8009e32:	f7f7 fe58 	bl	8001ae6 <_fstat>
 8009e36:	1c43      	adds	r3, r0, #1
 8009e38:	d102      	bne.n	8009e40 <_fstat_r+0x1c>
 8009e3a:	682b      	ldr	r3, [r5, #0]
 8009e3c:	b103      	cbz	r3, 8009e40 <_fstat_r+0x1c>
 8009e3e:	6023      	str	r3, [r4, #0]
 8009e40:	bd38      	pop	{r3, r4, r5, pc}
 8009e42:	bf00      	nop
 8009e44:	20000708 	.word	0x20000708

08009e48 <_isatty_r>:
 8009e48:	b538      	push	{r3, r4, r5, lr}
 8009e4a:	4d06      	ldr	r5, [pc, #24]	; (8009e64 <_isatty_r+0x1c>)
 8009e4c:	2300      	movs	r3, #0
 8009e4e:	4604      	mov	r4, r0
 8009e50:	4608      	mov	r0, r1
 8009e52:	602b      	str	r3, [r5, #0]
 8009e54:	f7f7 fe57 	bl	8001b06 <_isatty>
 8009e58:	1c43      	adds	r3, r0, #1
 8009e5a:	d102      	bne.n	8009e62 <_isatty_r+0x1a>
 8009e5c:	682b      	ldr	r3, [r5, #0]
 8009e5e:	b103      	cbz	r3, 8009e62 <_isatty_r+0x1a>
 8009e60:	6023      	str	r3, [r4, #0]
 8009e62:	bd38      	pop	{r3, r4, r5, pc}
 8009e64:	20000708 	.word	0x20000708

08009e68 <_lseek_r>:
 8009e68:	b538      	push	{r3, r4, r5, lr}
 8009e6a:	4d07      	ldr	r5, [pc, #28]	; (8009e88 <_lseek_r+0x20>)
 8009e6c:	4604      	mov	r4, r0
 8009e6e:	4608      	mov	r0, r1
 8009e70:	4611      	mov	r1, r2
 8009e72:	2200      	movs	r2, #0
 8009e74:	602a      	str	r2, [r5, #0]
 8009e76:	461a      	mov	r2, r3
 8009e78:	f7f7 fe50 	bl	8001b1c <_lseek>
 8009e7c:	1c43      	adds	r3, r0, #1
 8009e7e:	d102      	bne.n	8009e86 <_lseek_r+0x1e>
 8009e80:	682b      	ldr	r3, [r5, #0]
 8009e82:	b103      	cbz	r3, 8009e86 <_lseek_r+0x1e>
 8009e84:	6023      	str	r3, [r4, #0]
 8009e86:	bd38      	pop	{r3, r4, r5, pc}
 8009e88:	20000708 	.word	0x20000708

08009e8c <__ascii_mbtowc>:
 8009e8c:	b082      	sub	sp, #8
 8009e8e:	b901      	cbnz	r1, 8009e92 <__ascii_mbtowc+0x6>
 8009e90:	a901      	add	r1, sp, #4
 8009e92:	b142      	cbz	r2, 8009ea6 <__ascii_mbtowc+0x1a>
 8009e94:	b14b      	cbz	r3, 8009eaa <__ascii_mbtowc+0x1e>
 8009e96:	7813      	ldrb	r3, [r2, #0]
 8009e98:	600b      	str	r3, [r1, #0]
 8009e9a:	7812      	ldrb	r2, [r2, #0]
 8009e9c:	1e10      	subs	r0, r2, #0
 8009e9e:	bf18      	it	ne
 8009ea0:	2001      	movne	r0, #1
 8009ea2:	b002      	add	sp, #8
 8009ea4:	4770      	bx	lr
 8009ea6:	4610      	mov	r0, r2
 8009ea8:	e7fb      	b.n	8009ea2 <__ascii_mbtowc+0x16>
 8009eaa:	f06f 0001 	mvn.w	r0, #1
 8009eae:	e7f8      	b.n	8009ea2 <__ascii_mbtowc+0x16>

08009eb0 <memmove>:
 8009eb0:	4288      	cmp	r0, r1
 8009eb2:	b510      	push	{r4, lr}
 8009eb4:	eb01 0402 	add.w	r4, r1, r2
 8009eb8:	d902      	bls.n	8009ec0 <memmove+0x10>
 8009eba:	4284      	cmp	r4, r0
 8009ebc:	4623      	mov	r3, r4
 8009ebe:	d807      	bhi.n	8009ed0 <memmove+0x20>
 8009ec0:	1e43      	subs	r3, r0, #1
 8009ec2:	42a1      	cmp	r1, r4
 8009ec4:	d008      	beq.n	8009ed8 <memmove+0x28>
 8009ec6:	f811 2b01 	ldrb.w	r2, [r1], #1
 8009eca:	f803 2f01 	strb.w	r2, [r3, #1]!
 8009ece:	e7f8      	b.n	8009ec2 <memmove+0x12>
 8009ed0:	4402      	add	r2, r0
 8009ed2:	4601      	mov	r1, r0
 8009ed4:	428a      	cmp	r2, r1
 8009ed6:	d100      	bne.n	8009eda <memmove+0x2a>
 8009ed8:	bd10      	pop	{r4, pc}
 8009eda:	f813 4d01 	ldrb.w	r4, [r3, #-1]!
 8009ede:	f802 4d01 	strb.w	r4, [r2, #-1]!
 8009ee2:	e7f7      	b.n	8009ed4 <memmove+0x24>

08009ee4 <_malloc_usable_size_r>:
 8009ee4:	f851 3c04 	ldr.w	r3, [r1, #-4]
 8009ee8:	1f18      	subs	r0, r3, #4
 8009eea:	2b00      	cmp	r3, #0
 8009eec:	bfbc      	itt	lt
 8009eee:	580b      	ldrlt	r3, [r1, r0]
 8009ef0:	18c0      	addlt	r0, r0, r3
 8009ef2:	4770      	bx	lr

08009ef4 <_read_r>:
 8009ef4:	b538      	push	{r3, r4, r5, lr}
 8009ef6:	4d07      	ldr	r5, [pc, #28]	; (8009f14 <_read_r+0x20>)
 8009ef8:	4604      	mov	r4, r0
 8009efa:	4608      	mov	r0, r1
 8009efc:	4611      	mov	r1, r2
 8009efe:	2200      	movs	r2, #0
 8009f00:	602a      	str	r2, [r5, #0]
 8009f02:	461a      	mov	r2, r3
 8009f04:	f7f7 fdc6 	bl	8001a94 <_read>
 8009f08:	1c43      	adds	r3, r0, #1
 8009f0a:	d102      	bne.n	8009f12 <_read_r+0x1e>
 8009f0c:	682b      	ldr	r3, [r5, #0]
 8009f0e:	b103      	cbz	r3, 8009f12 <_read_r+0x1e>
 8009f10:	6023      	str	r3, [r4, #0]
 8009f12:	bd38      	pop	{r3, r4, r5, pc}
 8009f14:	20000708 	.word	0x20000708

08009f18 <__ascii_wctomb>:
 8009f18:	b149      	cbz	r1, 8009f2e <__ascii_wctomb+0x16>
 8009f1a:	2aff      	cmp	r2, #255	; 0xff
 8009f1c:	bf85      	ittet	hi
 8009f1e:	238a      	movhi	r3, #138	; 0x8a
 8009f20:	6003      	strhi	r3, [r0, #0]
 8009f22:	700a      	strbls	r2, [r1, #0]
 8009f24:	f04f 30ff 	movhi.w	r0, #4294967295
 8009f28:	bf98      	it	ls
 8009f2a:	2001      	movls	r0, #1
 8009f2c:	4770      	bx	lr
 8009f2e:	4608      	mov	r0, r1
 8009f30:	4770      	bx	lr

08009f32 <abort>:
 8009f32:	b508      	push	{r3, lr}
 8009f34:	2006      	movs	r0, #6
 8009f36:	f000 f82b 	bl	8009f90 <raise>
 8009f3a:	2001      	movs	r0, #1
 8009f3c:	f7f7 fda0 	bl	8001a80 <_exit>

08009f40 <_raise_r>:
 8009f40:	291f      	cmp	r1, #31
 8009f42:	b538      	push	{r3, r4, r5, lr}
 8009f44:	4604      	mov	r4, r0
 8009f46:	460d      	mov	r5, r1
 8009f48:	d904      	bls.n	8009f54 <_raise_r+0x14>
 8009f4a:	2316      	movs	r3, #22
 8009f4c:	6003      	str	r3, [r0, #0]
 8009f4e:	f04f 30ff 	mov.w	r0, #4294967295
 8009f52:	bd38      	pop	{r3, r4, r5, pc}
 8009f54:	6c42      	ldr	r2, [r0, #68]	; 0x44
 8009f56:	b112      	cbz	r2, 8009f5e <_raise_r+0x1e>
 8009f58:	f852 3021 	ldr.w	r3, [r2, r1, lsl #2]
 8009f5c:	b94b      	cbnz	r3, 8009f72 <_raise_r+0x32>
 8009f5e:	4620      	mov	r0, r4
 8009f60:	f000 f830 	bl	8009fc4 <_getpid_r>
 8009f64:	462a      	mov	r2, r5
 8009f66:	4601      	mov	r1, r0
 8009f68:	4620      	mov	r0, r4
 8009f6a:	e8bd 4038 	ldmia.w	sp!, {r3, r4, r5, lr}
 8009f6e:	f000 b817 	b.w	8009fa0 <_kill_r>
 8009f72:	2b01      	cmp	r3, #1
 8009f74:	d00a      	beq.n	8009f8c <_raise_r+0x4c>
 8009f76:	1c59      	adds	r1, r3, #1
 8009f78:	d103      	bne.n	8009f82 <_raise_r+0x42>
 8009f7a:	2316      	movs	r3, #22
 8009f7c:	6003      	str	r3, [r0, #0]
 8009f7e:	2001      	movs	r0, #1
 8009f80:	e7e7      	b.n	8009f52 <_raise_r+0x12>
 8009f82:	2400      	movs	r4, #0
 8009f84:	f842 4025 	str.w	r4, [r2, r5, lsl #2]
 8009f88:	4628      	mov	r0, r5
 8009f8a:	4798      	blx	r3
 8009f8c:	2000      	movs	r0, #0
 8009f8e:	e7e0      	b.n	8009f52 <_raise_r+0x12>

08009f90 <raise>:
 8009f90:	4b02      	ldr	r3, [pc, #8]	; (8009f9c <raise+0xc>)
 8009f92:	4601      	mov	r1, r0
 8009f94:	6818      	ldr	r0, [r3, #0]
 8009f96:	f7ff bfd3 	b.w	8009f40 <_raise_r>
 8009f9a:	bf00      	nop
 8009f9c:	200002c8 	.word	0x200002c8

08009fa0 <_kill_r>:
 8009fa0:	b538      	push	{r3, r4, r5, lr}
 8009fa2:	4d07      	ldr	r5, [pc, #28]	; (8009fc0 <_kill_r+0x20>)
 8009fa4:	2300      	movs	r3, #0
 8009fa6:	4604      	mov	r4, r0
 8009fa8:	4608      	mov	r0, r1
 8009faa:	4611      	mov	r1, r2
 8009fac:	602b      	str	r3, [r5, #0]
 8009fae:	f7f7 fd57 	bl	8001a60 <_kill>
 8009fb2:	1c43      	adds	r3, r0, #1
 8009fb4:	d102      	bne.n	8009fbc <_kill_r+0x1c>
 8009fb6:	682b      	ldr	r3, [r5, #0]
 8009fb8:	b103      	cbz	r3, 8009fbc <_kill_r+0x1c>
 8009fba:	6023      	str	r3, [r4, #0]
 8009fbc:	bd38      	pop	{r3, r4, r5, pc}
 8009fbe:	bf00      	nop
 8009fc0:	20000708 	.word	0x20000708

08009fc4 <_getpid_r>:
 8009fc4:	f7f7 bd44 	b.w	8001a50 <_getpid>

08009fc8 <_init>:
 8009fc8:	b5f8      	push	{r3, r4, r5, r6, r7, lr}
 8009fca:	bf00      	nop
 8009fcc:	bcf8      	pop	{r3, r4, r5, r6, r7}
 8009fce:	bc08      	pop	{r3}
 8009fd0:	469e      	mov	lr, r3
 8009fd2:	4770      	bx	lr

08009fd4 <_fini>:
 8009fd4:	b5f8      	push	{r3, r4, r5, r6, r7, lr}
 8009fd6:	bf00      	nop
 8009fd8:	bcf8      	pop	{r3, r4, r5, r6, r7}
 8009fda:	bc08      	pop	{r3}
 8009fdc:	469e      	mov	lr, r3
 8009fde:	4770      	bx	lr
